
standby.elf:     file format elf32-littlearm


Disassembly of section .text:

f0000000 <main>:
f0000000:	e92d41f0 	push	{r4, r5, r6, r7, r8, lr}
f0000004:	e2508000 	subs	r8, r0, #0	; 0x0
f0000008:	03e00000 	mvneq	r0, #0	; 0x0
f000000c:	08bd81f0 	popeq	{r4, r5, r6, r7, r8, pc}
f0000010:	e59f4330 	ldr	r4, [pc, #816]	; f0000348 <main+0x348>
f0000014:	eb0000e9 	bl	f00003c0 <standby_flush_tlb>
f0000018:	eb0000ec 	bl	f00003d0 <standby_preload_tlb>
f000001c:	e59f5328 	ldr	r5, [pc, #808]	; f000034c <main+0x34c>
f0000020:	e3a06000 	mov	r6, #0	; 0x0
f0000024:	e4c46001 	strb	r6, [r4], #1
f0000028:	e1540005 	cmp	r4, r5
f000002c:	9afffffa 	bls	f000001c <main+0x1c>
f0000030:	e59f4318 	ldr	r4, [pc, #792]	; f0000350 <main+0x350>
f0000034:	e1a01008 	mov	r1, r8
f0000038:	e3a02010 	mov	r2, #16	; 0x10
f000003c:	e1a00004 	mov	r0, r4
f0000040:	eb0000c6 	bl	f0000360 <standby_memcpy>
f0000044:	e59f22fc 	ldr	r2, [pc, #764]	; f0000348 <main+0x348>
f0000048:	e59f0304 	ldr	r0, [pc, #772]	; f0000354 <main+0x354>
f000004c:	e0622005 	rsb	r2, r2, r5
f0000050:	e59f1300 	ldr	r1, [pc, #768]	; f0000358 <main+0x358>
f0000054:	eb0000c1 	bl	f0000360 <standby_memcpy>
f0000058:	e3a01103 	mov	r1, #-1073741824	; 0xc0000000
f000005c:	e3a02040 	mov	r2, #64	; 0x40
f0000060:	e59f02f4 	ldr	r0, [pc, #756]	; f000035c <main+0x35c>
f0000064:	eb0000bd 	bl	f0000360 <standby_memcpy>
f0000068:	eb000118 	bl	f00004d0 <standby_clk_init>
f000006c:	eb0004bf 	bl	f0001370 <standby_int_init>
f0000070:	eb000675 	bl	f0001a4c <standby_tmr_init>
f0000074:	eb0005f2 	bl	f0001844 <standby_power_init>
f0000078:	e5943000 	ldr	r3, [r4]
f000007c:	e3130001 	tst	r3, #1	; 0x1
f0000080:	0a000001 	beq	f000008c <main+0x8c>
f0000084:	e1a00006 	mov	r0, r6
f0000088:	eb0004f4 	bl	f0001460 <standby_enable_int>
f000008c:	e59f32bc 	ldr	r3, [pc, #700]	; f0000350 <main+0x350>
f0000090:	e5933000 	ldr	r3, [r3]
f0000094:	e3130004 	tst	r3, #4	; 0x4
f0000098:	0a000002 	beq	f00000a8 <main+0xa8>
f000009c:	eb000527 	bl	f0001540 <standby_key_init>
f00000a0:	e3a0001f 	mov	r0, #31	; 0x1f
f00000a4:	eb0004ed 	bl	f0001460 <standby_enable_int>
f00000a8:	e59f32a0 	ldr	r3, [pc, #672]	; f0000350 <main+0x350>
f00000ac:	e5933000 	ldr	r3, [r3]
f00000b0:	e3130008 	tst	r3, #8	; 0x8
f00000b4:	0a000004 	beq	f00000cc <main+0xcc>
f00000b8:	eb000506 	bl	f00014d8 <standby_ir_init>
f00000bc:	e3a00005 	mov	r0, #5	; 0x5
f00000c0:	eb0004e6 	bl	f0001460 <standby_enable_int>
f00000c4:	e3a00006 	mov	r0, #6	; 0x6
f00000c8:	eb0004e4 	bl	f0001460 <standby_enable_int>
f00000cc:	e59f327c 	ldr	r3, [pc, #636]	; f0000350 <main+0x350>
f00000d0:	e5933000 	ldr	r3, [r3]
f00000d4:	e3130010 	tst	r3, #16	; 0x10
f00000d8:	0a000001 	beq	f00000e4 <main+0xe4>
f00000dc:	e3a00018 	mov	r0, #24	; 0x18
f00000e0:	eb0004de 	bl	f0001460 <standby_enable_int>
f00000e4:	e59f3264 	ldr	r3, [pc, #612]	; f0000350 <main+0x350>
f00000e8:	e5933000 	ldr	r3, [r3]
f00000ec:	e3130002 	tst	r3, #2	; 0x2
f00000f0:	0a000002 	beq	f0000100 <main+0x100>
f00000f4:	eb000741 	bl	f0001e00 <standby_usb_init>
f00000f8:	e3a00026 	mov	r0, #38	; 0x26
f00000fc:	eb0004d7 	bl	f0001460 <standby_enable_int>
f0000100:	e59f0248 	ldr	r0, [pc, #584]	; f0000350 <main+0x350>
f0000104:	e5903000 	ldr	r3, [r0]
f0000108:	e3130020 	tst	r3, #32	; 0x20
f000010c:	0a000005 	beq	f0000128 <main+0x128>
f0000110:	e5900004 	ldr	r0, [r0, #4]
f0000114:	e3500000 	cmp	r0, #0	; 0x0
f0000118:	0a000002 	beq	f0000128 <main+0x128>
f000011c:	eb000601 	bl	f0001928 <standby_tmr_set>
f0000120:	e3a00016 	mov	r0, #22	; 0x16
f0000124:	eb0004cd 	bl	f0001460 <standby_enable_int>
f0000128:	eb00009f 	bl	f00003ac <save_sp>
f000012c:	e59f7228 	ldr	r7, [pc, #552]	; f000035c <main+0x35c>
f0000130:	e5870040 	str	r0, [r7, #64]
f0000134:	eb000284 	bl	f0000b4c <dram_power_save_process>
f0000138:	e3a00000 	mov	r0, #0	; 0x0
f000013c:	eb0001d2 	bl	f000088c <standby_clk_dramgating>
f0000140:	eb000121 	bl	f00005cc <standby_clk_core2hosc>
f0000144:	eb00013a 	bl	f0000634 <standby_clk_plldisable>
f0000148:	e3a00001 	mov	r0, #1	; 0x1
f000014c:	eb000534 	bl	f0001624 <standby_get_voltage>
f0000150:	e5870044 	str	r0, [r7, #68]
f0000154:	e3a00002 	mov	r0, #2	; 0x2
f0000158:	eb000531 	bl	f0001624 <standby_get_voltage>
f000015c:	e3a01ffa 	mov	r1, #1000	; 0x3e8
f0000160:	e5870048 	str	r0, [r7, #72]
f0000164:	e3a00001 	mov	r0, #1	; 0x1
f0000168:	eb00054a 	bl	f0001698 <standby_set_voltage>
f000016c:	e3a01ffa 	mov	r1, #1000	; 0x3e8
f0000170:	e3a00002 	mov	r0, #2	; 0x2
f0000174:	eb000547 	bl	f0001698 <standby_set_voltage>
f0000178:	e287004c 	add	r0, r7, #76	; 0x4c
f000017c:	eb0001ac 	bl	f0000834 <standby_clk_getdiv>
f0000180:	e5973050 	ldr	r3, [r7, #80]
f0000184:	e1a00007 	mov	r0, r7
f0000188:	e3c33eff 	bic	r3, r3, #4080	; 0xff0
f000018c:	e7cf361f 	bfc	r3, #12, #4
f0000190:	e5a03050 	str	r3, [r0, #80]!
f0000194:	eb00018e 	bl	f00007d4 <standby_clk_setdiv>
f0000198:	eb0001c6 	bl	f00008b8 <standby_clk_apb2losc>
f000019c:	e3a0000a 	mov	r0, #10	; 0xa
f00001a0:	eb00007c 	bl	f0000398 <standby_mdelay>
f00001a4:	eb0000fc 	bl	f000059c <standby_clk_core2losc>
f00001a8:	eb000155 	bl	f0000704 <standby_clk_hoscdisable>
f00001ac:	eb000164 	bl	f0000744 <standby_clk_ldodisable>
f00001b0:	e320f003 	wfi
f00001b4:	eb000174 	bl	f000078c <standby_clk_ldoenable>
f00001b8:	e3a00001 	mov	r0, #1	; 0x1
f00001bc:	e59f618c 	ldr	r6, [pc, #396]	; f0000350 <main+0x350>
f00001c0:	eb000716 	bl	f0001e20 <standby_delay>
f00001c4:	eb000156 	bl	f0000724 <standby_clk_hoscenable>
f00001c8:	e3a00001 	mov	r0, #1	; 0x1
f00001cc:	eb000713 	bl	f0001e20 <standby_delay>
f00001d0:	eb0001c1 	bl	f00008dc <standby_clk_apb2hosc>
f00001d4:	eb0000fc 	bl	f00005cc <standby_clk_core2hosc>
f00001d8:	e287004c 	add	r0, r7, #76	; 0x4c
f00001dc:	eb00017c 	bl	f00007d4 <standby_clk_setdiv>
f00001e0:	e3a03000 	mov	r3, #0	; 0x0
f00001e4:	e1a00003 	mov	r0, r3
f00001e8:	e5863000 	str	r3, [r6]
f00001ec:	eb0004ad 	bl	f00014a8 <standby_query_int>
f00001f0:	e2705001 	rsbs	r5, r0, #1	; 0x1
f00001f4:	33a05000 	movcc	r5, #0	; 0x0
f00001f8:	e3a00026 	mov	r0, #38	; 0x26
f00001fc:	e5865000 	str	r5, [r6]
f0000200:	eb0004a8 	bl	f00014a8 <standby_query_int>
f0000204:	e3500000 	cmp	r0, #0	; 0x0
f0000208:	e3a0001f 	mov	r0, #31	; 0x1f
f000020c:	03a04002 	moveq	r4, #2	; 0x2
f0000210:	13a04000 	movne	r4, #0	; 0x0
f0000214:	e1844005 	orr	r4, r4, r5
f0000218:	e5864000 	str	r4, [r6]
f000021c:	eb0004a1 	bl	f00014a8 <standby_query_int>
f0000220:	e3500000 	cmp	r0, #0	; 0x0
f0000224:	e3a00005 	mov	r0, #5	; 0x5
f0000228:	03a05004 	moveq	r5, #4	; 0x4
f000022c:	13a05000 	movne	r5, #0	; 0x0
f0000230:	e1855004 	orr	r5, r5, r4
f0000234:	e5865000 	str	r5, [r6]
f0000238:	eb00049a 	bl	f00014a8 <standby_query_int>
f000023c:	e3500000 	cmp	r0, #0	; 0x0
f0000240:	e3a00018 	mov	r0, #24	; 0x18
f0000244:	03a04008 	moveq	r4, #8	; 0x8
f0000248:	13a04000 	movne	r4, #0	; 0x0
f000024c:	e1844005 	orr	r4, r4, r5
f0000250:	e5864000 	str	r4, [r6]
f0000254:	eb000493 	bl	f00014a8 <standby_query_int>
f0000258:	e3500000 	cmp	r0, #0	; 0x0
f000025c:	e3a00016 	mov	r0, #22	; 0x16
f0000260:	03a05010 	moveq	r5, #16	; 0x10
f0000264:	13a05000 	movne	r5, #0	; 0x0
f0000268:	e1855004 	orr	r5, r5, r4
f000026c:	e5865000 	str	r5, [r6]
f0000270:	eb00048c 	bl	f00014a8 <standby_query_int>
f0000274:	e5971044 	ldr	r1, [r7, #68]
f0000278:	e3500000 	cmp	r0, #0	; 0x0
f000027c:	e3a00001 	mov	r0, #1	; 0x1
f0000280:	03a03020 	moveq	r3, #32	; 0x20
f0000284:	13a03000 	movne	r3, #0	; 0x0
f0000288:	e1833005 	orr	r3, r3, r5
f000028c:	e5863000 	str	r3, [r6]
f0000290:	eb000500 	bl	f0001698 <standby_set_voltage>
f0000294:	e5971048 	ldr	r1, [r7, #72]
f0000298:	e3a00002 	mov	r0, #2	; 0x2
f000029c:	eb0004fd 	bl	f0001698 <standby_set_voltage>
f00002a0:	e3a0000a 	mov	r0, #10	; 0xa
f00002a4:	eb00003b 	bl	f0000398 <standby_mdelay>
f00002a8:	eb0000fb 	bl	f000069c <standby_clk_pllenable>
f00002ac:	e3a0000a 	mov	r0, #10	; 0xa
f00002b0:	eb000038 	bl	f0000398 <standby_mdelay>
f00002b4:	eb0000d1 	bl	f0000600 <standby_clk_core2pll>
f00002b8:	e3a0000a 	mov	r0, #10	; 0xa
f00002bc:	eb000035 	bl	f0000398 <standby_mdelay>
f00002c0:	e3a00001 	mov	r0, #1	; 0x1
f00002c4:	eb000170 	bl	f000088c <standby_clk_dramgating>
f00002c8:	eb0005ab 	bl	f000197c <standby_tmr_enable_watchdog>
f00002cc:	eb00026e 	bl	f0000c8c <dram_power_up_process>
f00002d0:	eb0005b2 	bl	f00019a0 <standby_tmr_disable_watchdog>
f00002d4:	e5970040 	ldr	r0, [r7, #64]
f00002d8:	eb000036 	bl	f00003b8 <restore_sp>
f00002dc:	e5963000 	ldr	r3, [r6]
f00002e0:	e3130002 	tst	r3, #2	; 0x2
f00002e4:	0a000000 	beq	f00002ec <main+0x2ec>
f00002e8:	eb0006c6 	bl	f0001e08 <standby_usb_exit>
f00002ec:	e59f305c 	ldr	r3, [pc, #92]	; f0000350 <main+0x350>
f00002f0:	e5933000 	ldr	r3, [r3]
f00002f4:	e3130008 	tst	r3, #8	; 0x8
f00002f8:	0a000000 	beq	f0000300 <main+0x300>
f00002fc:	eb000477 	bl	f00014e0 <standby_ir_exit>
f0000300:	e59f3048 	ldr	r3, [pc, #72]	; f0000350 <main+0x350>
f0000304:	e5933000 	ldr	r3, [r3]
f0000308:	e3130004 	tst	r3, #4	; 0x4
f000030c:	0a000000 	beq	f0000314 <main+0x314>
f0000310:	eb000478 	bl	f00014f8 <standby_key_exit>
f0000314:	eb00052b 	bl	f00017c8 <standby_power_exit>
f0000318:	eb000570 	bl	f00018e0 <standby_tmr_exit>
f000031c:	eb000439 	bl	f0001408 <standby_int_exit>
f0000320:	eb00008b 	bl	f0000554 <standby_clk_exit>
f0000324:	e3a00103 	mov	r0, #-1073741824	; 0xc0000000
f0000328:	e59f102c 	ldr	r1, [pc, #44]	; f000035c <main+0x35c>
f000032c:	e3a02040 	mov	r2, #64	; 0x40
f0000330:	eb00000a 	bl	f0000360 <standby_memcpy>
f0000334:	e59f3014 	ldr	r3, [pc, #20]	; f0000350 <main+0x350>
f0000338:	e3a00000 	mov	r0, #0	; 0x0
f000033c:	e5933000 	ldr	r3, [r3]
f0000340:	e5883000 	str	r3, [r8]
f0000344:	e8bd81f0 	pop	{r4, r5, r6, r7, r8, pc}
f0000348:	f0001fa0 	.word	0xf0001fa0
f000034c:	f0002088 	.word	0xf0002088
f0000350:	f0002074 	.word	0xf0002074
f0000354:	f0002088 	.word	0xf0002088
f0000358:	00000000 	.word	0x00000000
f000035c:	f0001fa0 	.word	0xf0001fa0

f0000360 <standby_memcpy>:
f0000360:	e3510000 	cmp	r1, #0	; 0x0
f0000364:	13500000 	cmpne	r0, #0	; 0x0
f0000368:	13a03000 	movne	r3, #0	; 0x0
f000036c:	03a03001 	moveq	r3, #1	; 0x1
f0000370:	11a0c003 	movne	ip, r3
f0000374:	1a000003 	bne	f0000388 <standby_memcpy+0x28>
f0000378:	e12fff1e 	bx	lr
f000037c:	e7d1300c 	ldrb	r3, [r1, ip]
f0000380:	e7c0300c 	strb	r3, [r0, ip]
f0000384:	e28cc001 	add	ip, ip, #1	; 0x1
f0000388:	e3520000 	cmp	r2, #0	; 0x0
f000038c:	e2422001 	sub	r2, r2, #1	; 0x1
f0000390:	cafffff9 	bgt	f000037c <standby_memcpy+0x1c>
f0000394:	e12fff1e 	bx	lr

f0000398 <standby_mdelay>:
f0000398:	e59f3008 	ldr	r3, [pc, #8]	; f00003a8 <standby_mdelay+0x10>
f000039c:	e5933000 	ldr	r3, [r3]
f00003a0:	e0000093 	mul	r0, r3, r0
f00003a4:	ea00069d 	b	f0001e20 <standby_delay>
f00003a8:	f0002084 	.word	0xf0002084

f00003ac <save_sp>:
f00003ac:	e1a0000d 	mov	r0, sp
f00003b0:	e59fd0dc 	ldr	sp, [pc, #220]	; f0000494 <standby_preload_tlb+0xc4>
f00003b4:	e1a0f00e 	mov	pc, lr

f00003b8 <restore_sp>:
f00003b8:	e1a0d000 	mov	sp, r0
f00003bc:	e1a0f00e 	mov	pc, lr

f00003c0 <standby_flush_tlb>:
f00003c0:	e92d000f 	push	{r0, r1, r2, r3}
f00003c4:	ee080f17 	mcr	15, 0, r0, cr8, cr7, {0}
f00003c8:	e8bd000f 	pop	{r0, r1, r2, r3}
f00003cc:	e1a0f00e 	mov	pc, lr

f00003d0 <standby_preload_tlb>:
f00003d0:	e92d000f 	push	{r0, r1, r2, r3}
f00003d4:	e59f00bc 	ldr	r0, [pc, #188]	; f0000498 <standby_preload_tlb+0xc8>
f00003d8:	ee0a0f11 	mcr	15, 0, r0, cr10, cr1, {0}
f00003dc:	e59f00b8 	ldr	r0, [pc, #184]	; f000049c <standby_preload_tlb+0xcc>
f00003e0:	ee0a0f11 	mcr	15, 0, r0, cr10, cr1, {0}
f00003e4:	e59f00b4 	ldr	r0, [pc, #180]	; f00004a0 <standby_preload_tlb+0xd0>
f00003e8:	ee0a0f11 	mcr	15, 0, r0, cr10, cr1, {0}
f00003ec:	e59f00b0 	ldr	r0, [pc, #176]	; f00004a4 <standby_preload_tlb+0xd4>
f00003f0:	ee0a0f11 	mcr	15, 0, r0, cr10, cr1, {0}
f00003f4:	e59f00ac 	ldr	r0, [pc, #172]	; f00004a8 <standby_preload_tlb+0xd8>
f00003f8:	ee0a0f11 	mcr	15, 0, r0, cr10, cr1, {0}
f00003fc:	e59f00a8 	ldr	r0, [pc, #168]	; f00004ac <standby_preload_tlb+0xdc>
f0000400:	ee0a0f11 	mcr	15, 0, r0, cr10, cr1, {0}
f0000404:	e59f00a4 	ldr	r0, [pc, #164]	; f00004b0 <standby_preload_tlb+0xe0>
f0000408:	ee0a0f11 	mcr	15, 0, r0, cr10, cr1, {0}
f000040c:	e3a0020f 	mov	r0, #-268435456	; 0xf0000000
f0000410:	ee0a0f11 	mcr	15, 0, r0, cr10, cr1, {0}
f0000414:	e59f0098 	ldr	r0, [pc, #152]	; f00004b4 <standby_preload_tlb+0xe4>
f0000418:	ee0a0f11 	mcr	15, 0, r0, cr10, cr1, {0}
f000041c:	e59f0094 	ldr	r0, [pc, #148]	; f00004b8 <standby_preload_tlb+0xe8>
f0000420:	ee0a0f11 	mcr	15, 0, r0, cr10, cr1, {0}
f0000424:	e59f0090 	ldr	r0, [pc, #144]	; f00004bc <standby_preload_tlb+0xec>
f0000428:	ee0a0f11 	mcr	15, 0, r0, cr10, cr1, {0}
f000042c:	e59f008c 	ldr	r0, [pc, #140]	; f00004c0 <standby_preload_tlb+0xf0>
f0000430:	ee0a0f11 	mcr	15, 0, r0, cr10, cr1, {0}
f0000434:	e59f0088 	ldr	r0, [pc, #136]	; f00004c4 <standby_preload_tlb+0xf4>
f0000438:	ee0a0f11 	mcr	15, 0, r0, cr10, cr1, {0}
f000043c:	e59f0084 	ldr	r0, [pc, #132]	; f00004c8 <standby_preload_tlb+0xf8>
f0000440:	ee0a0f11 	mcr	15, 0, r0, cr10, cr1, {0}
f0000444:	e59f0080 	ldr	r0, [pc, #128]	; f00004cc <standby_preload_tlb+0xfc>
f0000448:	ee0a0f11 	mcr	15, 0, r0, cr10, cr1, {0}
f000044c:	e3a0020f 	mov	r0, #-268435456	; 0xf0000000
f0000450:	ee0a0f31 	mcr	15, 0, r0, cr10, cr1, {1}
f0000454:	e59f0058 	ldr	r0, [pc, #88]	; f00004b4 <standby_preload_tlb+0xe4>
f0000458:	ee0a0f31 	mcr	15, 0, r0, cr10, cr1, {1}
f000045c:	e59f0054 	ldr	r0, [pc, #84]	; f00004b8 <standby_preload_tlb+0xe8>
f0000460:	ee0a0f31 	mcr	15, 0, r0, cr10, cr1, {1}
f0000464:	e59f0050 	ldr	r0, [pc, #80]	; f00004bc <standby_preload_tlb+0xec>
f0000468:	ee0a0f31 	mcr	15, 0, r0, cr10, cr1, {1}
f000046c:	e59f004c 	ldr	r0, [pc, #76]	; f00004c0 <standby_preload_tlb+0xf0>
f0000470:	ee0a0f31 	mcr	15, 0, r0, cr10, cr1, {1}
f0000474:	e59f0048 	ldr	r0, [pc, #72]	; f00004c4 <standby_preload_tlb+0xf4>
f0000478:	ee0a0f31 	mcr	15, 0, r0, cr10, cr1, {1}
f000047c:	e59f0044 	ldr	r0, [pc, #68]	; f00004c8 <standby_preload_tlb+0xf8>
f0000480:	ee0a0f31 	mcr	15, 0, r0, cr10, cr1, {1}
f0000484:	e59f0040 	ldr	r0, [pc, #64]	; f00004cc <standby_preload_tlb+0xfc>
f0000488:	ee0a0f31 	mcr	15, 0, r0, cr10, cr1, {1}
f000048c:	e8bd000f 	pop	{r0, r1, r2, r3}
f0000490:	e1a0f00e 	mov	pc, lr
f0000494:	f0007ffc 	.word	0xf0007ffc
f0000498:	f1c20000 	.word	0xf1c20000
f000049c:	f1c2ac00 	.word	0xf1c2ac00
f00004a0:	f1c2b000 	.word	0xf1c2b000
f00004a4:	f1c2b400 	.word	0xf1c2b400
f00004a8:	f1c20400 	.word	0xf1c20400
f00004ac:	f1c20c00 	.word	0xf1c20c00
f00004b0:	f1c22800 	.word	0xf1c22800
f00004b4:	f0000400 	.word	0xf0000400
f00004b8:	f0000800 	.word	0xf0000800
f00004bc:	f0000c00 	.word	0xf0000c00
f00004c0:	f0001000 	.word	0xf0001000
f00004c4:	f0001400 	.word	0xf0001400
f00004c8:	f0001800 	.word	0xf0001800
f00004cc:	f0001c00 	.word	0xf0001c00

f00004d0 <standby_clk_init>:
f00004d0:	e92d45f0 	push	{r4, r5, r6, r7, r8, sl, lr}
f00004d4:	e59f3068 	ldr	r3, [pc, #104]	; f0000544 <standby_clk_init+0x74>
f00004d8:	e59f8068 	ldr	r8, [pc, #104]	; f0000548 <standby_clk_init+0x78>
f00004dc:	e3001bb8 	movw	r1, #3000	; 0xbb8
f00004e0:	e3a00000 	mov	r0, #0	; 0x0
f00004e4:	e598a000 	ldr	sl, [r8]
f00004e8:	e5937000 	ldr	r7, [r3]
f00004ec:	e2833008 	add	r3, r3, #8	; 0x8
f00004f0:	e5936000 	ldr	r6, [r3]
f00004f4:	e2833008 	add	r3, r3, #8	; 0x8
f00004f8:	e5935000 	ldr	r5, [r3]
f00004fc:	e2833008 	add	r3, r3, #8	; 0x8
f0000500:	e5934000 	ldr	r4, [r3]
f0000504:	e2833008 	add	r3, r3, #8	; 0x8
f0000508:	e593c000 	ldr	ip, [r3]
f000050c:	e2833008 	add	r3, r3, #8	; 0x8
f0000510:	e5932000 	ldr	r2, [r3]
f0000514:	e59f3030 	ldr	r3, [pc, #48]	; f000054c <standby_clk_init+0x7c>
f0000518:	e583201c 	str	r2, [r3, #28]
f000051c:	e59f202c 	ldr	r2, [pc, #44]	; f0000550 <standby_clk_init+0x80>
f0000520:	e583a004 	str	sl, [r3, #4]
f0000524:	e5837008 	str	r7, [r3, #8]
f0000528:	e5821000 	str	r1, [r2]
f000052c:	e583600c 	str	r6, [r3, #12]
f0000530:	e5835010 	str	r5, [r3, #16]
f0000534:	e5834014 	str	r4, [r3, #20]
f0000538:	e583c018 	str	ip, [r3, #24]
f000053c:	e5838000 	str	r8, [r3]
f0000540:	e8bd85f0 	pop	{r4, r5, r6, r7, r8, sl, pc}
f0000544:	f1c20008 	.word	0xf1c20008
f0000548:	f1c20000 	.word	0xf1c20000
f000054c:	f0001ff4 	.word	0xf0001ff4
f0000550:	f0002084 	.word	0xf0002084

f0000554 <standby_clk_exit>:
f0000554:	e59f203c 	ldr	r2, [pc, #60]	; f0000598 <standby_clk_exit+0x44>
f0000558:	e3a00000 	mov	r0, #0	; 0x0
f000055c:	e892000a 	ldm	r2, {r1, r3}
f0000560:	e5813000 	str	r3, [r1]
f0000564:	e5923008 	ldr	r3, [r2, #8]
f0000568:	e5813008 	str	r3, [r1, #8]
f000056c:	e592300c 	ldr	r3, [r2, #12]
f0000570:	e5813010 	str	r3, [r1, #16]
f0000574:	e5923010 	ldr	r3, [r2, #16]
f0000578:	e5813018 	str	r3, [r1, #24]
f000057c:	e5923014 	ldr	r3, [r2, #20]
f0000580:	e5813020 	str	r3, [r1, #32]
f0000584:	e5923018 	ldr	r3, [r2, #24]
f0000588:	e5813028 	str	r3, [r1, #40]
f000058c:	e592301c 	ldr	r3, [r2, #28]
f0000590:	e5813030 	str	r3, [r1, #48]
f0000594:	e12fff1e 	bx	lr
f0000598:	f0001ff4 	.word	0xf0001ff4

f000059c <standby_clk_core2losc>:
f000059c:	e59f3020 	ldr	r3, [pc, #32]	; f00005c4 <standby_clk_core2losc+0x28>
f00005a0:	e3a00000 	mov	r0, #0	; 0x0
f00005a4:	e5932000 	ldr	r2, [r3]
f00005a8:	e5923054 	ldr	r3, [r2, #84]
f00005ac:	e7d1381f 	bfc	r3, #16, #2
f00005b0:	e5823054 	str	r3, [r2, #84]
f00005b4:	e59f300c 	ldr	r3, [pc, #12]	; f00005c8 <standby_clk_core2losc+0x2c>
f00005b8:	e3a02001 	mov	r2, #1	; 0x1
f00005bc:	e5832000 	str	r2, [r3]
f00005c0:	e12fff1e 	bx	lr
f00005c4:	f0001ff4 	.word	0xf0001ff4
f00005c8:	f0002084 	.word	0xf0002084

f00005cc <standby_clk_core2hosc>:
f00005cc:	e59f3024 	ldr	r3, [pc, #36]	; f00005f8 <standby_clk_core2hosc+0x2c>
f00005d0:	e3a02001 	mov	r2, #1	; 0x1
f00005d4:	e3a00000 	mov	r0, #0	; 0x0
f00005d8:	e5931000 	ldr	r1, [r3]
f00005dc:	e5913054 	ldr	r3, [r1, #84]
f00005e0:	e7d13812 	bfi	r3, r2, #16, #2
f00005e4:	e5813054 	str	r3, [r1, #84]
f00005e8:	e59f300c 	ldr	r3, [pc, #12]	; f00005fc <standby_clk_core2hosc+0x30>
f00005ec:	e3a02f96 	mov	r2, #600	; 0x258
f00005f0:	e5832000 	str	r2, [r3]
f00005f4:	e12fff1e 	bx	lr
f00005f8:	f0001ff4 	.word	0xf0001ff4
f00005fc:	f0002084 	.word	0xf0002084

f0000600 <standby_clk_core2pll>:
f0000600:	e59f3024 	ldr	r3, [pc, #36]	; f000062c <standby_clk_core2pll+0x2c>
f0000604:	e3a02002 	mov	r2, #2	; 0x2
f0000608:	e3a00000 	mov	r0, #0	; 0x0
f000060c:	e5931000 	ldr	r1, [r3]
f0000610:	e5913054 	ldr	r3, [r1, #84]
f0000614:	e7d13812 	bfi	r3, r2, #16, #2
f0000618:	e5813054 	str	r3, [r1, #84]
f000061c:	e59f300c 	ldr	r3, [pc, #12]	; f0000630 <standby_clk_core2pll+0x30>
f0000620:	e3a02e7d 	mov	r2, #2000	; 0x7d0
f0000624:	e5832000 	str	r2, [r3]
f0000628:	e12fff1e 	bx	lr
f000062c:	f0001ff4 	.word	0xf0001ff4
f0000630:	f0002084 	.word	0xf0002084

f0000634 <standby_clk_plldisable>:
f0000634:	e59f305c 	ldr	r3, [pc, #92]	; f0000698 <standby_clk_plldisable+0x64>
f0000638:	e3a00000 	mov	r0, #0	; 0x0
f000063c:	e5932000 	ldr	r2, [r3]
f0000640:	e5923000 	ldr	r3, [r2]
f0000644:	e7df3f9f 	bfc	r3, #31, #1
f0000648:	e5823000 	str	r3, [r2]
f000064c:	e5923008 	ldr	r3, [r2, #8]
f0000650:	e7df3f9f 	bfc	r3, #31, #1
f0000654:	e5823008 	str	r3, [r2, #8]
f0000658:	e5923010 	ldr	r3, [r2, #16]
f000065c:	e7df3f9f 	bfc	r3, #31, #1
f0000660:	e5823010 	str	r3, [r2, #16]
f0000664:	e5923018 	ldr	r3, [r2, #24]
f0000668:	e7df3f9f 	bfc	r3, #31, #1
f000066c:	e5823018 	str	r3, [r2, #24]
f0000670:	e5923020 	ldr	r3, [r2, #32]
f0000674:	e7df3f9f 	bfc	r3, #31, #1
f0000678:	e5823020 	str	r3, [r2, #32]
f000067c:	e5923028 	ldr	r3, [r2, #40]
f0000680:	e7df3f9f 	bfc	r3, #31, #1
f0000684:	e5823028 	str	r3, [r2, #40]
f0000688:	e5923030 	ldr	r3, [r2, #48]
f000068c:	e7df3f9f 	bfc	r3, #31, #1
f0000690:	e5823030 	str	r3, [r2, #48]
f0000694:	e12fff1e 	bx	lr
f0000698:	f0001ff4 	.word	0xf0001ff4

f000069c <standby_clk_pllenable>:
f000069c:	e59f305c 	ldr	r3, [pc, #92]	; f0000700 <standby_clk_pllenable+0x64>
f00006a0:	e3a00000 	mov	r0, #0	; 0x0
f00006a4:	e5932000 	ldr	r2, [r3]
f00006a8:	e5923000 	ldr	r3, [r2]
f00006ac:	e3833102 	orr	r3, r3, #-2147483648	; 0x80000000
f00006b0:	e5823000 	str	r3, [r2]
f00006b4:	e5923008 	ldr	r3, [r2, #8]
f00006b8:	e3833102 	orr	r3, r3, #-2147483648	; 0x80000000
f00006bc:	e5823008 	str	r3, [r2, #8]
f00006c0:	e5923010 	ldr	r3, [r2, #16]
f00006c4:	e3833102 	orr	r3, r3, #-2147483648	; 0x80000000
f00006c8:	e5823010 	str	r3, [r2, #16]
f00006cc:	e5923018 	ldr	r3, [r2, #24]
f00006d0:	e3833102 	orr	r3, r3, #-2147483648	; 0x80000000
f00006d4:	e5823018 	str	r3, [r2, #24]
f00006d8:	e5923020 	ldr	r3, [r2, #32]
f00006dc:	e3833102 	orr	r3, r3, #-2147483648	; 0x80000000
f00006e0:	e5823020 	str	r3, [r2, #32]
f00006e4:	e5923028 	ldr	r3, [r2, #40]
f00006e8:	e3833102 	orr	r3, r3, #-2147483648	; 0x80000000
f00006ec:	e5823028 	str	r3, [r2, #40]
f00006f0:	e5923030 	ldr	r3, [r2, #48]
f00006f4:	e3833102 	orr	r3, r3, #-2147483648	; 0x80000000
f00006f8:	e5823030 	str	r3, [r2, #48]
f00006fc:	e12fff1e 	bx	lr
f0000700:	f0001ff4 	.word	0xf0001ff4

f0000704 <standby_clk_hoscdisable>:
f0000704:	e59f3014 	ldr	r3, [pc, #20]	; f0000720 <standby_clk_hoscdisable+0x1c>
f0000708:	e3a00000 	mov	r0, #0	; 0x0
f000070c:	e5932000 	ldr	r2, [r3]
f0000710:	e5923050 	ldr	r3, [r2, #80]
f0000714:	e7c0301f 	bfc	r3, #0, #1
f0000718:	e5823050 	str	r3, [r2, #80]
f000071c:	e12fff1e 	bx	lr
f0000720:	f0001ff4 	.word	0xf0001ff4

f0000724 <standby_clk_hoscenable>:
f0000724:	e59f3014 	ldr	r3, [pc, #20]	; f0000740 <standby_clk_hoscenable+0x1c>
f0000728:	e3a00000 	mov	r0, #0	; 0x0
f000072c:	e5932000 	ldr	r2, [r3]
f0000730:	e5923050 	ldr	r3, [r2, #80]
f0000734:	e3833001 	orr	r3, r3, #1	; 0x1
f0000738:	e5823050 	str	r3, [r2, #80]
f000073c:	e12fff1e 	bx	lr
f0000740:	f0001ff4 	.word	0xf0001ff4

f0000744 <standby_clk_ldodisable>:
f0000744:	e59f303c 	ldr	r3, [pc, #60]	; f0000788 <standby_clk_ldodisable+0x44>
f0000748:	e3001538 	movw	r1, #1336	; 0x538
f000074c:	e3a00000 	mov	r0, #0	; 0x0
f0000750:	e5932000 	ldr	r2, [r3]
f0000754:	e5923050 	ldr	r3, [r2, #80]
f0000758:	e7df3a91 	bfi	r3, r1, #21, #11
f000075c:	e5823050 	str	r3, [r2, #80]
f0000760:	e5923050 	ldr	r3, [r2, #80]
f0000764:	e7d0381f 	bfc	r3, #16, #1
f0000768:	e5823050 	str	r3, [r2, #80]
f000076c:	e5923020 	ldr	r3, [r2, #32]
f0000770:	e7c7339f 	bfc	r3, #7, #1
f0000774:	e5823020 	str	r3, [r2, #32]
f0000778:	e5923050 	ldr	r3, [r2, #80]
f000077c:	e7df3a9f 	bfc	r3, #21, #11
f0000780:	e5823050 	str	r3, [r2, #80]
f0000784:	e12fff1e 	bx	lr
f0000788:	f0001ff4 	.word	0xf0001ff4

f000078c <standby_clk_ldoenable>:
f000078c:	e59f303c 	ldr	r3, [pc, #60]	; f00007d0 <standby_clk_ldoenable+0x44>
f0000790:	e3001538 	movw	r1, #1336	; 0x538
f0000794:	e3a00000 	mov	r0, #0	; 0x0
f0000798:	e5932000 	ldr	r2, [r3]
f000079c:	e5923050 	ldr	r3, [r2, #80]
f00007a0:	e7df3a91 	bfi	r3, r1, #21, #11
f00007a4:	e5823050 	str	r3, [r2, #80]
f00007a8:	e5923050 	ldr	r3, [r2, #80]
f00007ac:	e3833801 	orr	r3, r3, #65536	; 0x10000
f00007b0:	e5823050 	str	r3, [r2, #80]
f00007b4:	e5923020 	ldr	r3, [r2, #32]
f00007b8:	e3833080 	orr	r3, r3, #128	; 0x80
f00007bc:	e5823020 	str	r3, [r2, #32]
f00007c0:	e5923050 	ldr	r3, [r2, #80]
f00007c4:	e7df3a9f 	bfc	r3, #21, #11
f00007c8:	e5823050 	str	r3, [r2, #80]
f00007cc:	e12fff1e 	bx	lr
f00007d0:	f0001ff4 	.word	0xf0001ff4

f00007d4 <standby_clk_setdiv>:
f00007d4:	e3500000 	cmp	r0, #0	; 0x0
f00007d8:	03e0c000 	mvneq	ip, #0	; 0x0
f00007dc:	0a000011 	beq	f0000828 <standby_clk_setdiv+0x54>
f00007e0:	e59f3048 	ldr	r3, [pc, #72]	; f0000830 <standby_clk_setdiv+0x5c>
f00007e4:	e3a0c000 	mov	ip, #0	; 0x0
f00007e8:	e5902000 	ldr	r2, [r0]
f00007ec:	e5931000 	ldr	r1, [r3]
f00007f0:	e7e12252 	ubfx	r2, r2, #4, #2
f00007f4:	e5913054 	ldr	r3, [r1, #84]
f00007f8:	e7c13012 	bfi	r3, r2, #0, #2
f00007fc:	e5813054 	str	r3, [r1, #84]
f0000800:	e5903000 	ldr	r3, [r0]
f0000804:	e5912054 	ldr	r2, [r1, #84]
f0000808:	e7e13453 	ubfx	r3, r3, #8, #2
f000080c:	e7c52213 	bfi	r2, r3, #4, #2
f0000810:	e5812054 	str	r2, [r1, #84]
f0000814:	e5903000 	ldr	r3, [r0]
f0000818:	e5912054 	ldr	r2, [r1, #84]
f000081c:	e7e13653 	ubfx	r3, r3, #12, #2
f0000820:	e7c92413 	bfi	r2, r3, #8, #2
f0000824:	e5812054 	str	r2, [r1, #84]
f0000828:	e1a0000c 	mov	r0, ip
f000082c:	e12fff1e 	bx	lr
f0000830:	f0001ff4 	.word	0xf0001ff4

f0000834 <standby_clk_getdiv>:
f0000834:	e3500000 	cmp	r0, #0	; 0x0
f0000838:	03e0c000 	mvneq	ip, #0	; 0x0
f000083c:	0a00000f 	beq	f0000880 <standby_clk_getdiv+0x4c>
f0000840:	e59f3040 	ldr	r3, [pc, #64]	; f0000888 <standby_clk_getdiv+0x54>
f0000844:	e3a0c000 	mov	ip, #0	; 0x0
f0000848:	e5902000 	ldr	r2, [r0]
f000084c:	e5931000 	ldr	r1, [r3]
f0000850:	e5913054 	ldr	r3, [r1, #84]
f0000854:	e2033003 	and	r3, r3, #3	; 0x3
f0000858:	e7c72213 	bfi	r2, r3, #4, #4
f000085c:	e5802000 	str	r2, [r0]
f0000860:	e5913054 	ldr	r3, [r1, #84]
f0000864:	e7e13253 	ubfx	r3, r3, #4, #2
f0000868:	e7cb2413 	bfi	r2, r3, #8, #4
f000086c:	e5802000 	str	r2, [r0]
f0000870:	e5913054 	ldr	r3, [r1, #84]
f0000874:	e7e13453 	ubfx	r3, r3, #8, #2
f0000878:	e7cf2613 	bfi	r2, r3, #12, #4
f000087c:	e5802000 	str	r2, [r0]
f0000880:	e1a0000c 	mov	r0, ip
f0000884:	e12fff1e 	bx	lr
f0000888:	f0001ff4 	.word	0xf0001ff4

f000088c <standby_clk_dramgating>:
f000088c:	e59f2020 	ldr	r2, [pc, #32]	; f00008b4 <standby_clk_dramgating+0x28>
f0000890:	e3500000 	cmp	r0, #0	; 0x0
f0000894:	15922000 	ldrne	r2, [r2]
f0000898:	05922000 	ldreq	r2, [r2]
f000089c:	15923020 	ldrne	r3, [r2, #32]
f00008a0:	05923020 	ldreq	r3, [r2, #32]
f00008a4:	13833202 	orrne	r3, r3, #536870912	; 0x20000000
f00008a8:	07dd3e90 	bfieq	r3, r0, #29, #1
f00008ac:	e5823020 	str	r3, [r2, #32]
f00008b0:	e12fff1e 	bx	lr
f00008b4:	f0001ff4 	.word	0xf0001ff4

f00008b8 <standby_clk_apb2losc>:
f00008b8:	e59f3018 	ldr	r3, [pc, #24]	; f00008d8 <standby_clk_apb2losc+0x20>
f00008bc:	e3a02002 	mov	r2, #2	; 0x2
f00008c0:	e3a00000 	mov	r0, #0	; 0x0
f00008c4:	e5931000 	ldr	r1, [r3]
f00008c8:	e5913058 	ldr	r3, [r1, #88]
f00008cc:	e7d93c12 	bfi	r3, r2, #24, #2
f00008d0:	e5813058 	str	r3, [r1, #88]
f00008d4:	e12fff1e 	bx	lr
f00008d8:	f0001ff4 	.word	0xf0001ff4

f00008dc <standby_clk_apb2hosc>:
f00008dc:	e59f3014 	ldr	r3, [pc, #20]	; f00008f8 <standby_clk_apb2hosc+0x1c>
f00008e0:	e3a00000 	mov	r0, #0	; 0x0
f00008e4:	e5932000 	ldr	r2, [r3]
f00008e8:	e5923058 	ldr	r3, [r2, #88]
f00008ec:	e7d93c1f 	bfc	r3, #24, #2
f00008f0:	e5823058 	str	r3, [r2, #88]
f00008f4:	e12fff1e 	bx	lr
f00008f8:	f0001ff4 	.word	0xf0001ff4

f00008fc <DRAMC_hostport_on_off>:
f00008fc:	e350001f 	cmp	r0, #31	; 0x1f
f0000900:	812fff1e 	bxhi	lr
f0000904:	e59f201c 	ldr	r2, [pc, #28]	; f0000928 <DRAMC_hostport_on_off+0x2c>
f0000908:	e1a03100 	lsl	r3, r0, #2
f000090c:	e3510000 	cmp	r1, #0	; 0x0
f0000910:	e0832002 	add	r2, r3, r2
f0000914:	e5923000 	ldr	r3, [r2]
f0000918:	13833001 	orrne	r3, r3, #1	; 0x1
f000091c:	03c33001 	biceq	r3, r3, #1	; 0x1
f0000920:	e5823000 	str	r3, [r2]
f0000924:	e12fff1e 	bx	lr
f0000928:	f1c01250 	.word	0xf1c01250

f000092c <DRAMC_hostport_check_ahb_fifo_status>:
f000092c:	e350001f 	cmp	r0, #31	; 0x1f
f0000930:	959f3010 	ldrls	r3, [pc, #16]	; f0000948 <DRAMC_hostport_check_ahb_fifo_status+0x1c>
f0000934:	83a00000 	movhi	r0, #0	; 0x0
f0000938:	95933234 	ldrls	r3, [r3, #564]
f000093c:	91a03033 	lsrls	r3, r3, r0
f0000940:	92030001 	andls	r0, r3, #1	; 0x1
f0000944:	e12fff1e 	bx	lr
f0000948:	f1c01000 	.word	0xf1c01000

f000094c <DRAMC_hostport_setup>:
f000094c:	e350001f 	cmp	r0, #31	; 0x1f
f0000950:	e1a0c001 	mov	ip, r1
f0000954:	e92d4010 	push	{r4, lr}
f0000958:	e1a04003 	mov	r4, r3
f000095c:	88bd8010 	pophi	{r4, pc}
f0000960:	e59f1038 	ldr	r1, [pc, #56]	; f00009a0 <DRAMC_hostport_setup+0x54>
f0000964:	e1a03100 	lsl	r3, r0, #2
f0000968:	e20c0003 	and	r0, ip, #3	; 0x3
f000096c:	e1a02202 	lsl	r2, r2, #4
f0000970:	e0831001 	add	r1, r3, r1
f0000974:	e20220ff 	and	r2, r2, #255	; 0xff
f0000978:	e204c003 	and	ip, r4, #3	; 0x3
f000097c:	e5913000 	ldr	r3, [r1]
f0000980:	e3c3300c 	bic	r3, r3, #12	; 0xc
f0000984:	e1833100 	orr	r3, r3, r0, lsl #2
f0000988:	e3c330f0 	bic	r3, r3, #240	; 0xf0
f000098c:	e1833002 	orr	r3, r3, r2
f0000990:	e3c33cff 	bic	r3, r3, #65280	; 0xff00
f0000994:	e183340c 	orr	r3, r3, ip, lsl #8
f0000998:	e5813000 	str	r3, [r1]
f000099c:	e8bd8010 	pop	{r4, pc}
f00009a0:	f1c01250 	.word	0xf1c01250

f00009a4 <dram_hostport_on_off>:
f00009a4:	eaffffd4 	b	f00008fc <DRAMC_hostport_on_off>

f00009a8 <dram_hostport_check_ahb_fifo_status>:
f00009a8:	eaffffdf 	b	f000092c <DRAMC_hostport_check_ahb_fifo_status>

f00009ac <dram_hostport_setup>:
f00009ac:	eaffffe6 	b	f000094c <DRAMC_hostport_setup>

f00009b0 <mctl_ahb_reset>:
f00009b0:	e92d4010 	push	{r4, lr}
f00009b4:	e59f4020 	ldr	r4, [pc, #32]	; f00009dc <mctl_ahb_reset+0x2c>
f00009b8:	e3a00010 	mov	r0, #16	; 0x10
f00009bc:	e5943060 	ldr	r3, [r4, #96]
f00009c0:	e3c33901 	bic	r3, r3, #16384	; 0x4000
f00009c4:	e5843060 	str	r3, [r4, #96]
f00009c8:	eb000514 	bl	f0001e20 <standby_delay>
f00009cc:	e5943060 	ldr	r3, [r4, #96]
f00009d0:	e3833901 	orr	r3, r3, #16384	; 0x4000
f00009d4:	e5843060 	str	r3, [r4, #96]
f00009d8:	e8bd8010 	pop	{r4, pc}
f00009dc:	f1c20000 	.word	0xf1c20000

f00009e0 <DRAMC_enter_power_down>:
f00009e0:	e59f2024 	ldr	r2, [pc, #36]	; f0000a0c <DRAMC_enter_power_down+0x2c>
f00009e4:	e5923004 	ldr	r3, [r2, #4]
f00009e8:	e3c3333e 	bic	r3, r3, #-134217728	; 0xf8000000
f00009ec:	e383320f 	orr	r3, r3, #-268435456	; 0xf0000000
f00009f0:	e5823004 	str	r3, [r2, #4]
f00009f4:	e59f3010 	ldr	r3, [pc, #16]	; f0000a0c <DRAMC_enter_power_down+0x2c>
f00009f8:	e5933004 	ldr	r3, [r3, #4]
f00009fc:	e3530000 	cmp	r3, #0	; 0x0
f0000a00:	bafffffb 	blt	f00009f4 <DRAMC_enter_power_down+0x14>
f0000a04:	e3a00c01 	mov	r0, #256	; 0x100
f0000a08:	ea000504 	b	f0001e20 <standby_delay>
f0000a0c:	f1c01000 	.word	0xf1c01000

f0000a10 <dram_enter_power_down>:
f0000a10:	eafffff2 	b	f00009e0 <DRAMC_enter_power_down>

f0000a14 <mctl_mode_exit>:
f0000a14:	e59f2024 	ldr	r2, [pc, #36]	; f0000a40 <mctl_mode_exit+0x2c>
f0000a18:	e5923004 	ldr	r3, [r2, #4]
f0000a1c:	e3c3333e 	bic	r3, r3, #-134217728	; 0xf8000000
f0000a20:	e383332e 	orr	r3, r3, #-1207959552	; 0xb8000000
f0000a24:	e5823004 	str	r3, [r2, #4]
f0000a28:	e59f3010 	ldr	r3, [pc, #16]	; f0000a40 <mctl_mode_exit+0x2c>
f0000a2c:	e5933004 	ldr	r3, [r3, #4]
f0000a30:	e3530000 	cmp	r3, #0	; 0x0
f0000a34:	bafffffb 	blt	f0000a28 <mctl_mode_exit+0x14>
f0000a38:	e3a00c01 	mov	r0, #256	; 0x100
f0000a3c:	ea0004f7 	b	f0001e20 <standby_delay>
f0000a40:	f1c01000 	.word	0xf1c01000

f0000a44 <DRAMC_exit_power_down>:
f0000a44:	eafffff2 	b	f0000a14 <mctl_mode_exit>

f0000a48 <dram_exit_power_down>:
f0000a48:	eafffffd 	b	f0000a44 <DRAMC_exit_power_down>

f0000a4c <DRAMC_exit_selfrefresh>:
f0000a4c:	e92d4070 	push	{r4, r5, r6, lr}
f0000a50:	ebffffef 	bl	f0000a14 <mctl_mode_exit>
f0000a54:	e59f2050 	ldr	r2, [pc, #80]	; f0000aac <DRAMC_exit_selfrefresh+0x60>
f0000a58:	e5923004 	ldr	r3, [r2, #4]
f0000a5c:	e3c3333e 	bic	r3, r3, #-134217728	; 0xf8000000
f0000a60:	e3833326 	orr	r3, r3, #-1744830464	; 0x98000000
f0000a64:	e5823004 	str	r3, [r2, #4]
f0000a68:	e59f503c 	ldr	r5, [pc, #60]	; f0000aac <DRAMC_exit_selfrefresh+0x60>
f0000a6c:	e5953004 	ldr	r3, [r5, #4]
f0000a70:	e3530000 	cmp	r3, #0	; 0x0
f0000a74:	bafffffb 	blt	f0000a68 <DRAMC_exit_selfrefresh+0x1c>
f0000a78:	e3a00c01 	mov	r0, #256	; 0x100
f0000a7c:	e3a04000 	mov	r4, #0	; 0x0
f0000a80:	eb0004e6 	bl	f0001e20 <standby_delay>
f0000a84:	e5953010 	ldr	r3, [r5, #16]
f0000a88:	e3c33102 	bic	r3, r3, #-2147483648	; 0x80000000
f0000a8c:	e5853010 	str	r3, [r5, #16]
f0000a90:	e1a00004 	mov	r0, r4
f0000a94:	e3a01001 	mov	r1, #1	; 0x1
f0000a98:	e2844001 	add	r4, r4, #1	; 0x1
f0000a9c:	ebffff96 	bl	f00008fc <DRAMC_hostport_on_off>
f0000aa0:	e354001f 	cmp	r4, #31	; 0x1f
f0000aa4:	1afffff9 	bne	f0000a90 <DRAMC_exit_selfrefresh+0x44>
f0000aa8:	e8bd8070 	pop	{r4, r5, r6, pc}
f0000aac:	f1c01000 	.word	0xf1c01000

f0000ab0 <dram_exit_selfrefresh>:
f0000ab0:	eaffffe5 	b	f0000a4c <DRAMC_exit_selfrefresh>

f0000ab4 <mctl_precharge_all>:
f0000ab4:	e59f2024 	ldr	r2, [pc, #36]	; f0000ae0 <mctl_precharge_all+0x2c>
f0000ab8:	e5923004 	ldr	r3, [r2, #4]
f0000abc:	e3c3333e 	bic	r3, r3, #-134217728	; 0xf8000000
f0000ac0:	e383332a 	orr	r3, r3, #-1476395008	; 0xa8000000
f0000ac4:	e5823004 	str	r3, [r2, #4]
f0000ac8:	e59f3010 	ldr	r3, [pc, #16]	; f0000ae0 <mctl_precharge_all+0x2c>
f0000acc:	e5933004 	ldr	r3, [r3, #4]
f0000ad0:	e3530000 	cmp	r3, #0	; 0x0
f0000ad4:	bafffffb 	blt	f0000ac8 <mctl_precharge_all+0x14>
f0000ad8:	e3a00c01 	mov	r0, #256	; 0x100
f0000adc:	ea0004cf 	b	f0001e20 <standby_delay>
f0000ae0:	f1c01000 	.word	0xf1c01000

f0000ae4 <DRAMC_enter_selfrefresh>:
f0000ae4:	e92d4010 	push	{r4, lr}
f0000ae8:	e3a04000 	mov	r4, #0	; 0x0
f0000aec:	e1a00004 	mov	r0, r4
f0000af0:	e3a01000 	mov	r1, #0	; 0x0
f0000af4:	e2844001 	add	r4, r4, #1	; 0x1
f0000af8:	ebffff7f 	bl	f00008fc <DRAMC_hostport_on_off>
f0000afc:	e354001f 	cmp	r4, #31	; 0x1f
f0000b00:	1afffff9 	bne	f0000aec <DRAMC_enter_selfrefresh+0x8>
f0000b04:	e59f4038 	ldr	r4, [pc, #56]	; f0000b44 <DRAMC_enter_selfrefresh+0x60>
f0000b08:	e5943010 	ldr	r3, [r4, #16]
f0000b0c:	e3833102 	orr	r3, r3, #-2147483648	; 0x80000000
f0000b10:	e5843010 	str	r3, [r4, #16]
f0000b14:	ebffffe6 	bl	f0000ab4 <mctl_precharge_all>
f0000b18:	e5943004 	ldr	r3, [r4, #4]
f0000b1c:	e3c3333e 	bic	r3, r3, #-134217728	; 0xf8000000
f0000b20:	e3833209 	orr	r3, r3, #-1879048192	; 0x90000000
f0000b24:	e5843004 	str	r3, [r4, #4]
f0000b28:	e59f3014 	ldr	r3, [pc, #20]	; f0000b44 <DRAMC_enter_selfrefresh+0x60>
f0000b2c:	e5933004 	ldr	r3, [r3, #4]
f0000b30:	e3530000 	cmp	r3, #0	; 0x0
f0000b34:	bafffffb 	blt	f0000b28 <DRAMC_enter_selfrefresh+0x44>
f0000b38:	e3a00c01 	mov	r0, #256	; 0x100
f0000b3c:	e8bd4010 	pop	{r4, lr}
f0000b40:	ea0004b6 	b	f0001e20 <standby_delay>
f0000b44:	f1c01000 	.word	0xf1c01000

f0000b48 <dram_enter_selfrefresh>:
f0000b48:	eaffffe5 	b	f0000ae4 <DRAMC_enter_selfrefresh>

f0000b4c <dram_power_save_process>:
f0000b4c:	e92d4010 	push	{r4, lr}
f0000b50:	ebffffe3 	bl	f0000ae4 <DRAMC_enter_selfrefresh>
f0000b54:	eb000064 	bl	f0000cec <mctl_itm_disable>
f0000b58:	e3a00000 	mov	r0, #0	; 0x0
f0000b5c:	eb0000a1 	bl	f0000de8 <DRAMC_clock_output_en>
f0000b60:	e8bd4010 	pop	{r4, lr}
f0000b64:	ea00006c 	b	f0000d1c <mctl_disable_dll>

f0000b68 <DRAMC_retraining>:
f0000b68:	e59f3114 	ldr	r3, [pc, #276]	; f0000c84 <DRAMC_retraining+0x11c>
f0000b6c:	e92d4ff0 	push	{r4, r5, r6, r7, r8, r9, sl, fp, lr}
f0000b70:	e24dd014 	sub	sp, sp, #20	; 0x14
f0000b74:	e5932004 	ldr	r2, [r3, #4]
f0000b78:	e58d2000 	str	r2, [sp]
f0000b7c:	e5932010 	ldr	r2, [r3, #16]
f0000b80:	e58d2004 	str	r2, [sp, #4]
f0000b84:	e5932014 	ldr	r2, [r3, #20]
f0000b88:	e58d2008 	str	r2, [sp, #8]
f0000b8c:	e5932018 	ldr	r2, [r3, #24]
f0000b90:	e593b01c 	ldr	fp, [r3, #28]
f0000b94:	e59391f0 	ldr	r9, [r3, #496]
f0000b98:	e593a1f4 	ldr	sl, [r3, #500]
f0000b9c:	e59381f8 	ldr	r8, [r3, #504]
f0000ba0:	e59371fc 	ldr	r7, [r3, #508]
f0000ba4:	e59360a8 	ldr	r6, [r3, #168]
f0000ba8:	e5935008 	ldr	r5, [r3, #8]
f0000bac:	e58d200c 	str	r2, [sp, #12]
f0000bb0:	ebffff7e 	bl	f00009b0 <mctl_ahb_reset>
f0000bb4:	e59f40c8 	ldr	r4, [pc, #200]	; f0000c84 <DRAMC_retraining+0x11c>
f0000bb8:	eb00015a 	bl	f0001128 <mctl_ddr3_reset>
f0000bbc:	eb000042 	bl	f0000ccc <mctl_set_drive>
f0000bc0:	e3a00000 	mov	r0, #0	; 0x0
f0000bc4:	eb000087 	bl	f0000de8 <DRAMC_clock_output_en>
f0000bc8:	e59f30b8 	ldr	r3, [pc, #184]	; f0000c88 <DRAMC_retraining+0x120>
f0000bcc:	e58432e0 	str	r3, [r4, #736]
f0000bd0:	eb000045 	bl	f0000cec <mctl_itm_disable>
f0000bd4:	eb00013e 	bl	f00010d4 <mctl_enable_dll0>
f0000bd8:	e59d3000 	ldr	r3, [sp]
f0000bdc:	e3a00001 	mov	r0, #1	; 0x1
f0000be0:	e5843004 	str	r3, [r4, #4]
f0000be4:	eb00007f 	bl	f0000de8 <DRAMC_clock_output_en>
f0000be8:	e3a00010 	mov	r0, #16	; 0x10
f0000bec:	eb00048b 	bl	f0001e20 <standby_delay>
f0000bf0:	e59f408c 	ldr	r4, [pc, #140]	; f0000c84 <DRAMC_retraining+0x11c>
f0000bf4:	e5943000 	ldr	r3, [r4]
f0000bf8:	e3530000 	cmp	r3, #0	; 0x0
f0000bfc:	bafffffb 	blt	f0000bf0 <DRAMC_retraining+0x88>
f0000c00:	eb00010a 	bl	f0001030 <mctl_enable_dllx>
f0000c04:	e59d2004 	ldr	r2, [sp, #4]
f0000c08:	e58460a8 	str	r6, [r4, #168]
f0000c0c:	e59d3008 	ldr	r3, [sp, #8]
f0000c10:	e5845008 	str	r5, [r4, #8]
f0000c14:	e5842010 	str	r2, [r4, #16]
f0000c18:	e59d200c 	ldr	r2, [sp, #12]
f0000c1c:	e5843014 	str	r3, [r4, #20]
f0000c20:	e5842018 	str	r2, [r4, #24]
f0000c24:	e584b01c 	str	fp, [r4, #28]
f0000c28:	e58491f0 	str	r9, [r4, #496]
f0000c2c:	e584a1f4 	str	sl, [r4, #500]
f0000c30:	e58481f8 	str	r8, [r4, #504]
f0000c34:	e58471fc 	str	r7, [r4, #508]
f0000c38:	e5943000 	ldr	r3, [r4]
f0000c3c:	e3833901 	orr	r3, r3, #16384	; 0x4000
f0000c40:	e5843000 	str	r3, [r4]
f0000c44:	e5943000 	ldr	r3, [r4]
f0000c48:	e3833102 	orr	r3, r3, #-2147483648	; 0x80000000
f0000c4c:	e5843000 	str	r3, [r4]
f0000c50:	e59f302c 	ldr	r3, [pc, #44]	; f0000c84 <DRAMC_retraining+0x11c>
f0000c54:	e5933000 	ldr	r3, [r3]
f0000c58:	e3530000 	cmp	r3, #0	; 0x0
f0000c5c:	bafffffb 	blt	f0000c50 <DRAMC_retraining+0xe8>
f0000c60:	eb000027 	bl	f0000d04 <mctl_itm_enable>
f0000c64:	eb000052 	bl	f0000db4 <DRAMC_scan_readpipe>
f0000c68:	e1a04000 	mov	r4, r0
f0000c6c:	eb000041 	bl	f0000d78 <mctl_configure_hostport>
f0000c70:	e3540000 	cmp	r4, #0	; 0x0
f0000c74:	1affffcd 	bne	f0000bb0 <DRAMC_retraining+0x48>
f0000c78:	e1a00004 	mov	r0, r4
f0000c7c:	e28dd014 	add	sp, sp, #20	; 0x14
f0000c80:	e8bd8ff0 	pop	{r4, r5, r6, r7, r8, r9, sl, fp, pc}
f0000c84:	f1c01000 	.word	0xf1c01000
f0000c88:	16237495 	.word	0x16237495

f0000c8c <dram_power_up_process>:
f0000c8c:	e92d4010 	push	{r4, lr}
f0000c90:	eb000015 	bl	f0000cec <mctl_itm_disable>
f0000c94:	eb00010e 	bl	f00010d4 <mctl_enable_dll0>
f0000c98:	e3a00001 	mov	r0, #1	; 0x1
f0000c9c:	eb000051 	bl	f0000de8 <DRAMC_clock_output_en>
f0000ca0:	e3a00010 	mov	r0, #16	; 0x10
f0000ca4:	eb00045d 	bl	f0001e20 <standby_delay>
f0000ca8:	eb0000e0 	bl	f0001030 <mctl_enable_dllx>
f0000cac:	eb000014 	bl	f0000d04 <mctl_itm_enable>
f0000cb0:	ebffff65 	bl	f0000a4c <DRAMC_exit_selfrefresh>
f0000cb4:	eb00003e 	bl	f0000db4 <DRAMC_scan_readpipe>
f0000cb8:	e2504000 	subs	r4, r0, #0	; 0x0
f0000cbc:	0a000000 	beq	f0000cc4 <dram_power_up_process+0x38>
f0000cc0:	ebffffa8 	bl	f0000b68 <DRAMC_retraining>
f0000cc4:	e1a00004 	mov	r0, r4
f0000cc8:	e8bd8010 	pop	{r4, pc}

f0000ccc <mctl_set_drive>:
f0000ccc:	e59f2014 	ldr	r2, [pc, #20]	; f0000ce8 <mctl_set_drive+0x1c>
f0000cd0:	e5923230 	ldr	r3, [r2, #560]
f0000cd4:	e3833c6f 	orr	r3, r3, #28416	; 0x6f00
f0000cd8:	e38330fc 	orr	r3, r3, #252	; 0xfc
f0000cdc:	e3c33003 	bic	r3, r3, #3	; 0x3
f0000ce0:	e5823230 	str	r3, [r2, #560]
f0000ce4:	e12fff1e 	bx	lr
f0000ce8:	f1c01000 	.word	0xf1c01000

f0000cec <mctl_itm_disable>:
f0000cec:	e59f200c 	ldr	r2, [pc, #12]	; f0000d00 <mctl_itm_disable+0x14>
f0000cf0:	e5923000 	ldr	r3, [r2]
f0000cf4:	e3833201 	orr	r3, r3, #268435456	; 0x10000000
f0000cf8:	e5823000 	str	r3, [r2]
f0000cfc:	e12fff1e 	bx	lr
f0000d00:	f1c01000 	.word	0xf1c01000

f0000d04 <mctl_itm_enable>:
f0000d04:	e59f200c 	ldr	r2, [pc, #12]	; f0000d18 <mctl_itm_enable+0x14>
f0000d08:	e5923000 	ldr	r3, [r2]
f0000d0c:	e3c33201 	bic	r3, r3, #268435456	; 0x10000000
f0000d10:	e5823000 	str	r3, [r2]
f0000d14:	e12fff1e 	bx	lr
f0000d18:	f1c01000 	.word	0xf1c01000

f0000d1c <mctl_disable_dll>:
f0000d1c:	e59f2050 	ldr	r2, [pc, #80]	; f0000d74 <mctl_disable_dll+0x58>
f0000d20:	e5923204 	ldr	r3, [r2, #516]
f0000d24:	e3c33101 	bic	r3, r3, #1073741824	; 0x40000000
f0000d28:	e3833102 	orr	r3, r3, #-2147483648	; 0x80000000
f0000d2c:	e5823204 	str	r3, [r2, #516]
f0000d30:	e5923208 	ldr	r3, [r2, #520]
f0000d34:	e3c33101 	bic	r3, r3, #1073741824	; 0x40000000
f0000d38:	e3833102 	orr	r3, r3, #-2147483648	; 0x80000000
f0000d3c:	e5823208 	str	r3, [r2, #520]
f0000d40:	e592320c 	ldr	r3, [r2, #524]
f0000d44:	e3c33101 	bic	r3, r3, #1073741824	; 0x40000000
f0000d48:	e3833102 	orr	r3, r3, #-2147483648	; 0x80000000
f0000d4c:	e582320c 	str	r3, [r2, #524]
f0000d50:	e5923210 	ldr	r3, [r2, #528]
f0000d54:	e3c33101 	bic	r3, r3, #1073741824	; 0x40000000
f0000d58:	e3833102 	orr	r3, r3, #-2147483648	; 0x80000000
f0000d5c:	e5823210 	str	r3, [r2, #528]
f0000d60:	e5923214 	ldr	r3, [r2, #532]
f0000d64:	e3c33101 	bic	r3, r3, #1073741824	; 0x40000000
f0000d68:	e3833102 	orr	r3, r3, #-2147483648	; 0x80000000
f0000d6c:	e5823214 	str	r3, [r2, #532]
f0000d70:	e12fff1e 	bx	lr
f0000d74:	f1c01000 	.word	0xf1c01000

f0000d78 <mctl_configure_hostport>:
f0000d78:	e3a00000 	mov	r0, #0	; 0x0
f0000d7c:	e59f3020 	ldr	r3, [pc, #32]	; f0000da4 <mctl_configure_hostport+0x2c>
f0000d80:	e1a01100 	lsl	r1, r0, #2
f0000d84:	e59f201c 	ldr	r2, [pc, #28]	; f0000da8 <mctl_configure_hostport+0x30>
f0000d88:	e7933100 	ldr	r3, [r3, r0, lsl #2]
f0000d8c:	e2800001 	add	r0, r0, #1	; 0x1
f0000d90:	e0812002 	add	r2, r1, r2
f0000d94:	e3500020 	cmp	r0, #32	; 0x20
f0000d98:	e5823000 	str	r3, [r2]
f0000d9c:	1afffff6 	bne	f0000d7c <mctl_configure_hostport+0x4>
f0000da0:	e12fff1e 	bx	lr
f0000da4:	f0001e78 	.word	0xf0001e78
f0000da8:	f1c01250 	.word	0xf1c01250

f0000dac <DRAMC_exit>:
f0000dac:	e3a00000 	mov	r0, #0	; 0x0
f0000db0:	e12fff1e 	bx	lr

f0000db4 <DRAMC_scan_readpipe>:
f0000db4:	e59f2028 	ldr	r2, [pc, #40]	; f0000de4 <DRAMC_scan_readpipe+0x30>
f0000db8:	e5923000 	ldr	r3, [r2]
f0000dbc:	e3833101 	orr	r3, r3, #1073741824	; 0x40000000
f0000dc0:	e5823000 	str	r3, [r2]
f0000dc4:	e59f2018 	ldr	r2, [pc, #24]	; f0000de4 <DRAMC_scan_readpipe+0x30>
f0000dc8:	e5923000 	ldr	r3, [r2]
f0000dcc:	e3130101 	tst	r3, #1073741824	; 0x40000000
f0000dd0:	1afffffb 	bne	f0000dc4 <DRAMC_scan_readpipe+0x10>
f0000dd4:	e592000c 	ldr	r0, [r2, #12]
f0000dd8:	e2100601 	ands	r0, r0, #1048576	; 0x100000
f0000ddc:	13e00000 	mvnne	r0, #0	; 0x0
f0000de0:	e12fff1e 	bx	lr
f0000de4:	f1c01000 	.word	0xf1c01000

f0000de8 <DRAMC_clock_output_en>:
f0000de8:	e59f3018 	ldr	r3, [pc, #24]	; f0000e08 <DRAMC_clock_output_en+0x20>
f0000dec:	e3500000 	cmp	r0, #0	; 0x0
f0000df0:	e5933100 	ldr	r3, [r3, #256]
f0000df4:	13832902 	orrne	r2, r3, #32768	; 0x8000
f0000df8:	03c32902 	biceq	r2, r3, #32768	; 0x8000
f0000dfc:	e59f3004 	ldr	r3, [pc, #4]	; f0000e08 <DRAMC_clock_output_en+0x20>
f0000e00:	e5832100 	str	r2, [r3, #256]
f0000e04:	e12fff1e 	bx	lr
f0000e08:	f1c20000 	.word	0xf1c20000

f0000e0c <DRAMC_set_autorefresh_cycle>:
f0000e0c:	e59f2054 	ldr	r2, [pc, #84]	; f0000e68 <DRAMC_set_autorefresh_cycle+0x5c>
f0000e10:	e3500f96 	cmp	r0, #600	; 0x258
f0000e14:	e5923004 	ldr	r3, [r2, #4]
f0000e18:	23a03000 	movcs	r3, #0	; 0x0
f0000e1c:	25823010 	strcs	r3, [r2, #16]
f0000e20:	212fff1e 	bxcs	lr
f0000e24:	e7e231d3 	ubfx	r3, r3, #3, #3
f0000e28:	e3a02009 	mov	r2, #9	; 0x9
f0000e2c:	e3530002 	cmp	r3, #2	; 0x2
f0000e30:	93a03083 	movls	r3, #131	; 0x83
f0000e34:	83a03e15 	movhi	r3, #336	; 0x150
f0000e38:	e0030093 	mul	r3, r3, r0
f0000e3c:	e1a01523 	lsr	r1, r3, #10
f0000e40:	e3013f33 	movw	r3, #7987	; 0x1f33
f0000e44:	e0030093 	mul	r3, r3, r0
f0000e48:	e1a03523 	lsr	r3, r3, #10
f0000e4c:	e0020392 	mul	r2, r2, r3
f0000e50:	e59f3010 	ldr	r3, [pc, #16]	; f0000e68 <DRAMC_set_autorefresh_cycle+0x5c>
f0000e54:	e24220c8 	sub	r2, r2, #200	; 0xc8
f0000e58:	e1812402 	orr	r2, r1, r2, lsl #8
f0000e5c:	e3822302 	orr	r2, r2, #134217728	; 0x8000000
f0000e60:	e5832010 	str	r2, [r3, #16]
f0000e64:	e12fff1e 	bx	lr
f0000e68:	f1c01000 	.word	0xf1c01000

f0000e6c <DRAMC_get_dram_size>:
f0000e6c:	e59f3068 	ldr	r3, [pc, #104]	; f0000edc <DRAMC_get_dram_size+0x70>
f0000e70:	e5932004 	ldr	r2, [r3, #4]
f0000e74:	e7e201d2 	ubfx	r0, r2, #3, #3
f0000e78:	e3500000 	cmp	r0, #0	; 0x0
f0000e7c:	02800020 	addeq	r0, r0, #32	; 0x20
f0000e80:	0a00000b 	beq	f0000eb4 <DRAMC_get_dram_size+0x48>
f0000e84:	e3500001 	cmp	r0, #1	; 0x1
f0000e88:	0280003f 	addeq	r0, r0, #63	; 0x3f
f0000e8c:	0a000008 	beq	f0000eb4 <DRAMC_get_dram_size+0x48>
f0000e90:	e3500002 	cmp	r0, #2	; 0x2
f0000e94:	0280007e 	addeq	r0, r0, #126	; 0x7e
f0000e98:	0a000005 	beq	f0000eb4 <DRAMC_get_dram_size+0x48>
f0000e9c:	e3500003 	cmp	r0, #3	; 0x3
f0000ea0:	028000fd 	addeq	r0, r0, #253	; 0xfd
f0000ea4:	0a000002 	beq	f0000eb4 <DRAMC_get_dram_size+0x48>
f0000ea8:	e3500004 	cmp	r0, #4	; 0x4
f0000eac:	03a00c02 	moveq	r0, #512	; 0x200
f0000eb0:	13a00b01 	movne	r0, #1024	; 0x400
f0000eb4:	e7e130d2 	ubfx	r3, r2, #1, #2
f0000eb8:	e3530001 	cmp	r3, #1	; 0x1
f0000ebc:	e7e23352 	ubfx	r3, r2, #6, #3
f0000ec0:	01a00080 	lsleq	r0, r0, #1
f0000ec4:	e3530003 	cmp	r3, #3	; 0x3
f0000ec8:	e7e13552 	ubfx	r3, r2, #10, #2
f0000ecc:	01a00080 	lsleq	r0, r0, #1
f0000ed0:	e3530001 	cmp	r3, #1	; 0x1
f0000ed4:	01a00080 	lsleq	r0, r0, #1
f0000ed8:	e12fff1e 	bx	lr
f0000edc:	f1c01000 	.word	0xf1c01000

f0000ee0 <dram_init>:
f0000ee0:	e3a00000 	mov	r0, #0	; 0x0
f0000ee4:	e12fff1e 	bx	lr

f0000ee8 <dram_exit>:
f0000ee8:	e3a00000 	mov	r0, #0	; 0x0
f0000eec:	e12fff1e 	bx	lr

f0000ef0 <dram_get_size>:
f0000ef0:	eaffffdd 	b	f0000e6c <DRAMC_get_dram_size>

f0000ef4 <dram_set_drive>:
f0000ef4:	eaffff74 	b	f0000ccc <mctl_set_drive>

f0000ef8 <dram_set_autorefresh_cycle>:
f0000ef8:	eaffffc3 	b	f0000e0c <DRAMC_set_autorefresh_cycle>

f0000efc <dram_scan_readpipe>:
f0000efc:	eaffffac 	b	f0000db4 <DRAMC_scan_readpipe>

f0000f00 <mctl_setup_dram_clock>:
f0000f00:	e59f3120 	ldr	r3, [pc, #288]	; f0001028 <mctl_setup_dram_clock+0x128>
f0000f04:	e3a0c000 	mov	ip, #0	; 0x0
f0000f08:	e92d47f0 	push	{r4, r5, r6, r7, r8, r9, sl, lr}
f0000f0c:	e3a06018 	mov	r6, #24	; 0x18
f0000f10:	e3a07000 	mov	r7, #0	; 0x0
f0000f14:	e593e020 	ldr	lr, [r3, #32]
f0000f18:	ea000002 	b	f0000f28 <mctl_setup_dram_clock+0x28>
f0000f1c:	e0966006 	adds	r6, r6, r6
f0000f20:	e28cc001 	add	ip, ip, #1	; 0x1
f0000f24:	e0a77007 	adc	r7, r7, r7
f0000f28:	e35c003b 	cmp	ip, #59	; 0x3b
f0000f2c:	1afffffa 	bne	f0000f1c <mctl_setup_dram_clock+0x1c>
f0000f30:	e3a04000 	mov	r4, #0	; 0x0
f0000f34:	e3a05000 	mov	r5, #0	; 0x0
f0000f38:	e1a08000 	mov	r8, r0
f0000f3c:	e3a09000 	mov	r9, #0	; 0x0
f0000f40:	e1570009 	cmp	r7, r9
f0000f44:	8a00000b 	bhi	f0000f78 <mctl_setup_dram_clock+0x78>
f0000f48:	1a000001 	bne	f0000f54 <mctl_setup_dram_clock+0x54>
f0000f4c:	e1560008 	cmp	r6, r8
f0000f50:	8a000008 	bhi	f0000f78 <mctl_setup_dram_clock+0x78>
f0000f54:	e0940004 	adds	r0, r4, r4
f0000f58:	e3a02001 	mov	r2, #1	; 0x1
f0000f5c:	e0a51005 	adc	r1, r5, r5
f0000f60:	e3a03000 	mov	r3, #0	; 0x0
f0000f64:	e0588006 	subs	r8, r8, r6
f0000f68:	e0c99007 	sbc	r9, r9, r7
f0000f6c:	e1804002 	orr	r4, r0, r2
f0000f70:	e1815003 	orr	r5, r1, r3
f0000f74:	ea000001 	b	f0000f80 <mctl_setup_dram_clock+0x80>
f0000f78:	e0944004 	adds	r4, r4, r4
f0000f7c:	e0a55005 	adc	r5, r5, r5
f0000f80:	e25cc001 	subs	ip, ip, #1	; 0x1
f0000f84:	4a000002 	bmi	f0000f94 <mctl_setup_dram_clock+0x94>
f0000f88:	e1b070a7 	lsrs	r7, r7, #1
f0000f8c:	e1a06066 	rrx	r6, r6
f0000f90:	eaffffea 	b	f0000f40 <mctl_setup_dram_clock+0x40>
f0000f94:	e3ce3033 	bic	r3, lr, #51	; 0x33
f0000f98:	e204201f 	and	r2, r4, #31	; 0x1f
f0000f9c:	e3833011 	orr	r3, r3, #17	; 0x11
f0000fa0:	e59f5080 	ldr	r5, [pc, #128]	; f0001028 <mctl_setup_dram_clock+0x128>
f0000fa4:	e3c33c1f 	bic	r3, r3, #7936	; 0x1f00
f0000fa8:	e3a00601 	mov	r0, #1048576	; 0x100000
f0000fac:	e1833402 	orr	r3, r3, r2, lsl #8
f0000fb0:	e3c33803 	bic	r3, r3, #196608	; 0x30000
f0000fb4:	e3833801 	orr	r3, r3, #65536	; 0x10000
f0000fb8:	e3c33202 	bic	r3, r3, #536870912	; 0x20000000
f0000fbc:	e3833102 	orr	r3, r3, #-2147483648	; 0x80000000
f0000fc0:	e5853020 	str	r3, [r5, #32]
f0000fc4:	eb000395 	bl	f0001e20 <standby_delay>
f0000fc8:	e5953020 	ldr	r3, [r5, #32]
f0000fcc:	e3a00020 	mov	r0, #32	; 0x20
f0000fd0:	e3833202 	orr	r3, r3, #536870912	; 0x20000000
f0000fd4:	e5853020 	str	r3, [r5, #32]
f0000fd8:	e59530d0 	ldr	r3, [r5, #208]
f0000fdc:	e3c33003 	bic	r3, r3, #3	; 0x3
f0000fe0:	e58530d0 	str	r3, [r5, #208]
f0000fe4:	e5953060 	ldr	r3, [r5, #96]
f0000fe8:	e3833301 	orr	r3, r3, #67108864	; 0x4000000
f0000fec:	e5853060 	str	r3, [r5, #96]
f0000ff0:	eb00038a 	bl	f0001e20 <standby_delay>
f0000ff4:	e5953060 	ldr	r3, [r5, #96]
f0000ff8:	e3a00a01 	mov	r0, #4096	; 0x1000
f0000ffc:	e3c33301 	bic	r3, r3, #67108864	; 0x4000000
f0001000:	e5853060 	str	r3, [r5, #96]
f0001004:	e5954060 	ldr	r4, [r5, #96]
f0001008:	e3c44901 	bic	r4, r4, #16384	; 0x4000
f000100c:	e5854060 	str	r4, [r5, #96]
f0001010:	eb000382 	bl	f0001e20 <standby_delay>
f0001014:	e3844901 	orr	r4, r4, #16384	; 0x4000
f0001018:	e3a00a01 	mov	r0, #4096	; 0x1000
f000101c:	e5854060 	str	r4, [r5, #96]
f0001020:	e8bd47f0 	pop	{r4, r5, r6, r7, r8, r9, sl, lr}
f0001024:	ea00037d 	b	f0001e20 <standby_delay>
f0001028:	f1c20000 	.word	0xf1c20000

f000102c <dram_set_clock>:
f000102c:	eaffffb3 	b	f0000f00 <mctl_setup_dram_clock>

f0001030 <mctl_enable_dllx>:
f0001030:	e3a01001 	mov	r1, #1	; 0x1
f0001034:	e92d4010 	push	{r4, lr}
f0001038:	e59f3090 	ldr	r3, [pc, #144]	; f00010d0 <mctl_enable_dllx+0xa0>
f000103c:	e1a02101 	lsl	r2, r1, #2
f0001040:	e2811001 	add	r1, r1, #1	; 0x1
f0001044:	e0823003 	add	r3, r2, r3
f0001048:	e3510005 	cmp	r1, #5	; 0x5
f000104c:	e5932000 	ldr	r2, [r3]
f0001050:	e3c22103 	bic	r2, r2, #-1073741824	; 0xc0000000
f0001054:	e3822102 	orr	r2, r2, #-2147483648	; 0x80000000
f0001058:	e5832000 	str	r2, [r3]
f000105c:	1afffff5 	bne	f0001038 <mctl_enable_dllx+0x8>
f0001060:	e3a00c01 	mov	r0, #256	; 0x100
f0001064:	eb00036d 	bl	f0001e20 <standby_delay>
f0001068:	e3a01001 	mov	r1, #1	; 0x1
f000106c:	e59f305c 	ldr	r3, [pc, #92]	; f00010d0 <mctl_enable_dllx+0xa0>
f0001070:	e1a02101 	lsl	r2, r1, #2
f0001074:	e2811001 	add	r1, r1, #1	; 0x1
f0001078:	e0823003 	add	r3, r2, r3
f000107c:	e3510005 	cmp	r1, #5	; 0x5
f0001080:	e5932000 	ldr	r2, [r3]
f0001084:	e3c22103 	bic	r2, r2, #-1073741824	; 0xc0000000
f0001088:	e5832000 	str	r2, [r3]
f000108c:	1afffff6 	bne	f000106c <mctl_enable_dllx+0x3c>
f0001090:	e3a00a01 	mov	r0, #4096	; 0x1000
f0001094:	eb000361 	bl	f0001e20 <standby_delay>
f0001098:	e3a01001 	mov	r1, #1	; 0x1
f000109c:	e59f302c 	ldr	r3, [pc, #44]	; f00010d0 <mctl_enable_dllx+0xa0>
f00010a0:	e1a02101 	lsl	r2, r1, #2
f00010a4:	e2811001 	add	r1, r1, #1	; 0x1
f00010a8:	e0823003 	add	r3, r2, r3
f00010ac:	e3510005 	cmp	r1, #5	; 0x5
f00010b0:	e5932000 	ldr	r2, [r3]
f00010b4:	e3c22103 	bic	r2, r2, #-1073741824	; 0xc0000000
f00010b8:	e3822101 	orr	r2, r2, #1073741824	; 0x40000000
f00010bc:	e5832000 	str	r2, [r3]
f00010c0:	1afffff5 	bne	f000109c <mctl_enable_dllx+0x6c>
f00010c4:	e3a00a01 	mov	r0, #4096	; 0x1000
f00010c8:	e8bd4010 	pop	{r4, lr}
f00010cc:	ea000353 	b	f0001e20 <standby_delay>
f00010d0:	f1c01204 	.word	0xf1c01204

f00010d4 <mctl_enable_dll0>:
f00010d4:	e92d4010 	push	{r4, lr}
f00010d8:	e59f4044 	ldr	r4, [pc, #68]	; f0001124 <mctl_enable_dll0+0x50>
f00010dc:	e3a00c01 	mov	r0, #256	; 0x100
f00010e0:	e5943204 	ldr	r3, [r4, #516]
f00010e4:	e3c33103 	bic	r3, r3, #-1073741824	; 0xc0000000
f00010e8:	e3833102 	orr	r3, r3, #-2147483648	; 0x80000000
f00010ec:	e5843204 	str	r3, [r4, #516]
f00010f0:	eb00034a 	bl	f0001e20 <standby_delay>
f00010f4:	e5943204 	ldr	r3, [r4, #516]
f00010f8:	e3a00a01 	mov	r0, #4096	; 0x1000
f00010fc:	e3c33103 	bic	r3, r3, #-1073741824	; 0xc0000000
f0001100:	e5843204 	str	r3, [r4, #516]
f0001104:	eb000345 	bl	f0001e20 <standby_delay>
f0001108:	e5943204 	ldr	r3, [r4, #516]
f000110c:	e3a00a01 	mov	r0, #4096	; 0x1000
f0001110:	e3c33103 	bic	r3, r3, #-1073741824	; 0xc0000000
f0001114:	e3833101 	orr	r3, r3, #1073741824	; 0x40000000
f0001118:	e5843204 	str	r3, [r4, #516]
f000111c:	e8bd4010 	pop	{r4, lr}
f0001120:	ea00033e 	b	f0001e20 <standby_delay>
f0001124:	f1c01000 	.word	0xf1c01000

f0001128 <mctl_ddr3_reset>:
f0001128:	e59f3060 	ldr	r3, [pc, #96]	; f0001190 <mctl_ddr3_reset+0x68>
f000112c:	e3a02000 	mov	r2, #0	; 0x0
f0001130:	e92d4010 	push	{r4, lr}
f0001134:	e5832d3c 	str	r2, [r3, #3388]
f0001138:	e5933d3c 	ldr	r3, [r3, #3388]
f000113c:	e31300c0 	tst	r3, #192	; 0xc0
f0001140:	1a000008 	bne	f0001168 <mctl_ddr3_reset+0x40>
f0001144:	e59f4048 	ldr	r4, [pc, #72]	; f0001194 <mctl_ddr3_reset+0x6c>
f0001148:	e3a00c01 	mov	r0, #256	; 0x100
f000114c:	e5943230 	ldr	r3, [r4, #560]
f0001150:	e3c33a01 	bic	r3, r3, #4096	; 0x1000
f0001154:	e5843230 	str	r3, [r4, #560]
f0001158:	eb000330 	bl	f0001e20 <standby_delay>
f000115c:	e5943230 	ldr	r3, [r4, #560]
f0001160:	e3833a01 	orr	r3, r3, #4096	; 0x1000
f0001164:	ea000007 	b	f0001188 <mctl_ddr3_reset+0x60>
f0001168:	e59f4024 	ldr	r4, [pc, #36]	; f0001194 <mctl_ddr3_reset+0x6c>
f000116c:	e3a00c01 	mov	r0, #256	; 0x100
f0001170:	e5943230 	ldr	r3, [r4, #560]
f0001174:	e3833a01 	orr	r3, r3, #4096	; 0x1000
f0001178:	e5843230 	str	r3, [r4, #560]
f000117c:	eb000327 	bl	f0001e20 <standby_delay>
f0001180:	e5943230 	ldr	r3, [r4, #560]
f0001184:	e3c33a01 	bic	r3, r3, #4096	; 0x1000
f0001188:	e5843230 	str	r3, [r4, #560]
f000118c:	e8bd8010 	pop	{r4, pc}
f0001190:	f1c20000 	.word	0xf1c20000
f0001194:	f1c01000 	.word	0xf1c01000

f0001198 <DRAMC_init>:
f0001198:	e92d4070 	push	{r4, r5, r6, lr}
f000119c:	e2504000 	subs	r4, r0, #0	; 0x0
f00011a0:	03e00000 	mvneq	r0, #0	; 0x0
f00011a4:	08bd8070 	popeq	{r4, r5, r6, pc}
f00011a8:	e5940004 	ldr	r0, [r4, #4]
f00011ac:	ebffff53 	bl	f0000f00 <mctl_setup_dram_clock>
f00011b0:	ebffffdc 	bl	f0001128 <mctl_ddr3_reset>
f00011b4:	ebfffec4 	bl	f0000ccc <mctl_set_drive>
f00011b8:	e3a00000 	mov	r0, #0	; 0x0
f00011bc:	ebffff09 	bl	f0000de8 <DRAMC_clock_output_en>
f00011c0:	e59f21a0 	ldr	r2, [pc, #416]	; f0001368 <DRAMC_init+0x1d0>
f00011c4:	e59f31a0 	ldr	r3, [pc, #416]	; f000136c <DRAMC_init+0x1d4>
f00011c8:	e58322e0 	str	r2, [r3, #736]
f00011cc:	ebfffec6 	bl	f0000cec <mctl_itm_disable>
f00011d0:	ebffffbf 	bl	f00010d4 <mctl_enable_dll0>
f00011d4:	e5943014 	ldr	r3, [r4, #20]
f00011d8:	e5942008 	ldr	r2, [r4, #8]
f00011dc:	e5940010 	ldr	r0, [r4, #16]
f00011e0:	e1a031a3 	lsr	r3, r3, #3
f00011e4:	e1a03083 	lsl	r3, r3, #1
f00011e8:	e3520003 	cmp	r2, #3	; 0x3
f00011ec:	11a01003 	movne	r1, r3
f00011f0:	03831001 	orreq	r1, r3, #1	; 0x1
f00011f4:	e3500c01 	cmp	r0, #256	; 0x100
f00011f8:	0a00000d 	beq	f0001234 <DRAMC_init+0x9c>
f00011fc:	e3500c02 	cmp	r0, #512	; 0x200
f0001200:	03811008 	orreq	r1, r1, #8	; 0x8
f0001204:	0a00000a 	beq	f0001234 <DRAMC_init+0x9c>
f0001208:	e3500b01 	cmp	r0, #1024	; 0x400
f000120c:	03811010 	orreq	r1, r1, #16	; 0x10
f0001210:	0a000007 	beq	f0001234 <DRAMC_init+0x9c>
f0001214:	e3500b02 	cmp	r0, #2048	; 0x800
f0001218:	03811018 	orreq	r1, r1, #24	; 0x18
f000121c:	0a000004 	beq	f0001234 <DRAMC_init+0x9c>
f0001220:	e3500a01 	cmp	r0, #4096	; 0x1000
f0001224:	03811020 	orreq	r1, r1, #32	; 0x20
f0001228:	0a000001 	beq	f0001234 <DRAMC_init+0x9c>
f000122c:	e3500a02 	cmp	r0, #8192	; 0x2000
f0001230:	03811028 	orreq	r1, r1, #40	; 0x28
f0001234:	e594300c 	ldr	r3, [r4, #12]
f0001238:	e3a00001 	mov	r0, #1	; 0x1
f000123c:	e5942018 	ldr	r2, [r4, #24]
f0001240:	e2433001 	sub	r3, r3, #1	; 0x1
f0001244:	e1a021a2 	lsr	r2, r2, #3
f0001248:	e1a03503 	lsl	r3, r3, #10
f000124c:	e2422001 	sub	r2, r2, #1	; 0x1
f0001250:	e3833a03 	orr	r3, r3, #12288	; 0x3000
f0001254:	e1833302 	orr	r3, r3, r2, lsl #6
f0001258:	e59f210c 	ldr	r2, [pc, #268]	; f000136c <DRAMC_init+0x1d4>
f000125c:	e1833001 	orr	r3, r3, r1
f0001260:	e5823004 	str	r3, [r2, #4]
f0001264:	ebfffedf 	bl	f0000de8 <DRAMC_clock_output_en>
f0001268:	e3a00010 	mov	r0, #16	; 0x10
f000126c:	eb0002eb 	bl	f0001e20 <standby_delay>
f0001270:	e59f60f4 	ldr	r6, [pc, #244]	; f000136c <DRAMC_init+0x1d4>
f0001274:	e5963000 	ldr	r3, [r6]
f0001278:	e3530000 	cmp	r3, #0	; 0x0
f000127c:	bafffffb 	blt	f0001270 <DRAMC_init+0xd8>
f0001280:	ebffff6a 	bl	f0001030 <mctl_enable_dllx>
f0001284:	e5d42020 	ldrb	r2, [r4, #32]
f0001288:	e59630a8 	ldr	r3, [r6, #168]
f000128c:	e3c336ff 	bic	r3, r3, #267386880	; 0xff00000
f0001290:	e1833a02 	orr	r3, r3, r2, lsl #20
f0001294:	e58630a8 	str	r3, [r6, #168]
f0001298:	e5942024 	ldr	r2, [r4, #36]
f000129c:	e2023003 	and	r3, r2, #3	; 0x3
f00012a0:	e1833f02 	orr	r3, r3, r2, lsl #30
f00012a4:	e3835733 	orr	r5, r3, #13369344	; 0xcc0000
f00012a8:	e5865008 	str	r5, [r6, #8]
f00012ac:	e5940004 	ldr	r0, [r4, #4]
f00012b0:	ebfffed5 	bl	f0000e0c <DRAMC_set_autorefresh_cycle>
f00012b4:	e594302c 	ldr	r3, [r4, #44]
f00012b8:	e5863014 	str	r3, [r6, #20]
f00012bc:	e5943030 	ldr	r3, [r4, #48]
f00012c0:	e5863018 	str	r3, [r6, #24]
f00012c4:	e5943034 	ldr	r3, [r4, #52]
f00012c8:	e586301c 	str	r3, [r6, #28]
f00012cc:	e5943008 	ldr	r3, [r4, #8]
f00012d0:	e3530003 	cmp	r3, #3	; 0x3
f00012d4:	0594301c 	ldreq	r3, [r4, #28]
f00012d8:	02433004 	subeq	r3, r3, #4	; 0x4
f00012dc:	01a03203 	lsleq	r3, r3, #4
f00012e0:	03835c0a 	orreq	r5, r3, #2560	; 0xa00
f00012e4:	0a000004 	beq	f00012fc <DRAMC_init+0x164>
f00012e8:	e3530002 	cmp	r3, #2	; 0x2
f00012ec:	0594301c 	ldreq	r3, [r4, #28]
f00012f0:	01a03203 	lsleq	r3, r3, #4
f00012f4:	03835c0a 	orreq	r5, r3, #2560	; 0xa00
f00012f8:	03855002 	orreq	r5, r5, #2	; 0x2
f00012fc:	e59f2068 	ldr	r2, [pc, #104]	; f000136c <DRAMC_init+0x1d4>
f0001300:	e58251f0 	str	r5, [r2, #496]
f0001304:	e5943044 	ldr	r3, [r4, #68]
f0001308:	e58231f4 	str	r3, [r2, #500]
f000130c:	e5943048 	ldr	r3, [r4, #72]
f0001310:	e58231f8 	str	r3, [r2, #504]
f0001314:	e594304c 	ldr	r3, [r4, #76]
f0001318:	e58231fc 	str	r3, [r2, #508]
f000131c:	e5923000 	ldr	r3, [r2]
f0001320:	e3833901 	orr	r3, r3, #16384	; 0x4000
f0001324:	e3c33802 	bic	r3, r3, #131072	; 0x20000
f0001328:	e5823000 	str	r3, [r2]
f000132c:	e5923000 	ldr	r3, [r2]
f0001330:	e3833102 	orr	r3, r3, #-2147483648	; 0x80000000
f0001334:	e5823000 	str	r3, [r2]
f0001338:	e59f302c 	ldr	r3, [pc, #44]	; f000136c <DRAMC_init+0x1d4>
f000133c:	e5933000 	ldr	r3, [r3]
f0001340:	e3530000 	cmp	r3, #0	; 0x0
f0001344:	bafffffb 	blt	f0001338 <DRAMC_init+0x1a0>
f0001348:	ebfffe6d 	bl	f0000d04 <mctl_itm_enable>
f000134c:	ebfffe98 	bl	f0000db4 <DRAMC_scan_readpipe>
f0001350:	e3500000 	cmp	r0, #0	; 0x0
f0001354:	b3a00000 	movlt	r0, #0	; 0x0
f0001358:	b8bd8070 	poplt	{r4, r5, r6, pc}
f000135c:	ebfffe85 	bl	f0000d78 <mctl_configure_hostport>
f0001360:	e8bd4070 	pop	{r4, r5, r6, lr}
f0001364:	eafffec0 	b	f0000e6c <DRAMC_get_dram_size>
f0001368:	16237495 	.word	0x16237495
f000136c:	f1c01000 	.word	0xf1c01000

f0001370 <standby_int_init>:
f0001370:	e59f3088 	ldr	r3, [pc, #136]	; f0001400 <standby_int_init+0x90>
f0001374:	e3a01000 	mov	r1, #0	; 0x0
f0001378:	e59f2084 	ldr	r2, [pc, #132]	; f0001404 <standby_int_init+0x94>
f000137c:	e1a00001 	mov	r0, r1
f0001380:	e92d4ff0 	push	{r4, r5, r6, r7, r8, r9, sl, fp, lr}
f0001384:	e5935040 	ldr	r5, [r3, #64]
f0001388:	e5936044 	ldr	r6, [r3, #68]
f000138c:	e3e04000 	mvn	r4, #0	; 0x0
f0001390:	e5937048 	ldr	r7, [r3, #72]
f0001394:	e5938050 	ldr	r8, [r3, #80]
f0001398:	e593a054 	ldr	sl, [r3, #84]
f000139c:	e5939058 	ldr	r9, [r3, #88]
f00013a0:	e593c030 	ldr	ip, [r3, #48]
f00013a4:	e5823000 	str	r3, [r2]
f00013a8:	e582c01c 	str	ip, [r2, #28]
f00013ac:	e593b034 	ldr	fp, [r3, #52]
f00013b0:	e593c038 	ldr	ip, [r3, #56]
f00013b4:	e9820060 	stmib	r2, {r5, r6}
f00013b8:	e582c024 	str	ip, [r2, #36]
f00013bc:	e582700c 	str	r7, [r2, #12]
f00013c0:	e5828010 	str	r8, [r2, #16]
f00013c4:	e582a014 	str	sl, [r2, #20]
f00013c8:	e5829018 	str	r9, [r2, #24]
f00013cc:	e582b020 	str	fp, [r2, #32]
f00013d0:	e3a02001 	mov	r2, #1	; 0x1
f00013d4:	e5831040 	str	r1, [r3, #64]
f00013d8:	e5831044 	str	r1, [r3, #68]
f00013dc:	e5831048 	str	r1, [r3, #72]
f00013e0:	e5834050 	str	r4, [r3, #80]
f00013e4:	e5834054 	str	r4, [r3, #84]
f00013e8:	e5834058 	str	r4, [r3, #88]
f00013ec:	e5831030 	str	r1, [r3, #48]
f00013f0:	e5831034 	str	r1, [r3, #52]
f00013f4:	e5831038 	str	r1, [r3, #56]
f00013f8:	e5832010 	str	r2, [r3, #16]
f00013fc:	e8bd8ff0 	pop	{r4, r5, r6, r7, r8, r9, sl, fp, pc}
f0001400:	f1c20400 	.word	0xf1c20400
f0001404:	f0002014 	.word	0xf0002014

f0001408 <standby_int_exit>:
f0001408:	e59f204c 	ldr	r2, [pc, #76]	; f000145c <standby_int_exit+0x54>
f000140c:	e3a00000 	mov	r0, #0	; 0x0
f0001410:	e892000a 	ldm	r2, {r1, r3}
f0001414:	e5813040 	str	r3, [r1, #64]
f0001418:	e5923008 	ldr	r3, [r2, #8]
f000141c:	e5813044 	str	r3, [r1, #68]
f0001420:	e592300c 	ldr	r3, [r2, #12]
f0001424:	e5813048 	str	r3, [r1, #72]
f0001428:	e5923010 	ldr	r3, [r2, #16]
f000142c:	e5813050 	str	r3, [r1, #80]
f0001430:	e5923014 	ldr	r3, [r2, #20]
f0001434:	e5813054 	str	r3, [r1, #84]
f0001438:	e5923018 	ldr	r3, [r2, #24]
f000143c:	e5813058 	str	r3, [r1, #88]
f0001440:	e592301c 	ldr	r3, [r2, #28]
f0001444:	e5813030 	str	r3, [r1, #48]
f0001448:	e5923020 	ldr	r3, [r2, #32]
f000144c:	e5813034 	str	r3, [r1, #52]
f0001450:	e5923024 	ldr	r3, [r2, #36]
f0001454:	e5813038 	str	r3, [r1, #56]
f0001458:	e12fff1e 	bx	lr
f000145c:	f0002014 	.word	0xf0002014

f0001460 <standby_enable_int>:
f0001460:	e59f303c 	ldr	r3, [pc, #60]	; f00014a4 <standby_enable_int+0x44>
f0001464:	e1a0c2a0 	lsr	ip, r0, #5
f0001468:	e92d4010 	push	{r4, lr}
f000146c:	e28c4010 	add	r4, ip, #16	; 0x10
f0001470:	e5931000 	ldr	r1, [r3]
f0001474:	e28cc014 	add	ip, ip, #20	; 0x14
f0001478:	e200001f 	and	r0, r0, #31	; 0x1f
f000147c:	e3a02001 	mov	r2, #1	; 0x1
f0001480:	e1a02012 	lsl	r2, r2, r0
f0001484:	e3a00000 	mov	r0, #0	; 0x0
f0001488:	e7913104 	ldr	r3, [r1, r4, lsl #2]
f000148c:	e1823003 	orr	r3, r2, r3
f0001490:	e7813104 	str	r3, [r1, r4, lsl #2]
f0001494:	e791310c 	ldr	r3, [r1, ip, lsl #2]
f0001498:	e1c33002 	bic	r3, r3, r2
f000149c:	e781310c 	str	r3, [r1, ip, lsl #2]
f00014a0:	e8bd8010 	pop	{r4, pc}
f00014a4:	f0002014 	.word	0xf0002014

f00014a8 <standby_query_int>:
f00014a8:	e59f3024 	ldr	r3, [pc, #36]	; f00014d4 <standby_query_int+0x2c>
f00014ac:	e1a022a0 	lsr	r2, r0, #5
f00014b0:	e2822004 	add	r2, r2, #4	; 0x4
f00014b4:	e200001f 	and	r0, r0, #31	; 0x1f
f00014b8:	e5933000 	ldr	r3, [r3]
f00014bc:	e7932102 	ldr	r2, [r3, r2, lsl #2]
f00014c0:	e3a03001 	mov	r3, #1	; 0x1
f00014c4:	e0123013 	ands	r3, r2, r3, lsl r0
f00014c8:	03e00000 	mvneq	r0, #0	; 0x0
f00014cc:	13a00000 	movne	r0, #0	; 0x0
f00014d0:	e12fff1e 	bx	lr
f00014d4:	f0002014 	.word	0xf0002014

f00014d8 <standby_ir_init>:
f00014d8:	e3a00000 	mov	r0, #0	; 0x0
f00014dc:	e12fff1e 	bx	lr

f00014e0 <standby_ir_exit>:
f00014e0:	e3a00000 	mov	r0, #0	; 0x0
f00014e4:	e12fff1e 	bx	lr

f00014e8 <standby_ir_detect>:
f00014e8:	e3a00000 	mov	r0, #0	; 0x0
f00014ec:	e12fff1e 	bx	lr

f00014f0 <standby_ir_verify>:
f00014f0:	e3e00000 	mvn	r0, #0	; 0x0
f00014f4:	e12fff1e 	bx	lr

f00014f8 <standby_key_exit>:
f00014f8:	e59f3014 	ldr	r3, [pc, #20]	; f0001514 <standby_key_exit+0x1c>
f00014fc:	e3a00000 	mov	r0, #0	; 0x0
f0001500:	e5931008 	ldr	r1, [r3, #8]
f0001504:	e893000c 	ldm	r3, {r2, r3}
f0001508:	e5823000 	str	r3, [r2]
f000150c:	e5821004 	str	r1, [r2, #4]
f0001510:	e12fff1e 	bx	lr
f0001514:	f000203c 	.word	0xf000203c

f0001518 <standby_query_key>:
f0001518:	e59f301c 	ldr	r3, [pc, #28]	; f000153c <standby_query_key+0x24>
f000151c:	e5932000 	ldr	r2, [r3]
f0001520:	e5923008 	ldr	r3, [r2, #8]
f0001524:	e3130002 	tst	r3, #2	; 0x2
f0001528:	13a03002 	movne	r3, #2	; 0x2
f000152c:	03e00000 	mvneq	r0, #0	; 0x0
f0001530:	13a00000 	movne	r0, #0	; 0x0
f0001534:	15823008 	strne	r3, [r2, #8]
f0001538:	e12fff1e 	bx	lr
f000153c:	f000203c 	.word	0xf000203c

f0001540 <standby_key_init>:
f0001540:	e59f3048 	ldr	r3, [pc, #72]	; f0001590 <standby_key_init+0x50>
f0001544:	e3a0000a 	mov	r0, #10	; 0xa
f0001548:	e92d4070 	push	{r4, r5, r6, lr}
f000154c:	e59f4040 	ldr	r4, [pc, #64]	; f0001594 <standby_key_init+0x54>
f0001550:	e5932000 	ldr	r2, [r3]
f0001554:	e3a05000 	mov	r5, #0	; 0x0
f0001558:	e5931004 	ldr	r1, [r3, #4]
f000155c:	e5835000 	str	r5, [r3]
f0001560:	e5843000 	str	r3, [r4]
f0001564:	e5842004 	str	r2, [r4, #4]
f0001568:	e5841008 	str	r1, [r4, #8]
f000156c:	ebfffb89 	bl	f0000398 <standby_mdelay>
f0001570:	e5942000 	ldr	r2, [r4]
f0001574:	e3a01002 	mov	r1, #2	; 0x2
f0001578:	e3a03041 	mov	r3, #65	; 0x41
f000157c:	e1a00005 	mov	r0, r5
f0001580:	e5823000 	str	r3, [r2]
f0001584:	e5821004 	str	r1, [r2, #4]
f0001588:	e5821008 	str	r1, [r2, #8]
f000158c:	e8bd8070 	pop	{r4, r5, r6, pc}
f0001590:	f1c22800 	.word	0xf1c22800
f0001594:	f000203c 	.word	0xf000203c

f0001598 <raw_lib_udiv>:
f0001598:	e3510000 	cmp	r1, #0	; 0x0
f000159c:	e1a0c000 	mov	ip, r0
f00015a0:	13a02000 	movne	r2, #0	; 0x0
f00015a4:	1a000002 	bne	f00015b4 <raw_lib_udiv+0x1c>
f00015a8:	ea00000d 	b	f00015e4 <raw_lib_udiv+0x4c>
f00015ac:	e1a01081 	lsl	r1, r1, #1
f00015b0:	e2822001 	add	r2, r2, #1	; 0x1
f00015b4:	e3510000 	cmp	r1, #0	; 0x0
f00015b8:	aafffffb 	bge	f00015ac <raw_lib_udiv+0x14>
f00015bc:	e3a00000 	mov	r0, #0	; 0x0
f00015c0:	e15c0001 	cmp	ip, r1
f00015c4:	e1a03080 	lsl	r3, r0, #1
f00015c8:	2061c00c 	rsbcs	ip, r1, ip
f00015cc:	e3830001 	orr	r0, r3, #1	; 0x1
f00015d0:	31a00003 	movcc	r0, r3
f00015d4:	e2522001 	subs	r2, r2, #1	; 0x1
f00015d8:	e1a010a1 	lsr	r1, r1, #1
f00015dc:	5afffff7 	bpl	f00015c0 <raw_lib_udiv+0x28>
f00015e0:	e12fff1e 	bx	lr
f00015e4:	e1a00001 	mov	r0, r1
f00015e8:	e12fff1e 	bx	lr

f00015ec <find_info>:
f00015ec:	e1a01000 	mov	r1, r0
f00015f0:	e59f2024 	ldr	r2, [pc, #36]	; f000161c <find_info+0x30>
f00015f4:	ea000002 	b	f0001604 <find_info+0x18>
f00015f8:	e492301c 	ldr	r3, [r2], #28
f00015fc:	e1530001 	cmp	r3, r1
f0001600:	012fff1e 	bxeq	lr
f0001604:	e59f3014 	ldr	r3, [pc, #20]	; f0001620 <find_info+0x34>
f0001608:	e1a00002 	mov	r0, r2
f000160c:	e1520003 	cmp	r2, r3
f0001610:	1afffff8 	bne	f00015f8 <find_info+0xc>
f0001614:	e3a00000 	mov	r0, #0	; 0x0
f0001618:	e12fff1e 	bx	lr
f000161c:	f0001ef8 	.word	0xf0001ef8
f0001620:	f0001fa0 	.word	0xf0001fa0

f0001624 <standby_get_voltage>:
f0001624:	e92d4037 	push	{r0, r1, r2, r4, r5, lr}
f0001628:	e1a05000 	mov	r5, r0
f000162c:	ebffffee 	bl	f00015ec <find_info>
f0001630:	e2504000 	subs	r4, r0, #0	; 0x0
f0001634:	03e00000 	mvneq	r0, #0	; 0x0
f0001638:	0a000014 	beq	f0001690 <standby_get_voltage+0x6c>
f000163c:	e3a01034 	mov	r1, #52	; 0x34
f0001640:	e5d42010 	ldrb	r2, [r4, #16]
f0001644:	e28d3007 	add	r3, sp, #7	; 0x7
f0001648:	e3a00000 	mov	r0, #0	; 0x0
f000164c:	eb000130 	bl	f0001b14 <twi_byte_rw>
f0001650:	e5940018 	ldr	r0, [r4, #24]
f0001654:	e5941014 	ldr	r1, [r4, #20]
f0001658:	e3e03000 	mvn	r3, #0	; 0x0
f000165c:	e5dd2007 	ldrb	r2, [sp, #7]
f0001660:	e3550006 	cmp	r5, #6	; 0x6
f0001664:	e1e03013 	mvn	r3, r3, lsl r0
f0001668:	e0022113 	and	r2, r2, r3, lsl r1
f000166c:	059f3020 	ldreq	r3, [pc, #32]	; f0001694 <standby_get_voltage+0x70>
f0001670:	1594300c 	ldrne	r3, [r4, #12]
f0001674:	e1a02152 	asr	r2, r2, r1
f0001678:	e6ef0072 	uxtb	r0, r2
f000167c:	15942004 	ldrne	r2, [r4, #4]
f0001680:	07932100 	ldreq	r2, [r3, r0, lsl #2]
f0001684:	03a03ffa 	moveq	r3, #1000	; 0x3e8
f0001688:	10202093 	mlane	r0, r3, r0, r2
f000168c:	00000293 	muleq	r0, r3, r2
f0001690:	e8bd803e 	pop	{r1, r2, r3, r4, r5, pc}
f0001694:	f0001e2c 	.word	0xf0001e2c

f0001698 <standby_set_voltage>:
f0001698:	e92d41f3 	push	{r0, r1, r4, r5, r6, r7, r8, lr}
f000169c:	e1a04001 	mov	r4, r1
f00016a0:	e1a06000 	mov	r6, r0
f00016a4:	ebffffd0 	bl	f00015ec <find_info>
f00016a8:	e2505000 	subs	r5, r0, #0	; 0x0
f00016ac:	0a000042 	beq	f00017bc <standby_set_voltage+0x124>
f00016b0:	e5952004 	ldr	r2, [r5, #4]
f00016b4:	e1540002 	cmp	r4, r2
f00016b8:	ba00003f 	blt	f00017bc <standby_set_voltage+0x124>
f00016bc:	e5953008 	ldr	r3, [r5, #8]
f00016c0:	e1540003 	cmp	r4, r3
f00016c4:	da000039 	ble	f00017b0 <standby_set_voltage+0x118>
f00016c8:	ea00003b 	b	f00017bc <standby_set_voltage+0x124>
f00016cc:	e595100c 	ldr	r1, [r5, #12]
f00016d0:	e2410001 	sub	r0, r1, #1	; 0x1
f00016d4:	e0620000 	rsb	r0, r2, r0
f00016d8:	e0800004 	add	r0, r0, r4
f00016dc:	ebffffad 	bl	f0001598 <raw_lib_udiv>
f00016e0:	e6efe070 	uxtb	lr, r0
f00016e4:	ea000015 	b	f0001740 <standby_set_voltage+0xa8>
f00016e8:	e59f30d0 	ldr	r3, [pc, #208]	; f00017c0 <standby_set_voltage+0x128>
f00016ec:	e1540003 	cmp	r4, r3
f00016f0:	03a0e000 	moveq	lr, #0	; 0x0
f00016f4:	0a000011 	beq	f0001740 <standby_set_voltage+0xa8>
f00016f8:	e595100c 	ldr	r1, [r5, #12]
f00016fc:	e59f00c0 	ldr	r0, [pc, #192]	; f00017c4 <standby_set_voltage+0x12c>
f0001700:	e0810000 	add	r0, r1, r0
f0001704:	e0800004 	add	r0, r0, r4
f0001708:	ebffffa2 	bl	f0001598 <raw_lib_udiv>
f000170c:	e6efe070 	uxtb	lr, r0
f0001710:	e35e0010 	cmp	lr, #16	; 0x10
f0001714:	824e3006 	subhi	r3, lr, #6	; 0x6
f0001718:	8a000002 	bhi	f0001728 <standby_set_voltage+0x90>
f000171c:	e35e000d 	cmp	lr, #13	; 0xd
f0001720:	9a000002 	bls	f0001730 <standby_set_voltage+0x98>
f0001724:	e24e3005 	sub	r3, lr, #5	; 0x5
f0001728:	e6efe073 	uxtb	lr, r3
f000172c:	ea000003 	b	f0001740 <standby_set_voltage+0xa8>
f0001730:	03a0e009 	moveq	lr, #9	; 0x9
f0001734:	0a000001 	beq	f0001740 <standby_set_voltage+0xa8>
f0001738:	e35e0008 	cmp	lr, #8	; 0x8
f000173c:	23a0e008 	movcs	lr, #8	; 0x8
f0001740:	e595c018 	ldr	ip, [r5, #24]
f0001744:	e3a07001 	mov	r7, #1	; 0x1
f0001748:	e5953014 	ldr	r3, [r5, #20]
f000174c:	e28d8007 	add	r8, sp, #7	; 0x7
f0001750:	e1a0cc17 	lsl	ip, r7, ip
f0001754:	e5d52010 	ldrb	r2, [r5, #16]
f0001758:	e24cc001 	sub	ip, ip, #1	; 0x1
f000175c:	e1a0e31e 	lsl	lr, lr, r3
f0001760:	e3a00000 	mov	r0, #0	; 0x0
f0001764:	e3a01034 	mov	r1, #52	; 0x34
f0001768:	e1a0c31c 	lsl	ip, ip, r3
f000176c:	e1a03008 	mov	r3, r8
f0001770:	e6ef607e 	uxtb	r6, lr
f0001774:	e6ef407c 	uxtb	r4, ip
f0001778:	eb0000e5 	bl	f0001b14 <twi_byte_rw>
f000177c:	e5dd2007 	ldrb	r2, [sp, #7]
f0001780:	e0043002 	and	r3, r4, r2
f0001784:	e1530006 	cmp	r3, r6
f0001788:	0a00000b 	beq	f00017bc <standby_set_voltage+0x124>
f000178c:	e1c23004 	bic	r3, r2, r4
f0001790:	e1a00007 	mov	r0, r7
f0001794:	e1863003 	orr	r3, r6, r3
f0001798:	e3a01034 	mov	r1, #52	; 0x34
f000179c:	e5cd3007 	strb	r3, [sp, #7]
f00017a0:	e1a03008 	mov	r3, r8
f00017a4:	e5d52010 	ldrb	r2, [r5, #16]
f00017a8:	eb0000d9 	bl	f0001b14 <twi_byte_rw>
f00017ac:	ea000002 	b	f00017bc <standby_set_voltage+0x124>
f00017b0:	e3560006 	cmp	r6, #6	; 0x6
f00017b4:	1affffc4 	bne	f00016cc <standby_set_voltage+0x34>
f00017b8:	eaffffca 	b	f00016e8 <standby_set_voltage+0x50>
f00017bc:	e8bd81fc 	pop	{r2, r3, r4, r5, r6, r7, r8, pc}
f00017c0:	001312d0 	.word	0x001312d0
f00017c4:	ffedb07f 	.word	0xffedb07f

f00017c8 <standby_power_exit>:
f00017c8:	e92d4013 	push	{r0, r1, r4, lr}
f00017cc:	e28d4007 	add	r4, sp, #7	; 0x7
f00017d0:	e3a01034 	mov	r1, #52	; 0x34
f00017d4:	e3a02042 	mov	r2, #66	; 0x42
f00017d8:	e1a03004 	mov	r3, r4
f00017dc:	e3a00000 	mov	r0, #0	; 0x0
f00017e0:	eb0000cb 	bl	f0001b14 <twi_byte_rw>
f00017e4:	e5ddc007 	ldrb	ip, [sp, #7]
f00017e8:	e1a03004 	mov	r3, r4
f00017ec:	e3a01034 	mov	r1, #52	; 0x34
f00017f0:	e3a02042 	mov	r2, #66	; 0x42
f00017f4:	e3a00001 	mov	r0, #1	; 0x1
f00017f8:	e3ccc003 	bic	ip, ip, #3	; 0x3
f00017fc:	e5cdc007 	strb	ip, [sp, #7]
f0001800:	eb0000c3 	bl	f0001b14 <twi_byte_rw>
f0001804:	e1a03004 	mov	r3, r4
f0001808:	e3a01034 	mov	r1, #52	; 0x34
f000180c:	e3a02043 	mov	r2, #67	; 0x43
f0001810:	e3a00000 	mov	r0, #0	; 0x0
f0001814:	eb0000be 	bl	f0001b14 <twi_byte_rw>
f0001818:	e5ddc007 	ldrb	ip, [sp, #7]
f000181c:	e1a03004 	mov	r3, r4
f0001820:	e3a01034 	mov	r1, #52	; 0x34
f0001824:	e3a02043 	mov	r2, #67	; 0x43
f0001828:	e3a00001 	mov	r0, #1	; 0x1
f000182c:	e3ccc003 	bic	ip, ip, #3	; 0x3
f0001830:	e5cdc007 	strb	ip, [sp, #7]
f0001834:	eb0000b6 	bl	f0001b14 <twi_byte_rw>
f0001838:	eb00015f 	bl	f0001dbc <standby_twi_exit>
f000183c:	e3a00000 	mov	r0, #0	; 0x0
f0001840:	e8bd801c 	pop	{r2, r3, r4, pc}

f0001844 <standby_power_init>:
f0001844:	e92d4013 	push	{r0, r1, r4, lr}
f0001848:	e28d4007 	add	r4, sp, #7	; 0x7
f000184c:	e3a00000 	mov	r0, #0	; 0x0
f0001850:	eb00009e 	bl	f0001ad0 <standby_twi_init>
f0001854:	e1a03004 	mov	r3, r4
f0001858:	e3a01034 	mov	r1, #52	; 0x34
f000185c:	e3a02042 	mov	r2, #66	; 0x42
f0001860:	e3a00000 	mov	r0, #0	; 0x0
f0001864:	eb0000aa 	bl	f0001b14 <twi_byte_rw>
f0001868:	e5ddc007 	ldrb	ip, [sp, #7]
f000186c:	e1a03004 	mov	r3, r4
f0001870:	e3a01034 	mov	r1, #52	; 0x34
f0001874:	e3a02042 	mov	r2, #66	; 0x42
f0001878:	e3a00001 	mov	r0, #1	; 0x1
f000187c:	e38cc003 	orr	ip, ip, #3	; 0x3
f0001880:	e5cdc007 	strb	ip, [sp, #7]
f0001884:	eb0000a2 	bl	f0001b14 <twi_byte_rw>
f0001888:	e1a03004 	mov	r3, r4
f000188c:	e3a01034 	mov	r1, #52	; 0x34
f0001890:	e3a02043 	mov	r2, #67	; 0x43
f0001894:	e3a00000 	mov	r0, #0	; 0x0
f0001898:	eb00009d 	bl	f0001b14 <twi_byte_rw>
f000189c:	e5ddc007 	ldrb	ip, [sp, #7]
f00018a0:	e1a03004 	mov	r3, r4
f00018a4:	e3a01034 	mov	r1, #52	; 0x34
f00018a8:	e3a02043 	mov	r2, #67	; 0x43
f00018ac:	e3a00001 	mov	r0, #1	; 0x1
f00018b0:	e38cc003 	orr	ip, ip, #3	; 0x3
f00018b4:	e5cdc007 	strb	ip, [sp, #7]
f00018b8:	eb000095 	bl	f0001b14 <twi_byte_rw>
f00018bc:	e1a03004 	mov	r3, r4
f00018c0:	e3a01034 	mov	r1, #52	; 0x34
f00018c4:	e3a0204b 	mov	r2, #75	; 0x4b
f00018c8:	e3a00001 	mov	r0, #1	; 0x1
f00018cc:	e3a0c003 	mov	ip, #3	; 0x3
f00018d0:	e5cdc007 	strb	ip, [sp, #7]
f00018d4:	eb00008e 	bl	f0001b14 <twi_byte_rw>
f00018d8:	e3a00000 	mov	r0, #0	; 0x0
f00018dc:	e8bd801c 	pop	{r2, r3, r4, pc}

f00018e0 <standby_tmr_exit>:
f00018e0:	e59f303c 	ldr	r3, [pc, #60]	; f0001924 <standby_tmr_exit+0x44>
f00018e4:	e3a00000 	mov	r0, #0	; 0x0
f00018e8:	e92d40f0 	push	{r4, r5, r6, r7, lr}
f00018ec:	e5932000 	ldr	r2, [r3]
f00018f0:	e593701c 	ldr	r7, [r3, #28]
f00018f4:	e9931002 	ldmib	r3, {r1, ip}
f00018f8:	e283400c 	add	r4, r3, #12	; 0xc
f00018fc:	e8940070 	ldm	r4, {r4, r5, r6}
f0001900:	e5933018 	ldr	r3, [r3, #24]
f0001904:	e5821014 	str	r1, [r2, #20]
f0001908:	e582c018 	str	ip, [r2, #24]
f000190c:	e5824010 	str	r4, [r2, #16]
f0001910:	e5825024 	str	r5, [r2, #36]
f0001914:	e5826028 	str	r6, [r2, #40]
f0001918:	e5823020 	str	r3, [r2, #32]
f000191c:	e5827000 	str	r7, [r2]
f0001920:	e8bd80f0 	pop	{r4, r5, r6, r7, pc}
f0001924:	f0002048 	.word	0xf0002048

f0001928 <standby_tmr_set>:
f0001928:	e59f3048 	ldr	r3, [pc, #72]	; f0001978 <standby_tmr_set+0x50>
f000192c:	e3a01001 	mov	r1, #1	; 0x1
f0001930:	e3a0c000 	mov	ip, #0	; 0x0
f0001934:	e92d4010 	push	{r4, lr}
f0001938:	e5932000 	ldr	r2, [r3]
f000193c:	e1a04500 	lsl	r4, r0, #10
f0001940:	e3a030d0 	mov	r3, #208	; 0xd0
f0001944:	e1a0000c 	mov	r0, ip
f0001948:	e5821004 	str	r1, [r2, #4]
f000194c:	e5821000 	str	r1, [r2]
f0001950:	e582c010 	str	ip, [r2, #16]
f0001954:	e5824014 	str	r4, [r2, #20]
f0001958:	e5823010 	str	r3, [r2, #16]
f000195c:	e5923010 	ldr	r3, [r2, #16]
f0001960:	e3833002 	orr	r3, r3, #2	; 0x2
f0001964:	e5823010 	str	r3, [r2, #16]
f0001968:	e5923010 	ldr	r3, [r2, #16]
f000196c:	e1833001 	orr	r3, r3, r1
f0001970:	e5823010 	str	r3, [r2, #16]
f0001974:	e8bd8010 	pop	{r4, pc}
f0001978:	f0002048 	.word	0xf0002048

f000197c <standby_tmr_enable_watchdog>:
f000197c:	e59f3018 	ldr	r3, [pc, #24]	; f000199c <standby_tmr_enable_watchdog+0x20>
f0001980:	e5932000 	ldr	r2, [r3]
f0001984:	e3a03012 	mov	r3, #18	; 0x12
f0001988:	e5823094 	str	r3, [r2, #148]
f000198c:	e5923094 	ldr	r3, [r2, #148]
f0001990:	e3833001 	orr	r3, r3, #1	; 0x1
f0001994:	e5823094 	str	r3, [r2, #148]
f0001998:	e12fff1e 	bx	lr
f000199c:	f0002048 	.word	0xf0002048

f00019a0 <standby_tmr_disable_watchdog>:
f00019a0:	e59f301c 	ldr	r3, [pc, #28]	; f00019c4 <standby_tmr_disable_watchdog+0x24>
f00019a4:	e5932000 	ldr	r2, [r3]
f00019a8:	e5923094 	ldr	r3, [r2, #148]
f00019ac:	e3c33002 	bic	r3, r3, #2	; 0x2
f00019b0:	e5823094 	str	r3, [r2, #148]
f00019b4:	e5923094 	ldr	r3, [r2, #148]
f00019b8:	e3c33001 	bic	r3, r3, #1	; 0x1
f00019bc:	e5823094 	str	r3, [r2, #148]
f00019c0:	e12fff1e 	bx	lr
f00019c4:	f0002048 	.word	0xf0002048

f00019c8 <standby_tmr_query>:
f00019c8:	e3500000 	cmp	r0, #0	; 0x0
f00019cc:	1a000006 	bne	f00019ec <standby_tmr_query+0x24>
f00019d0:	e59f301c 	ldr	r3, [pc, #28]	; f00019f4 <standby_tmr_query+0x2c>
f00019d4:	e5932000 	ldr	r2, [r3]
f00019d8:	e5923004 	ldr	r3, [r2, #4]
f00019dc:	e3130001 	tst	r3, #1	; 0x1
f00019e0:	13a03001 	movne	r3, #1	; 0x1
f00019e4:	15823004 	strne	r3, [r2, #4]
f00019e8:	112fff1e 	bxne	lr
f00019ec:	e3e00000 	mvn	r0, #0	; 0x0
f00019f0:	e12fff1e 	bx	lr
f00019f4:	f0002048 	.word	0xf0002048

f00019f8 <standby_tmr_mdlay>:
f00019f8:	e92d4010 	push	{r4, lr}
f00019fc:	e59f4044 	ldr	r4, [pc, #68]	; f0001a48 <standby_tmr_mdlay+0x50>
f0001a00:	e350001e 	cmp	r0, #30	; 0x1e
f0001a04:	a1a03000 	movge	r3, r0
f0001a08:	b3a0301e 	movlt	r3, #30	; 0x1e
f0001a0c:	e3000bb8 	movw	r0, #3000	; 0xbb8
f0001a10:	e5942000 	ldr	r2, [r4]
f0001a14:	e5823024 	str	r3, [r2, #36]
f0001a18:	e5923020 	ldr	r3, [r2, #32]
f0001a1c:	e3833002 	orr	r3, r3, #2	; 0x2
f0001a20:	e5823020 	str	r3, [r2, #32]
f0001a24:	e5923020 	ldr	r3, [r2, #32]
f0001a28:	e3833001 	orr	r3, r3, #1	; 0x1
f0001a2c:	e5823020 	str	r3, [r2, #32]
f0001a30:	eb0000fa 	bl	f0001e20 <standby_delay>
f0001a34:	e5944000 	ldr	r4, [r4]
f0001a38:	e5943028 	ldr	r3, [r4, #40]
f0001a3c:	e3530000 	cmp	r3, #0	; 0x0
f0001a40:	1afffffc 	bne	f0001a38 <standby_tmr_mdlay+0x40>
f0001a44:	e8bd8010 	pop	{r4, pc}
f0001a48:	f0002048 	.word	0xf0002048

f0001a4c <standby_tmr_init>:
f0001a4c:	e59f2074 	ldr	r2, [pc, #116]	; f0001ac8 <standby_tmr_init+0x7c>
f0001a50:	e3a00ffa 	mov	r0, #1000	; 0x3e8
f0001a54:	e92d41f0 	push	{r4, r5, r6, r7, r8, lr}
f0001a58:	e59f406c 	ldr	r4, [pc, #108]	; f0001acc <standby_tmr_init+0x80>
f0001a5c:	e5923000 	ldr	r3, [r2]
f0001a60:	e3a05000 	mov	r5, #0	; 0x0
f0001a64:	e5921010 	ldr	r1, [r2, #16]
f0001a68:	e592c014 	ldr	ip, [r2, #20]
f0001a6c:	e592e018 	ldr	lr, [r2, #24]
f0001a70:	e5926020 	ldr	r6, [r2, #32]
f0001a74:	e5927024 	ldr	r7, [r2, #36]
f0001a78:	e5928028 	ldr	r8, [r2, #40]
f0001a7c:	e584301c 	str	r3, [r4, #28]
f0001a80:	e3a03001 	mov	r3, #1	; 0x1
f0001a84:	e584100c 	str	r1, [r4, #12]
f0001a88:	e9845000 	stmib	r4, {ip, lr}
f0001a8c:	e5846018 	str	r6, [r4, #24]
f0001a90:	e5847010 	str	r7, [r4, #16]
f0001a94:	e5848014 	str	r8, [r4, #20]
f0001a98:	e5825000 	str	r5, [r2]
f0001a9c:	e5823004 	str	r3, [r2, #4]
f0001aa0:	e5825020 	str	r5, [r2, #32]
f0001aa4:	e5842000 	str	r2, [r4]
f0001aa8:	eb0000dc 	bl	f0001e20 <standby_delay>
f0001aac:	e5942000 	ldr	r2, [r4]
f0001ab0:	e3a030d0 	mov	r3, #208	; 0xd0
f0001ab4:	e3a00ffa 	mov	r0, #1000	; 0x3e8
f0001ab8:	e5823020 	str	r3, [r2, #32]
f0001abc:	eb0000d7 	bl	f0001e20 <standby_delay>
f0001ac0:	e1a00005 	mov	r0, r5
f0001ac4:	e8bd81f0 	pop	{r4, r5, r6, r7, r8, pc}
f0001ac8:	f1c20c00 	.word	0xf1c20c00
f0001acc:	f0002048 	.word	0xf0002048

f0001ad0 <standby_twi_init>:
f0001ad0:	e59f3034 	ldr	r3, [pc, #52]	; f0001b0c <standby_twi_init+0x3c>
f0001ad4:	e59f1034 	ldr	r1, [pc, #52]	; f0001b10 <standby_twi_init+0x40>
f0001ad8:	e7932100 	ldr	r2, [r3, r0, lsl #2]
f0001adc:	e3a00000 	mov	r0, #0	; 0x0
f0001ae0:	e592c014 	ldr	ip, [r2, #20]
f0001ae4:	e592300c 	ldr	r3, [r2, #12]
f0001ae8:	e8811004 	stm	r1, {r2, ip}
f0001aec:	e2033080 	and	r3, r3, #128	; 0x80
f0001af0:	e5813008 	str	r3, [r1, #8]
f0001af4:	e3a03013 	mov	r3, #19	; 0x13
f0001af8:	e5823014 	str	r3, [r2, #20]
f0001afc:	e5923018 	ldr	r3, [r2, #24]
f0001b00:	e3833001 	orr	r3, r3, #1	; 0x1
f0001b04:	e5823018 	str	r3, [r2, #24]
f0001b08:	e12fff1e 	bx	lr
f0001b0c:	f0001e6c 	.word	0xf0001e6c
f0001b10:	f0002068 	.word	0xf0002068

f0001b14 <twi_byte_rw>:
f0001b14:	e92d4030 	push	{r4, r5, lr}
f0001b18:	e1a05003 	mov	r5, r3
f0001b1c:	e59f3294 	ldr	r3, [pc, #660]	; f0001db8 <twi_byte_rw+0x2a4>
f0001b20:	e1a04000 	mov	r4, r0
f0001b24:	e1a00002 	mov	r0, r2
f0001b28:	e593c000 	ldr	ip, [r3]
f0001b2c:	e3a03000 	mov	r3, #0	; 0x0
f0001b30:	e58c301c 	str	r3, [ip, #28]
f0001b34:	e59c3010 	ldr	r3, [ip, #16]
f0001b38:	e6ef3073 	uxtb	r3, r3
f0001b3c:	e35300f8 	cmp	r3, #248	; 0xf8
f0001b40:	1a00007c 	bne	f0001d38 <twi_byte_rw+0x224>
f0001b44:	e59c300c 	ldr	r3, [ip, #12]
f0001b48:	e3a020ff 	mov	r2, #255	; 0xff
f0001b4c:	e3833020 	orr	r3, r3, #32	; 0x20
f0001b50:	e58c300c 	str	r3, [ip, #12]
f0001b54:	e59c300c 	ldr	r3, [ip, #12]
f0001b58:	e3130008 	tst	r3, #8	; 0x8
f0001b5c:	0a000002 	beq	f0001b6c <twi_byte_rw+0x58>
f0001b60:	e3520000 	cmp	r2, #0	; 0x0
f0001b64:	0a000073 	beq	f0001d38 <twi_byte_rw+0x224>
f0001b68:	ea000001 	b	f0001b74 <twi_byte_rw+0x60>
f0001b6c:	e2522001 	subs	r2, r2, #1	; 0x1
f0001b70:	2afffff7 	bcs	f0001b54 <twi_byte_rw+0x40>
f0001b74:	e59c3010 	ldr	r3, [ip, #16]
f0001b78:	e6ef3073 	uxtb	r3, r3
f0001b7c:	e3530008 	cmp	r3, #8	; 0x8
f0001b80:	1a00006c 	bne	f0001d38 <twi_byte_rw+0x224>
f0001b84:	e1a01081 	lsl	r1, r1, #1
f0001b88:	e58c1008 	str	r1, [ip, #8]
f0001b8c:	e59c300c 	ldr	r3, [ip, #12]
f0001b90:	e3a020ff 	mov	r2, #255	; 0xff
f0001b94:	e20330f7 	and	r3, r3, #247	; 0xf7
f0001b98:	e58c300c 	str	r3, [ip, #12]
f0001b9c:	e59c300c 	ldr	r3, [ip, #12]
f0001ba0:	e3130008 	tst	r3, #8	; 0x8
f0001ba4:	0a000002 	beq	f0001bb4 <twi_byte_rw+0xa0>
f0001ba8:	e3520000 	cmp	r2, #0	; 0x0
f0001bac:	0a000061 	beq	f0001d38 <twi_byte_rw+0x224>
f0001bb0:	ea000001 	b	f0001bbc <twi_byte_rw+0xa8>
f0001bb4:	e2522001 	subs	r2, r2, #1	; 0x1
f0001bb8:	2afffff7 	bcs	f0001b9c <twi_byte_rw+0x88>
f0001bbc:	e59c3010 	ldr	r3, [ip, #16]
f0001bc0:	e6ef3073 	uxtb	r3, r3
f0001bc4:	e3530018 	cmp	r3, #24	; 0x18
f0001bc8:	1a00005a 	bne	f0001d38 <twi_byte_rw+0x224>
f0001bcc:	e58c0008 	str	r0, [ip, #8]
f0001bd0:	e3a020ff 	mov	r2, #255	; 0xff
f0001bd4:	e59c300c 	ldr	r3, [ip, #12]
f0001bd8:	e20330f7 	and	r3, r3, #247	; 0xf7
f0001bdc:	e58c300c 	str	r3, [ip, #12]
f0001be0:	e59c300c 	ldr	r3, [ip, #12]
f0001be4:	e3130008 	tst	r3, #8	; 0x8
f0001be8:	0a000002 	beq	f0001bf8 <twi_byte_rw+0xe4>
f0001bec:	e3520000 	cmp	r2, #0	; 0x0
f0001bf0:	0a000050 	beq	f0001d38 <twi_byte_rw+0x224>
f0001bf4:	ea000001 	b	f0001c00 <twi_byte_rw+0xec>
f0001bf8:	e2522001 	subs	r2, r2, #1	; 0x1
f0001bfc:	2afffff7 	bcs	f0001be0 <twi_byte_rw+0xcc>
f0001c00:	e59c3010 	ldr	r3, [ip, #16]
f0001c04:	e6ef3073 	uxtb	r3, r3
f0001c08:	e3530028 	cmp	r3, #40	; 0x28
f0001c0c:	1a000049 	bne	f0001d38 <twi_byte_rw+0x224>
f0001c10:	e3540001 	cmp	r4, #1	; 0x1
f0001c14:	1a000011 	bne	f0001c60 <twi_byte_rw+0x14c>
f0001c18:	e5d53000 	ldrb	r3, [r5]
f0001c1c:	e3a020ff 	mov	r2, #255	; 0xff
f0001c20:	e58c3008 	str	r3, [ip, #8]
f0001c24:	e59c300c 	ldr	r3, [ip, #12]
f0001c28:	e20330f7 	and	r3, r3, #247	; 0xf7
f0001c2c:	e58c300c 	str	r3, [ip, #12]
f0001c30:	e59c300c 	ldr	r3, [ip, #12]
f0001c34:	e3130008 	tst	r3, #8	; 0x8
f0001c38:	0a000002 	beq	f0001c48 <twi_byte_rw+0x134>
f0001c3c:	e3520000 	cmp	r2, #0	; 0x0
f0001c40:	0a00003c 	beq	f0001d38 <twi_byte_rw+0x224>
f0001c44:	ea000001 	b	f0001c50 <twi_byte_rw+0x13c>
f0001c48:	e2522001 	subs	r2, r2, #1	; 0x1
f0001c4c:	2afffff7 	bcs	f0001c30 <twi_byte_rw+0x11c>
f0001c50:	e59c3010 	ldr	r3, [ip, #16]
f0001c54:	e6ef3073 	uxtb	r3, r3
f0001c58:	e3530028 	cmp	r3, #40	; 0x28
f0001c5c:	ea000033 	b	f0001d30 <twi_byte_rw+0x21c>
f0001c60:	e59c300c 	ldr	r3, [ip, #12]
f0001c64:	e3a020ff 	mov	r2, #255	; 0xff
f0001c68:	e20330c0 	and	r3, r3, #192	; 0xc0
f0001c6c:	e3833020 	orr	r3, r3, #32	; 0x20
f0001c70:	e58c300c 	str	r3, [ip, #12]
f0001c74:	e59c300c 	ldr	r3, [ip, #12]
f0001c78:	e3130008 	tst	r3, #8	; 0x8
f0001c7c:	0a000002 	beq	f0001c8c <twi_byte_rw+0x178>
f0001c80:	e3520000 	cmp	r2, #0	; 0x0
f0001c84:	0a00002b 	beq	f0001d38 <twi_byte_rw+0x224>
f0001c88:	ea000001 	b	f0001c94 <twi_byte_rw+0x180>
f0001c8c:	e2522001 	subs	r2, r2, #1	; 0x1
f0001c90:	2afffff7 	bcs	f0001c74 <twi_byte_rw+0x160>
f0001c94:	e59c3010 	ldr	r3, [ip, #16]
f0001c98:	e6ef3073 	uxtb	r3, r3
f0001c9c:	e3530010 	cmp	r3, #16	; 0x10
f0001ca0:	1a000024 	bne	f0001d38 <twi_byte_rw+0x224>
f0001ca4:	e3813001 	orr	r3, r1, #1	; 0x1
f0001ca8:	e58c3008 	str	r3, [ip, #8]
f0001cac:	e59c300c 	ldr	r3, [ip, #12]
f0001cb0:	e3a020ff 	mov	r2, #255	; 0xff
f0001cb4:	e20330f7 	and	r3, r3, #247	; 0xf7
f0001cb8:	e58c300c 	str	r3, [ip, #12]
f0001cbc:	e59c300c 	ldr	r3, [ip, #12]
f0001cc0:	e3130008 	tst	r3, #8	; 0x8
f0001cc4:	0a000002 	beq	f0001cd4 <twi_byte_rw+0x1c0>
f0001cc8:	e3520000 	cmp	r2, #0	; 0x0
f0001ccc:	0a000019 	beq	f0001d38 <twi_byte_rw+0x224>
f0001cd0:	ea000001 	b	f0001cdc <twi_byte_rw+0x1c8>
f0001cd4:	e2522001 	subs	r2, r2, #1	; 0x1
f0001cd8:	2afffff7 	bcs	f0001cbc <twi_byte_rw+0x1a8>
f0001cdc:	e59c3010 	ldr	r3, [ip, #16]
f0001ce0:	e6ef3073 	uxtb	r3, r3
f0001ce4:	e3530040 	cmp	r3, #64	; 0x40
f0001ce8:	1a000012 	bne	f0001d38 <twi_byte_rw+0x224>
f0001cec:	e59c300c 	ldr	r3, [ip, #12]
f0001cf0:	e3a020ff 	mov	r2, #255	; 0xff
f0001cf4:	e20330f7 	and	r3, r3, #247	; 0xf7
f0001cf8:	e58c300c 	str	r3, [ip, #12]
f0001cfc:	e59c300c 	ldr	r3, [ip, #12]
f0001d00:	e3130008 	tst	r3, #8	; 0x8
f0001d04:	0a000002 	beq	f0001d14 <twi_byte_rw+0x200>
f0001d08:	e3520000 	cmp	r2, #0	; 0x0
f0001d0c:	0a000009 	beq	f0001d38 <twi_byte_rw+0x224>
f0001d10:	ea000001 	b	f0001d1c <twi_byte_rw+0x208>
f0001d14:	e2522001 	subs	r2, r2, #1	; 0x1
f0001d18:	2afffff7 	bcs	f0001cfc <twi_byte_rw+0x1e8>
f0001d1c:	e59c3008 	ldr	r3, [ip, #8]
f0001d20:	e5c53000 	strb	r3, [r5]
f0001d24:	e59c3010 	ldr	r3, [ip, #16]
f0001d28:	e6ef3073 	uxtb	r3, r3
f0001d2c:	e3530058 	cmp	r3, #88	; 0x58
f0001d30:	03a00000 	moveq	r0, #0	; 0x0
f0001d34:	0a000000 	beq	f0001d3c <twi_byte_rw+0x228>
f0001d38:	e3e00000 	mvn	r0, #0	; 0x0
f0001d3c:	e59c300c 	ldr	r3, [ip, #12]
f0001d40:	e3a020ff 	mov	r2, #255	; 0xff
f0001d44:	e20330c0 	and	r3, r3, #192	; 0xc0
f0001d48:	e3833010 	orr	r3, r3, #16	; 0x10
f0001d4c:	e58c300c 	str	r3, [ip, #12]
f0001d50:	e59c300c 	ldr	r3, [ip, #12]
f0001d54:	e59c300c 	ldr	r3, [ip, #12]
f0001d58:	e3130010 	tst	r3, #16	; 0x10
f0001d5c:	1a000002 	bne	f0001d6c <twi_byte_rw+0x258>
f0001d60:	e3520000 	cmp	r2, #0	; 0x0
f0001d64:	08bd8030 	popeq	{r4, r5, pc}
f0001d68:	ea000001 	b	f0001d74 <twi_byte_rw+0x260>
f0001d6c:	e2522001 	subs	r2, r2, #1	; 0x1
f0001d70:	2afffff7 	bcs	f0001d54 <twi_byte_rw+0x240>
f0001d74:	e3a020ff 	mov	r2, #255	; 0xff
f0001d78:	e59c3010 	ldr	r3, [ip, #16]
f0001d7c:	e35300f8 	cmp	r3, #248	; 0xf8
f0001d80:	1a000002 	bne	f0001d90 <twi_byte_rw+0x27c>
f0001d84:	e3520000 	cmp	r2, #0	; 0x0
f0001d88:	08bd8030 	popeq	{r4, r5, pc}
f0001d8c:	ea000001 	b	f0001d98 <twi_byte_rw+0x284>
f0001d90:	e2522001 	subs	r2, r2, #1	; 0x1
f0001d94:	2afffff7 	bcs	f0001d78 <twi_byte_rw+0x264>
f0001d98:	e3a020ff 	mov	r2, #255	; 0xff
f0001d9c:	e59c3020 	ldr	r3, [ip, #32]
f0001da0:	e353003a 	cmp	r3, #58	; 0x3a
f0001da4:	08bd8030 	popeq	{r4, r5, pc}
f0001da8:	e3520000 	cmp	r2, #0	; 0x0
f0001dac:	e2422001 	sub	r2, r2, #1	; 0x1
f0001db0:	1afffff9 	bne	f0001d9c <twi_byte_rw+0x288>
f0001db4:	e8bd8030 	pop	{r4, r5, pc}
f0001db8:	f0002068 	.word	0xf0002068

f0001dbc <standby_twi_exit>:
f0001dbc:	e92d4010 	push	{r4, lr}
f0001dc0:	e59f4034 	ldr	r4, [pc, #52]	; f0001dfc <standby_twi_exit+0x40>
f0001dc4:	e3a0000a 	mov	r0, #10	; 0xa
f0001dc8:	e5942000 	ldr	r2, [r4]
f0001dcc:	e5923018 	ldr	r3, [r2, #24]
f0001dd0:	e3833001 	orr	r3, r3, #1	; 0x1
f0001dd4:	e5823018 	str	r3, [r2, #24]
f0001dd8:	ebfff96e 	bl	f0000398 <standby_mdelay>
f0001ddc:	e894000c 	ldm	r4, {r2, r3}
f0001de0:	e3a00000 	mov	r0, #0	; 0x0
f0001de4:	e5941008 	ldr	r1, [r4, #8]
f0001de8:	e5823014 	str	r3, [r2, #20]
f0001dec:	e592300c 	ldr	r3, [r2, #12]
f0001df0:	e1833001 	orr	r3, r3, r1
f0001df4:	e582300c 	str	r3, [r2, #12]
f0001df8:	e8bd8010 	pop	{r4, pc}
f0001dfc:	f0002068 	.word	0xf0002068

f0001e00 <standby_usb_init>:
f0001e00:	e3a00000 	mov	r0, #0	; 0x0
f0001e04:	e12fff1e 	bx	lr

f0001e08 <standby_usb_exit>:
f0001e08:	e3a00000 	mov	r0, #0	; 0x0
f0001e0c:	e12fff1e 	bx	lr

f0001e10 <standby_is_usb_status_change>:
f0001e10:	e3a00000 	mov	r0, #0	; 0x0
f0001e14:	e12fff1e 	bx	lr

f0001e18 <standby_query_usb_event>:
f0001e18:	e3e00000 	mvn	r0, #0	; 0x0
f0001e1c:	e12fff1e 	bx	lr

f0001e20 <standby_delay>:
f0001e20:	e2500001 	subs	r0, r0, #1	; 0x1
f0001e24:	8afffffd 	bhi	f0001e20 <standby_delay>
f0001e28:	e1a0f00e 	mov	pc, lr

Disassembly of section .rodata:

f0001e2c <axp20_ldo4_data>:
f0001e2c:	000004e2 	.word	0x000004e2
f0001e30:	00000514 	.word	0x00000514
f0001e34:	00000578 	.word	0x00000578
f0001e38:	000005dc 	.word	0x000005dc
f0001e3c:	00000640 	.word	0x00000640
f0001e40:	000006a4 	.word	0x000006a4
f0001e44:	00000708 	.word	0x00000708
f0001e48:	0000076c 	.word	0x0000076c
f0001e4c:	000007d0 	.word	0x000007d0
f0001e50:	000009c4 	.word	0x000009c4
f0001e54:	00000a8c 	.word	0x00000a8c
f0001e58:	00000af0 	.word	0x00000af0
f0001e5c:	00000bb8 	.word	0x00000bb8
f0001e60:	00000c1c 	.word	0x00000c1c
f0001e64:	00000c80 	.word	0x00000c80
f0001e68:	00000ce4 	.word	0x00000ce4

f0001e6c <TWI_REG_BASE>:
f0001e6c:	f1c2ac00 	.word	0xf1c2ac00
f0001e70:	f1c2b000 	.word	0xf1c2b000
f0001e74:	f1c2b400 	.word	0xf1c2b400

Disassembly of section .data:

f0001e78 <hpcr_value>:
f0001e78:	00000301 	.word	0x00000301
f0001e7c:	00000301 	.word	0x00000301
f0001e80:	00000301 	.word	0x00000301
f0001e84:	00000301 	.word	0x00000301
f0001e88:	00000301 	.word	0x00000301
f0001e8c:	00000301 	.word	0x00000301
	...
f0001eb8:	00001031 	.word	0x00001031
f0001ebc:	00001031 	.word	0x00001031
f0001ec0:	00000735 	.word	0x00000735
f0001ec4:	00001035 	.word	0x00001035
f0001ec8:	00001035 	.word	0x00001035
f0001ecc:	00000731 	.word	0x00000731
f0001ed0:	00001031 	.word	0x00001031
f0001ed4:	00000735 	.word	0x00000735
f0001ed8:	00001035 	.word	0x00001035
f0001edc:	00001031 	.word	0x00001031
f0001ee0:	00000731 	.word	0x00000731
f0001ee4:	00001035 	.word	0x00001035
f0001ee8:	00001031 	.word	0x00001031
f0001eec:	00000301 	.word	0x00000301
f0001ef0:	00000301 	.word	0x00000301
f0001ef4:	00000731 	.word	0x00000731

f0001ef8 <axp20_info>:
f0001ef8:	00000003 	.word	0x00000003
f0001efc:	00000514 	.word	0x00000514
f0001f00:	00000514 	.word	0x00000514
	...
f0001f14:	00000004 	.word	0x00000004
f0001f18:	00000708 	.word	0x00000708
f0001f1c:	00000ce4 	.word	0x00000ce4
f0001f20:	00000064 	.word	0x00000064
f0001f24:	00000028 	.word	0x00000028
f0001f28:	00000004 	.word	0x00000004
f0001f2c:	00000004 	.word	0x00000004
f0001f30:	00000005 	.word	0x00000005
f0001f34:	000002bc 	.word	0x000002bc
f0001f38:	00000dac 	.word	0x00000dac
f0001f3c:	00000019 	.word	0x00000019
f0001f40:	00000029 	.word	0x00000029
f0001f44:	00000000 	.word	0x00000000
f0001f48:	00000007 	.word	0x00000007
f0001f4c:	00000006 	.word	0x00000006
f0001f50:	000004e2 	.word	0x000004e2
f0001f54:	00000ce4 	.word	0x00000ce4
f0001f58:	00000064 	.word	0x00000064
f0001f5c:	00000028 	.word	0x00000028
f0001f60:	00000000 	.word	0x00000000
f0001f64:	00000004 	.word	0x00000004
f0001f68:	00000001 	.word	0x00000001
f0001f6c:	000002bc 	.word	0x000002bc
f0001f70:	000008e3 	.word	0x000008e3
f0001f74:	00000019 	.word	0x00000019
f0001f78:	00000023 	.word	0x00000023
f0001f7c:	00000000 	.word	0x00000000
f0001f80:	00000006 	.word	0x00000006
f0001f84:	00000002 	.word	0x00000002
f0001f88:	000002bc 	.word	0x000002bc
f0001f8c:	00000dac 	.word	0x00000dac
f0001f90:	00000019 	.word	0x00000019
f0001f94:	00000027 	.word	0x00000027
f0001f98:	00000000 	.word	0x00000000
f0001f9c:	00000007 	.word	0x00000007

Disassembly of section .bss:

f0001fa0 <dram_traning_area_back>:
	...

f0001fe0 <sp_backup>:
f0001fe0:	00000000 	.word	0x00000000

f0001fe4 <dcdc2>:
f0001fe4:	00000000 	.word	0x00000000

f0001fe8 <dcdc3>:
f0001fe8:	00000000 	.word	0x00000000

f0001fec <clk_div>:
f0001fec:	00000000 	.word	0x00000000

f0001ff0 <tmp_clk_div>:
f0001ff0:	00000000 	.word	0x00000000

f0001ff4 <CmuReg>:
f0001ff4:	00000000 	.word	0x00000000

f0001ff8 <ccu_reg_back>:
	...

f0002014 <IntcReg>:
f0002014:	00000000 	.word	0x00000000

f0002018 <IrqEnReg>:
	...

f0002024 <IrqMaskReg>:
	...

f0002030 <IrqSelReg>:
	...

f000203c <KeyReg>:
f000203c:	00000000 	.word	0x00000000

f0002040 <KeyCtrl>:
f0002040:	00000000 	.word	0x00000000

f0002044 <KeyIntc>:
f0002044:	00000000 	.word	0x00000000

f0002048 <TmrReg>:
f0002048:	00000000 	.word	0x00000000

f000204c <Tmr0IntVal>:
f000204c:	00000000 	.word	0x00000000

f0002050 <Tmr0CntVal>:
f0002050:	00000000 	.word	0x00000000

f0002054 <Tmr0Ctl>:
f0002054:	00000000 	.word	0x00000000

f0002058 <Tmr1IntVal>:
f0002058:	00000000 	.word	0x00000000

f000205c <Tmr1CntVal>:
f000205c:	00000000 	.word	0x00000000

f0002060 <Tmr1Ctl>:
f0002060:	00000000 	.word	0x00000000

f0002064 <TmrIntCtl>:
f0002064:	00000000 	.word	0x00000000

f0002068 <twi_reg>:
f0002068:	00000000 	.word	0x00000000

f000206c <TwiClkRegBak>:
f000206c:	00000000 	.word	0x00000000

f0002070 <TwiCtlRegBak>:
f0002070:	00000000 	.word	0x00000000

f0002074 <pm_info>:
	...

f0002084 <cpu_ms_loopcnt>:
f0002084:	00000000 	.word	0x00000000

Disassembly of section .debug_abbrev:

00000000 <.debug_abbrev>:
   0:	25011101 	strcs	r1, [r1, #-257]
   4:	030b130e 	movweq	r1, #45838	; 0xb30e
   8:	110e1b0e 	tstne	lr, lr, lsl #22
   c:	10011201 	andne	r1, r1, r1, lsl #4
  10:	02000006 	andeq	r0, r0, #6	; 0x6
  14:	0e030113 	mcreq	1, 0, r0, cr3, cr3, {0}
  18:	0b3a0b0b 	bleq	e82c4c <__standby_start+0xe82c4c>
  1c:	13010b3b 	movwne	r0, #6971	; 0x1b3b
  20:	0d030000 	stceq	0, cr0, [r3]
  24:	3a0e0300 	bcc	380c2c <__standby_start+0x380c2c>
  28:	490b3b0b 	stmdbmi	fp, {r0, r1, r3, r8, r9, fp, ip, sp}
  2c:	000a3813 	andeq	r3, sl, r3, lsl r8
  30:	00240400 	eoreq	r0, r4, r0, lsl #8
  34:	0b3e0b0b 	bleq	f82c68 <__standby_start+0xf82c68>
  38:	00000e03 	andeq	r0, r0, r3, lsl #28
  3c:	0b002405 	bleq	9058 <__standby_start+0x9058>
  40:	030b3e0b 	movweq	r3, #48651	; 0xbe0b
  44:	06000008 	streq	r0, [r0], -r8
  48:	0e030016 	mcreq	0, 0, r0, cr3, cr6, {0}
  4c:	0b3b0b3a 	bleq	ec2d3c <__standby_start+0xec2d3c>
  50:	00001349 	andeq	r1, r0, r9, asr #6
  54:	0b002407 	bleq	9078 <__standby_start+0x9078>
  58:	000b3e0b 	andeq	r3, fp, fp, lsl #28
  5c:	000d0800 	andeq	r0, sp, r0, lsl #16
  60:	0b3a0e03 	bleq	e83874 <__standby_start+0xe83874>
  64:	13490b3b 	movtne	r0, #39739	; 0x9b3b
  68:	0b0d0b0b 	bleq	342c9c <__standby_start+0x342c9c>
  6c:	0a380b0c 	beq	e02ca4 <__standby_start+0xe02ca4>
  70:	04090000 	streq	r0, [r9]
  74:	0b0e0301 	bleq	380c80 <__standby_start+0x380c80>
  78:	3b0b3a0b 	blcc	2ce8ac <__standby_start+0x2ce8ac>
  7c:	0013010b 	andseq	r0, r3, fp, lsl #2
  80:	00280a00 	eoreq	r0, r8, r0, lsl #20
  84:	0d1c0e03 	ldceq	14, cr0, [ip, #-12]
  88:	2e0b0000 	cdpcs	0, 0, cr0, cr11, cr0, {0}
  8c:	3a0e0300 	bcc	380c94 <__standby_start+0x380c94>
  90:	270b3b0b 	strcs	r3, [fp, -fp, lsl #22]
  94:	000b200c 	andeq	r2, fp, ip
  98:	012e0c00 	teqeq	lr, r0, lsl #24
  9c:	0e030c3f 	mcreq	12, 0, r0, cr3, cr15, {1}
  a0:	0b3b0b3a 	bleq	ec2d90 <__standby_start+0xec2d90>
  a4:	13490c27 	movtne	r0, #39975	; 0x9c27
  a8:	01120111 	tsteq	r2, r1, lsl r1
  ac:	13010640 	movwne	r0, #5696	; 0x1640
  b0:	050d0000 	streq	r0, [sp]
  b4:	3a080300 	bcc	200cbc <__standby_start+0x200cbc>
  b8:	490b3b0b 	stmdbmi	fp, {r0, r1, r3, r8, r9, fp, ip, sp}
  bc:	00060213 	andeq	r0, r6, r3, lsl r2
  c0:	00340e00 	eorseq	r0, r4, r0, lsl #28
  c4:	0b3a0e03 	bleq	e838d8 <__standby_start+0xe838d8>
  c8:	13490b3b 	movtne	r0, #39739	; 0x9b3b
  cc:	00000602 	andeq	r0, r0, r2, lsl #12
  d0:	31001d0f 	tstcc	r0, pc, lsl #26
  d4:	12011113 	andne	r1, r1, #-1073741820	; 0xc0000004
  d8:	590b5801 	stmdbpl	fp, {r0, fp, ip, lr}
  dc:	1000000b 	andne	r0, r0, fp
  e0:	0b0b000f 	bleq	2c0124 <__standby_start+0x2c0124>
  e4:	00001349 	andeq	r1, r0, r9, asr #6
  e8:	03003411 	movweq	r3, #1041	; 0x411
  ec:	3b0b3a0e 	blcc	2ce92c <__standby_start+0x2ce92c>
  f0:	0213490b 	andseq	r4, r3, #180224	; 0x2c000
  f4:	1200000a 	andne	r0, r0, #10	; 0xa
  f8:	13490101 	movtne	r0, #37121	; 0x9101
  fc:	00001301 	andeq	r1, r0, r1, lsl #6
 100:	49002113 	stmdbmi	r0, {r0, r1, r4, r8, sp}
 104:	000b2f13 	andeq	r2, fp, r3, lsl pc
 108:	00341400 	eorseq	r1, r4, r0, lsl #8
 10c:	0b3a0e03 	bleq	e83920 <__standby_start+0xe83920>
 110:	13490b3b 	movtne	r0, #39739	; 0x9b3b
 114:	0a020c3f 	beq	83218 <__standby_start+0x83218>
 118:	34150000 	ldrcc	r0, [r5]
 11c:	3a0e0300 	bcc	380d24 <__standby_start+0x380d24>
 120:	490b3b0b 	stmdbmi	fp, {r0, r1, r3, r8, r9, fp, ip, sp}
 124:	3c0c3f13 	stccc	15, cr3, [ip], {19}
 128:	0000000c 	andeq	r0, r0, ip
 12c:	25011101 	strcs	r1, [r1, #-257]
 130:	030b130e 	movweq	r1, #45838	; 0xb30e
 134:	110e1b0e 	tstne	lr, lr, lsl #22
 138:	10011201 	andne	r1, r1, r1, lsl #4
 13c:	02000006 	andeq	r0, r0, #6	; 0x6
 140:	0b0b0024 	bleq	2c01d8 <__standby_start+0x2c01d8>
 144:	0e030b3e 	vmoveq.16	d3[0], r0
 148:	24030000 	strcs	r0, [r3]
 14c:	3e0b0b00 	vmlacc.f64	d0, d11, d0
 150:	0008030b 	andeq	r0, r8, fp, lsl #6
 154:	00160400 	andseq	r0, r6, r0, lsl #8
 158:	0b3a0e03 	bleq	e8396c <__standby_start+0xe8396c>
 15c:	13490b3b 	movtne	r0, #39739	; 0x9b3b
 160:	24050000 	strcs	r0, [r5]
 164:	3e0b0b00 	vmlacc.f64	d0, d11, d0
 168:	0600000b 	streq	r0, [r0], -fp
 16c:	0c3f012e 	ldfeqs	f0, [pc], #-184
 170:	0b3a0e03 	bleq	e83984 <__standby_start+0xe83984>
 174:	0c270b3b 	stceq	11, cr0, [r7], #-236
 178:	01120111 	tsteq	r2, r1, lsl r1
 17c:	13010a40 	movwne	r0, #6720	; 0x1a40
 180:	05070000 	streq	r0, [r7]
 184:	3a0e0300 	bcc	380d8c <__standby_start+0x380d8c>
 188:	490b3b0b 	stmdbmi	fp, {r0, r1, r3, r8, r9, fp, ip, sp}
 18c:	000a0213 	andeq	r0, sl, r3, lsl r2
 190:	00050800 	andeq	r0, r5, r0, lsl #16
 194:	0b3a0803 	bleq	e821a8 <__standby_start+0xe821a8>
 198:	13490b3b 	movtne	r0, #39739	; 0x9b3b
 19c:	00000a02 	andeq	r0, r0, r2, lsl #20
 1a0:	03003409 	movweq	r3, #1033	; 0x409
 1a4:	3b0b3a0e 	blcc	2ce9e4 <__standby_start+0x2ce9e4>
 1a8:	0013490b 	andseq	r4, r3, fp, lsl #18
 1ac:	000f0a00 	andeq	r0, pc, r0, lsl #20
 1b0:	00000b0b 	andeq	r0, r0, fp, lsl #22
 1b4:	0b000f0b 	bleq	3de8 <__standby_start+0x3de8>
 1b8:	0013490b 	andseq	r4, r3, fp, lsl #18
 1bc:	00050c00 	andeq	r0, r5, r0, lsl #24
 1c0:	0b3a0803 	bleq	e821d4 <__standby_start+0xe821d4>
 1c4:	13490b3b 	movtne	r0, #39739	; 0x9b3b
 1c8:	00000602 	andeq	r0, r0, r2, lsl #12
 1cc:	0300340d 	movweq	r3, #1037	; 0x40d
 1d0:	3b0b3a0e 	blcc	2cea10 <__standby_start+0x2cea10>
 1d4:	3f13490b 	svccc	0x0013490b
 1d8:	000c3c0c 	andeq	r3, ip, ip, lsl #24
 1dc:	11010000 	tstne	r1, r0
 1e0:	11061000 	tstne	r6, r0
 1e4:	03011201 	movweq	r1, #4609	; 0x1201
 1e8:	25081b08 	strcs	r1, [r8, #-2824]
 1ec:	00051308 	andeq	r1, r5, r8, lsl #6
 1f0:	11010000 	tstne	r1, r0
 1f4:	130e2501 	movwne	r2, #58625	; 0xe501
 1f8:	1b0e030b 	blne	380e2c <__standby_start+0x380e2c>
 1fc:	1201110e 	andne	r1, r1, #-2147483645	; 0x80000003
 200:	00061001 	andeq	r1, r6, r1
 204:	00240200 	eoreq	r0, r4, r0, lsl #4
 208:	0b3e0b0b 	bleq	f82e3c <__standby_start+0xf82e3c>
 20c:	00000e03 	andeq	r0, r0, r3, lsl #28
 210:	0b002403 	bleq	9224 <__standby_start+0x9224>
 214:	030b3e0b 	movweq	r3, #48651	; 0xbe0b
 218:	04000008 	streq	r0, [r0], #-8
 21c:	0e030016 	mcreq	0, 0, r0, cr3, cr6, {0}
 220:	0b3b0b3a 	bleq	ec2f10 <__standby_start+0xec2f10>
 224:	00001349 	andeq	r1, r0, r9, asr #6
 228:	03011305 	movweq	r1, #4869	; 0x1305
 22c:	3a0b0b0e 	bcc	2c2e6c <__standby_start+0x2c2e6c>
 230:	010b3b0b 	tsteq	fp, fp, lsl #22
 234:	06000013 	undefined
 238:	0e03000d 	cdpeq	0, 0, cr0, cr3, cr13, {0}
 23c:	0b3b0b3a 	bleq	ec2f2c <__standby_start+0xec2f2c>
 240:	0b0b1349 	bleq	2c4f6c <__standby_start+0x2c4f6c>
 244:	0b0c0b0d 	bleq	302e80 <__standby_start+0x302e80>
 248:	00000a38 	andeq	r0, r0, r8, lsr sl
 24c:	03000d07 	movweq	r0, #3335	; 0xd07
 250:	3b0b3a0e 	blcc	2cea90 <__standby_start+0x2cea90>
 254:	0b134905 	bleq	4d2670 <__standby_start+0x4d2670>
 258:	0c0b0d0b 	stceq	13, cr0, [fp], {11}
 25c:	000a380b 	andeq	r3, sl, fp, lsl #16
 260:	00160800 	andseq	r0, r6, r0, lsl #16
 264:	0b3a0e03 	bleq	e83a78 <__standby_start+0xe83a78>
 268:	1349053b 	movtne	r0, #38203	; 0x953b
 26c:	13090000 	movwne	r0, #36864	; 0x9000
 270:	0b0e0301 	bleq	380e7c <__standby_start+0x380e7c>
 274:	3b0b3a0b 	blcc	2ceaa8 <__standby_start+0x2ceaa8>
 278:	00130105 	andseq	r0, r3, r5, lsl #2
 27c:	01130a00 	tsteq	r3, r0, lsl #20
 280:	050b0e03 	streq	r0, [fp, #-3587]
 284:	053b0b3a 	ldreq	r0, [fp, #-2874]!
 288:	00001301 	andeq	r1, r0, r1, lsl #6
 28c:	03000d0b 	movweq	r0, #3339	; 0xd0b
 290:	3b0b3a0e 	blcc	2cead0 <__standby_start+0x2cead0>
 294:	38134905 	ldmdacc	r3, {r0, r2, r8, fp, lr}
 298:	0c00000a 	stceq	0, cr0, [r0], {10}
 29c:	13490035 	movtne	r0, #36917	; 0x9035
 2a0:	010d0000 	tsteq	sp, r0
 2a4:	01134901 	tsteq	r3, r1, lsl #18
 2a8:	0e000013 	mcreq	0, 0, r0, cr0, cr3, {0}
 2ac:	13490021 	movtne	r0, #36897	; 0x9021
 2b0:	00000b2f 	andeq	r0, r0, pc, lsr #22
 2b4:	0b00240f 	bleq	92f8 <__standby_start+0x92f8>
 2b8:	000b3e0b 	andeq	r3, fp, fp, lsl #28
 2bc:	002e1000 	eoreq	r1, lr, r0
 2c0:	0e030c3f 	mcreq	12, 0, r0, cr3, cr15, {1}
 2c4:	0b3b0b3a 	bleq	ec2fb4 <__standby_start+0xec2fb4>
 2c8:	13490c27 	movtne	r0, #39975	; 0x9c27
 2cc:	01120111 	tsteq	r2, r1, lsl r1
 2d0:	00000640 	andeq	r0, r0, r0, asr #12
 2d4:	3f002e11 	svccc	0x00002e11
 2d8:	3a0e030c 	bcc	380f10 <__standby_start+0x380f10>
 2dc:	270b3b0b 	strcs	r3, [fp, -fp, lsl #22]
 2e0:	1113490c 	tstne	r3, ip, lsl #18
 2e4:	40011201 	andmi	r1, r1, r1, lsl #4
 2e8:	1200000a 	andne	r0, r0, #10	; 0xa
 2ec:	0c3f002e 	ldceq	0, cr0, [pc], #-184
 2f0:	0b3a0e03 	bleq	e83b04 <__standby_start+0xe83b04>
 2f4:	0c27053b 	cfstr32eq	mvfx0, [r7], #-236
 2f8:	01111349 	tsteq	r1, r9, asr #6
 2fc:	0a400112 	beq	100074c <__standby_start+0x100074c>
 300:	2e130000 	wxorcs	wr0, wr3, wr0
 304:	030c3f01 	movweq	r3, #52993	; 0xcf01
 308:	3b0b3a0e 	blcc	2ceb48 <__standby_start+0x2ceb48>
 30c:	490c2705 	stmdbmi	ip, {r0, r2, r8, r9, sl, sp}
 310:	12011113 	andne	r1, r1, #-1073741820	; 0xc0000004
 314:	010a4001 	tsteq	sl, r1
 318:	14000013 	strne	r0, [r0], #-19
 31c:	0e030005 	cdpeq	0, 0, cr0, cr3, cr5, {0}
 320:	053b0b3a 	ldreq	r0, [fp, #-2874]!
 324:	06021349 	streq	r1, [r2], -r9, asr #6
 328:	0f150000 	svceq	0x00150000
 32c:	490b0b00 	stmdbmi	fp, {r8, r9, fp}
 330:	16000013 	undefined
 334:	0c3f012e 	ldfeqs	f0, [pc], #-184
 338:	0b3a0e03 	bleq	e83b4c <__standby_start+0xe83b4c>
 33c:	0c27053b 	cfstr32eq	mvfx0, [r7], #-236
 340:	01120111 	tsteq	r2, r1, lsl r1
 344:	13010a40 	movwne	r0, #6720	; 0x1a40
 348:	05170000 	ldreq	r0, [r7]
 34c:	3a0e0300 	bcc	380f54 <__standby_start+0x380f54>
 350:	49053b0b 	stmdbmi	r5, {r0, r1, r3, r8, r9, fp, ip, sp}
 354:	000a0213 	andeq	r0, sl, r3, lsl r2
 358:	00341800 	eorseq	r1, r4, r0, lsl #16
 35c:	0b3a0e03 	bleq	e83b70 <__standby_start+0xe83b70>
 360:	13490b3b 	movtne	r0, #39739	; 0x9b3b
 364:	00000a02 	andeq	r0, r0, r2, lsl #20
 368:	03003419 	movweq	r3, #1049	; 0x419
 36c:	3b0b3a0e 	blcc	2cebac <__standby_start+0x2cebac>
 370:	3f13490b 	svccc	0x0013490b
 374:	000a020c 	andeq	r0, sl, ip, lsl #4
 378:	11010000 	tstne	r1, r0
 37c:	130e2501 	movwne	r2, #58625	; 0xe501
 380:	1b0e030b 	blne	380fb4 <__standby_start+0x380fb4>
 384:	1201110e 	andne	r1, r1, #-2147483645	; 0x80000003
 388:	00061001 	andeq	r1, r6, r1
 38c:	00240200 	eoreq	r0, r4, r0, lsl #4
 390:	0b3e0b0b 	bleq	f82fc4 <__standby_start+0xf82fc4>
 394:	00000e03 	andeq	r0, r0, r3, lsl #28
 398:	0b002403 	bleq	93ac <__standby_start+0x93ac>
 39c:	000b3e0b 	andeq	r3, fp, fp, lsl #28
 3a0:	00240400 	eoreq	r0, r4, r0, lsl #8
 3a4:	0b3e0b0b 	bleq	f82fd8 <__standby_start+0xf82fd8>
 3a8:	00000803 	andeq	r0, r0, r3, lsl #16
 3ac:	03001605 	movweq	r1, #1541	; 0x605
 3b0:	3b0b3a0e 	blcc	2cebf0 <__standby_start+0x2cebf0>
 3b4:	0013490b 	andseq	r4, r3, fp, lsl #18
 3b8:	012e0600 	teqeq	lr, r0, lsl #12
 3bc:	0e030c3f 	mcreq	12, 0, r0, cr3, cr15, {1}
 3c0:	0b3b0b3a 	bleq	ec30b0 <__standby_start+0xec30b0>
 3c4:	01110c27 	tsteq	r1, r7, lsr #24
 3c8:	0a400112 	beq	1000818 <__standby_start+0x1000818>
 3cc:	00001301 	andeq	r1, r0, r1, lsl #6
 3d0:	03000507 	movweq	r0, #1287	; 0x507
 3d4:	3b0b3a0e 	blcc	2cec14 <__standby_start+0x2cec14>
 3d8:	0213490b 	andseq	r4, r3, #180224	; 0x2c000
 3dc:	0800000a 	stmdaeq	r0, {r1, r3}
 3e0:	08030005 	stmdaeq	r3, {r0, r2}
 3e4:	0b3b0b3a 	bleq	ec30d4 <__standby_start+0xec30d4>
 3e8:	0a021349 	beq	85114 <__standby_start+0x85114>
 3ec:	34090000 	strcc	r0, [r9]
 3f0:	3a0e0300 	bcc	380ff8 <__standby_start+0x380ff8>
 3f4:	490b3b0b 	stmdbmi	fp, {r0, r1, r3, r8, r9, fp, ip, sp}
 3f8:	000a0213 	andeq	r0, sl, r3, lsl r2
 3fc:	012e0a00 	teqeq	lr, r0, lsl #20
 400:	0e030c3f 	mcreq	12, 0, r0, cr3, cr15, {1}
 404:	0b3b0b3a 	bleq	ec30f4 <__standby_start+0xec30f4>
 408:	13490c27 	movtne	r0, #39975	; 0x9c27
 40c:	01120111 	tsteq	r2, r1, lsl r1
 410:	13010a40 	movwne	r0, #6720	; 0x1a40
 414:	050b0000 	streq	r0, [fp]
 418:	3a0e0300 	bcc	381020 <__standby_start+0x381020>
 41c:	490b3b0b 	stmdbmi	fp, {r0, r1, r3, r8, r9, fp, ip, sp}
 420:	00060213 	andeq	r0, r6, r3, lsl r2
 424:	00340c00 	eorseq	r0, r4, r0, lsl #24
 428:	0b3a0e03 	bleq	e83c3c <__standby_start+0xe83c3c>
 42c:	13490b3b 	movtne	r0, #39739	; 0x9b3b
 430:	00000602 	andeq	r0, r0, r2, lsl #12
 434:	3f012e0d 	svccc	0x00012e0d
 438:	3a0e030c 	bcc	381070 <__standby_start+0x381070>
 43c:	270b3b0b 	strcs	r3, [fp, -fp, lsl #22]
 440:	1201110c 	andne	r1, r1, #3	; 0x3
 444:	01064001 	tsteq	r6, r1
 448:	0e000013 	mcreq	0, 0, r0, cr0, cr3, {0}
 44c:	0c3f012e 	ldfeqs	f0, [pc], #-184
 450:	0b3a0e03 	bleq	e83c64 <__standby_start+0xe83c64>
 454:	0c27053b 	cfstr32eq	mvfx0, [r7], #-236
 458:	01120111 	tsteq	r2, r1, lsl r1
 45c:	13010a40 	movwne	r0, #6720	; 0x1a40
 460:	050f0000 	streq	r0, [pc, #0]	; 468 <__standby_start+0x468>
 464:	3a0e0300 	bcc	38106c <__standby_start+0x38106c>
 468:	49053b0b 	stmdbmi	r5, {r0, r1, r3, r8, r9, fp, ip, sp}
 46c:	00060213 	andeq	r0, r6, r3, lsl r2
 470:	00051000 	andeq	r1, r5, r0
 474:	0b3a0803 	bleq	e82488 <__standby_start+0xe82488>
 478:	1349053b 	movtne	r0, #38203	; 0x953b
 47c:	00000602 	andeq	r0, r0, r2, lsl #12
 480:	3f012e11 	svccc	0x00012e11
 484:	3a0e030c 	bcc	3810bc <__standby_start+0x3810bc>
 488:	27053b0b 	strcs	r3, [r5, -fp, lsl #22]
 48c:	1113490c 	tstne	r3, ip, lsl #18
 490:	40011201 	andmi	r1, r1, r1, lsl #4
 494:	0013010a 	andseq	r0, r3, sl, lsl #2
 498:	012e1200 	teqeq	lr, r0, lsl #4
 49c:	0e030c3f 	mcreq	12, 0, r0, cr3, cr15, {1}
 4a0:	0b3b0b3a 	bleq	ec3190 <__standby_start+0xec3190>
 4a4:	13490c27 	movtne	r0, #39975	; 0x9c27
 4a8:	01120111 	tsteq	r2, r1, lsl r1
 4ac:	13010640 	movwne	r0, #5696	; 0x1640
 4b0:	34130000 	ldrcc	r0, [r3]
 4b4:	3a080300 	bcc	2010bc <__standby_start+0x2010bc>
 4b8:	490b3b0b 	stmdbmi	fp, {r0, r1, r3, r8, r9, fp, ip, sp}
 4bc:	14000013 	strne	r0, [r0], #-19
 4c0:	0c3f002e 	ldceq	0, cr0, [pc], #-184
 4c4:	0b3a0e03 	bleq	e83cd8 <__standby_start+0xe83cd8>
 4c8:	0c27053b 	cfstr32eq	mvfx0, [r7], #-236
 4cc:	01120111 	tsteq	r2, r1, lsl r1
 4d0:	00000a40 	andeq	r0, r0, r0, asr #20
 4d4:	3f002e15 	svccc	0x00002e15
 4d8:	3a0e030c 	bcc	381110 <__standby_start+0x381110>
 4dc:	270b3b0b 	strcs	r3, [fp, -fp, lsl #22]
 4e0:	1201110c 	andne	r1, r1, #3	; 0x3
 4e4:	000a4001 	andeq	r4, sl, r1
 4e8:	00341600 	eorseq	r1, r4, r0, lsl #12
 4ec:	0b3a0803 	bleq	e82500 <__standby_start+0xe82500>
 4f0:	13490b3b 	movtne	r0, #39739	; 0x9b3b
 4f4:	00000a02 	andeq	r0, r0, r2, lsl #20
 4f8:	03003417 	movweq	r3, #1047	; 0x417
 4fc:	3b0b3a08 	blcc	2ced24 <__standby_start+0x2ced24>
 500:	0213490b 	andseq	r4, r3, #180224	; 0x2c000
 504:	18000006 	stmdane	r0, {r1, r2}
 508:	0c3f012e 	ldfeqs	f0, [pc], #-184
 50c:	0b3a0e03 	bleq	e83d20 <__standby_start+0xe83d20>
 510:	0c27053b 	cfstr32eq	mvfx0, [r7], #-236
 514:	01120111 	tsteq	r2, r1, lsl r1
 518:	13010640 	movwne	r0, #5696	; 0x1640
 51c:	34190000 	ldrcc	r0, [r9]
 520:	3a0e0300 	bcc	381128 <__standby_start+0x381128>
 524:	49053b0b 	stmdbmi	r5, {r0, r1, r3, r8, r9, fp, ip, sp}
 528:	1a000013 	bne	57c <__standby_start+0x57c>
 52c:	0c3f012e 	ldfeqs	f0, [pc], #-184
 530:	0b3a0e03 	bleq	e83d44 <__standby_start+0xe83d44>
 534:	0c27053b 	cfstr32eq	mvfx0, [r7], #-236
 538:	01111349 	tsteq	r1, r9, asr #6
 53c:	06400112 	undefined
 540:	00001301 	andeq	r1, r0, r1, lsl #6
 544:	0300341b 	movweq	r3, #1051	; 0x41b
 548:	3b0b3a08 	blcc	2ced70 <__standby_start+0x2ced70>
 54c:	00134905 	andseq	r4, r3, r5, lsl #18
 550:	00341c00 	eorseq	r1, r4, r0, lsl #24
 554:	0b3a0e03 	bleq	e83d68 <__standby_start+0xe83d68>
 558:	1349053b 	movtne	r0, #38203	; 0x953b
 55c:	00000602 	andeq	r0, r0, r2, lsl #12
 560:	0300341d 	movweq	r3, #1053	; 0x41d
 564:	3b0b3a0e 	blcc	2ceda4 <__standby_start+0x2ceda4>
 568:	02134905 	andseq	r4, r3, #81920	; 0x14000
 56c:	1e00000a 	cdpne	0, 0, cr0, cr0, cr10, {0}
 570:	0c3f012e 	ldfeqs	f0, [pc], #-184
 574:	0b3a0e03 	bleq	e83d88 <__standby_start+0xe83d88>
 578:	0c27053b 	cfstr32eq	mvfx0, [r7], #-236
 57c:	01111349 	tsteq	r1, r9, asr #6
 580:	06400112 	undefined
 584:	01000000 	tsteq	r0, r0
 588:	0e250111 	mcreq	1, 1, r0, cr5, cr1, {0}
 58c:	0e030b13 	vmoveq.32	d3[0], r0
 590:	01110e1b 	tsteq	r1, fp, lsl lr
 594:	06100112 	undefined
 598:	24020000 	strcs	r0, [r2]
 59c:	3e0b0b00 	vmlacc.f64	d0, d11, d0
 5a0:	000e030b 	andeq	r0, lr, fp, lsl #6
 5a4:	00240300 	eoreq	r0, r4, r0, lsl #6
 5a8:	0b3e0b0b 	bleq	f831dc <__standby_start+0xf831dc>
 5ac:	13040000 	movwne	r0, #16384	; 0x4000
 5b0:	0b0e0301 	bleq	3811bc <__standby_start+0x3811bc>
 5b4:	3b0b3a0b 	blcc	2cede8 <__standby_start+0x2cede8>
 5b8:	0013010b 	andseq	r0, r3, fp, lsl #2
 5bc:	000d0500 	andeq	r0, sp, r0, lsl #10
 5c0:	0b3a0e03 	bleq	e83dd4 <__standby_start+0xe83dd4>
 5c4:	13490b3b 	movtne	r0, #39739	; 0x9b3b
 5c8:	00000a38 	andeq	r0, r0, r8, lsr sl
 5cc:	0b002406 	bleq	95ec <__standby_start+0x95ec>
 5d0:	030b3e0b 	movweq	r3, #48651	; 0xbe0b
 5d4:	07000008 	streq	r0, [r0, -r8]
 5d8:	0e030016 	mcreq	0, 0, r0, cr3, cr6, {0}
 5dc:	0b3b0b3a 	bleq	ec32cc <__standby_start+0xec32cc>
 5e0:	00001349 	andeq	r1, r0, r9, asr #6
 5e4:	3f002e08 	svccc	0x00002e08
 5e8:	3a0e030c 	bcc	381220 <__standby_start+0x381220>
 5ec:	27053b0b 	strcs	r3, [r5, -fp, lsl #22]
 5f0:	2013490c 	andscs	r4, r3, ip, lsl #18
 5f4:	0900000b 	stmdbeq	r0, {r0, r1, r3}
 5f8:	0c3f012e 	ldfeqs	f0, [pc], #-184
 5fc:	0b3a0e03 	bleq	e83e10 <__standby_start+0xe83e10>
 600:	0c270b3b 	stceq	11, cr0, [r7], #-236
 604:	01120111 	tsteq	r2, r1, lsl r1
 608:	13010a40 	movwne	r0, #6720	; 0x1a40
 60c:	340a0000 	strcc	r0, [sl]
 610:	3a0e0300 	bcc	381218 <__standby_start+0x381218>
 614:	490b3b0b 	stmdbmi	fp, {r0, r1, r3, r8, r9, fp, ip, sp}
 618:	000a0213 	andeq	r0, sl, r3, lsl r2
 61c:	00340b00 	eorseq	r0, r4, r0, lsl #22
 620:	0b3a0803 	bleq	e82634 <__standby_start+0xe82634>
 624:	13490b3b 	movtne	r0, #39739	; 0x9b3b
 628:	00000a02 	andeq	r0, r0, r2, lsl #20
 62c:	31002e0c 	tstcc	r0, ip, lsl #28
 630:	12011113 	andne	r1, r1, #-1073741820	; 0xc0000004
 634:	000a4001 	andeq	r4, sl, r1
 638:	012e0d00 	teqeq	lr, r0, lsl #26
 63c:	0e030c3f 	mcreq	12, 0, r0, cr3, cr15, {1}
 640:	053b0b3a 	ldreq	r0, [fp, #-2874]!
 644:	13490c27 	movtne	r0, #39975	; 0x9c27
 648:	01120111 	tsteq	r2, r1, lsl r1
 64c:	13010a40 	movwne	r0, #6720	; 0x1a40
 650:	340e0000 	strcc	r0, [lr]
 654:	3a0e0300 	bcc	38125c <__standby_start+0x38125c>
 658:	49053b0b 	stmdbmi	r5, {r0, r1, r3, r8, r9, fp, ip, sp}
 65c:	00060213 	andeq	r0, r6, r3, lsl r2
 660:	012e0f00 	teqeq	lr, r0, lsl #30
 664:	0e030c3f 	mcreq	12, 0, r0, cr3, cr15, {1}
 668:	053b0b3a 	ldreq	r0, [fp, #-2874]!
 66c:	01110c27 	tsteq	r1, r7, lsr #24
 670:	0a400112 	beq	1000ac0 <__standby_start+0x1000ac0>
 674:	00001301 	andeq	r1, r0, r1, lsl #6
 678:	03000510 	movweq	r0, #1296	; 0x510
 67c:	3b0b3a08 	blcc	2ceea4 <__standby_start+0x2ceea4>
 680:	02134905 	andseq	r4, r3, #81920	; 0x14000
 684:	1100000a 	tstne	r0, sl
 688:	0e030034 	mcreq	0, 0, r0, cr3, cr4, {1}
 68c:	053b0b3a 	ldreq	r0, [fp, #-2874]!
 690:	0a021349 	beq	853bc <__standby_start+0x853bc>
 694:	2e120000 	wxorcs	wr0, wr2, wr0
 698:	030c3f00 	movweq	r3, #52992	; 0xcf00
 69c:	3b0b3a0e 	blcc	2ceedc <__standby_start+0x2ceedc>
 6a0:	490c2705 	stmdbmi	ip, {r0, r2, r8, r9, sl, sp}
 6a4:	12011113 	andne	r1, r1, #-1073741820	; 0xc0000004
 6a8:	000a4001 	andeq	r4, sl, r1
 6ac:	002e1300 	eoreq	r1, lr, r0, lsl #6
 6b0:	0e030c3f 	mcreq	12, 0, r0, cr3, cr15, {1}
 6b4:	053b0b3a 	ldreq	r0, [fp, #-2874]!
 6b8:	01110c27 	tsteq	r1, r7, lsr #24
 6bc:	0a400112 	beq	1000b0c <__standby_start+0x1000b0c>
 6c0:	05140000 	ldreq	r0, [r4]
 6c4:	3a080300 	bcc	2012cc <__standby_start+0x2012cc>
 6c8:	49053b0b 	stmdbmi	r5, {r0, r1, r3, r8, r9, fp, ip, sp}
 6cc:	00060213 	andeq	r0, r6, r3, lsl r2
 6d0:	012e1500 	teqeq	lr, r0, lsl #10
 6d4:	0b3a0e03 	bleq	e83ee8 <__standby_start+0xe83ee8>
 6d8:	0c270b3b 	stceq	11, cr0, [r7], #-236
 6dc:	0b201349 	bleq	805408 <__standby_start+0x805408>
 6e0:	00001301 	andeq	r1, r0, r1, lsl #6
 6e4:	03000516 	movweq	r0, #1302	; 0x516
 6e8:	3b0b3a0e 	blcc	2cef28 <__standby_start+0x2cef28>
 6ec:	0013490b 	andseq	r4, r3, fp, lsl #18
 6f0:	00341700 	eorseq	r1, r4, r0, lsl #14
 6f4:	0b3a0e03 	bleq	e83f08 <__standby_start+0xe83f08>
 6f8:	13490b3b 	movtne	r0, #39739	; 0x9b3b
 6fc:	2e180000 	wxorcs	wr0, wr8, wr0
 700:	030c3f01 	movweq	r3, #52993	; 0xcf01
 704:	3b0b3a0e 	blcc	2cef44 <__standby_start+0x2cef44>
 708:	110c270b 	tstne	ip, fp, lsl #14
 70c:	40011201 	andmi	r1, r1, r1, lsl #4
 710:	00130106 	andseq	r0, r3, r6, lsl #2
 714:	00051900 	andeq	r1, r5, r0, lsl #18
 718:	0b3a0803 	bleq	e8272c <__standby_start+0xe8272c>
 71c:	13490b3b 	movtne	r0, #39739	; 0x9b3b
 720:	00000602 	andeq	r0, r0, r2, lsl #12
 724:	0300341a 	movweq	r3, #1050	; 0x41a
 728:	3b0b3a08 	blcc	2cef50 <__standby_start+0x2cef50>
 72c:	0013490b 	andseq	r4, r3, fp, lsl #18
 730:	00341b00 	eorseq	r1, r4, r0, lsl #22
 734:	0b3a0e03 	bleq	e83f48 <__standby_start+0xe83f48>
 738:	13490b3b 	movtne	r0, #39739	; 0x9b3b
 73c:	00000602 	andeq	r0, r0, r2, lsl #12
 740:	31011d1c 	tstcc	r1, ip, lsl sp
 744:	58065513 	stmdapl	r6, {r0, r1, r4, r8, sl, ip, lr}
 748:	000b590b 	andeq	r5, fp, fp, lsl #18
 74c:	00051d00 	andeq	r1, r5, r0, lsl #26
 750:	00001331 	andeq	r1, r0, r1, lsr r3
 754:	3100051e 	tstcc	r0, lr, lsl r5
 758:	000a0213 	andeq	r0, sl, r3, lsl r2
 75c:	010b1f00 	tsteq	fp, r0, lsl #30
 760:	00000655 	andeq	r0, r0, r5, asr r6
 764:	31003420 	tstcc	r0, r0, lsr #8
 768:	000a0213 	andeq	r0, sl, r3, lsl r2
 76c:	00342100 	eorseq	r2, r4, r0, lsl #2
 770:	06021331 	undefined
 774:	34220000 	strtcc	r0, [r2]
 778:	3a080300 	bcc	201380 <__standby_start+0x201380>
 77c:	490b3b0b 	stmdbmi	fp, {r0, r1, r3, r8, r9, fp, ip, sp}
 780:	00060213 	andeq	r0, r6, r3, lsl r2
 784:	012e2300 	teqeq	lr, r0, lsl #6
 788:	0e030c3f 	mcreq	12, 0, r0, cr3, cr15, {1}
 78c:	0b3b0b3a 	bleq	ec347c <__standby_start+0xec347c>
 790:	13490c27 	movtne	r0, #39975	; 0x9c27
 794:	01120111 	tsteq	r2, r1, lsl r1
 798:	13010640 	movwne	r0, #5696	; 0x1640
 79c:	05240000 	streq	r0, [r4]!
 7a0:	3a0e0300 	bcc	3813a8 <__standby_start+0x3813a8>
 7a4:	490b3b0b 	stmdbmi	fp, {r0, r1, r3, r8, r9, fp, ip, sp}
 7a8:	00060213 	andeq	r0, r6, r3, lsl r2
 7ac:	000f2500 	andeq	r2, pc, r0, lsl #10
 7b0:	13490b0b 	movtne	r0, #39691	; 0x9b0b
 7b4:	01260000 	teqeq	r6, r0
 7b8:	01134901 	tsteq	r3, r1, lsl #18
 7bc:	27000013 	smladcs	r0, r3, r0, r0
 7c0:	13490021 	movtne	r0, #36897	; 0x9021
 7c4:	00000b2f 	andeq	r0, r0, pc, lsr #22
 7c8:	03003428 	movweq	r3, #1064	; 0x428
 7cc:	3b0b3a0e 	blcc	2cf00c <__standby_start+0x2cf00c>
 7d0:	3f13490b 	svccc	0x0013490b
 7d4:	000a020c 	andeq	r0, sl, ip, lsl #4
 7d8:	11010000 	tstne	r1, r0
 7dc:	130e2501 	movwne	r2, #58625	; 0xe501
 7e0:	1b0e030b 	blne	381414 <__standby_start+0x381414>
 7e4:	1201110e 	andne	r1, r1, #-2147483645	; 0x80000003
 7e8:	00061001 	andeq	r1, r6, r1
 7ec:	00240200 	eoreq	r0, r4, r0, lsl #4
 7f0:	0b3e0b0b 	bleq	f83424 <__standby_start+0xf83424>
 7f4:	00000e03 	andeq	r0, r0, r3, lsl #28
 7f8:	0b002403 	bleq	980c <__standby_start+0x980c>
 7fc:	030b3e0b 	movweq	r3, #48651	; 0xbe0b
 800:	04000008 	streq	r0, [r0], #-8
 804:	0e030016 	mcreq	0, 0, r0, cr3, cr6, {0}
 808:	0b3b0b3a 	bleq	ec34f8 <__standby_start+0xec34f8>
 80c:	00001349 	andeq	r1, r0, r9, asr #6
 810:	49003505 	stmdbmi	r0, {r0, r2, r8, sl, ip, sp}
 814:	06000013 	undefined
 818:	0b0b0024 	bleq	2c08b0 <__standby_start+0x2c08b0>
 81c:	00000b3e 	andeq	r0, r0, lr, lsr fp
 820:	49010107 	stmdbmi	r1, {r0, r1, r2, r8}
 824:	00130113 	andseq	r0, r3, r3, lsl r1
 828:	00210800 	eoreq	r0, r1, r0, lsl #16
 82c:	0b2f1349 	bleq	bc5558 <__standby_start+0xbc5558>
 830:	04090000 	streq	r0, [r9]
 834:	0b0e0301 	bleq	381440 <__standby_start+0x381440>
 838:	3b0b3a0b 	blcc	2cf06c <__standby_start+0x2cf06c>
 83c:	0013010b 	andseq	r0, r3, fp, lsl #2
 840:	00280a00 	eoreq	r0, r8, r0, lsl #20
 844:	0d1c0e03 	ldceq	14, cr0, [ip, #-12]
 848:	130b0000 	movwne	r0, #45056	; 0xb000
 84c:	0b0e0301 	bleq	381458 <__standby_start+0x381458>
 850:	3b0b3a0b 	blcc	2cf084 <__standby_start+0x2cf084>
 854:	0013010b 	andseq	r0, r3, fp, lsl #2
 858:	000d0c00 	andeq	r0, sp, r0, lsl #24
 85c:	0b3a0e03 	bleq	e84070 <__standby_start+0xe84070>
 860:	13490b3b 	movtne	r0, #39739	; 0x9b3b
 864:	00000a38 	andeq	r0, r0, r8, lsr sl
 868:	3f002e0d 	svccc	0x00002e0d
 86c:	3a0e030c 	bcc	3814a4 <__standby_start+0x3814a4>
 870:	270b3b0b 	strcs	r3, [fp, -fp, lsl #22]
 874:	1113490c 	tstne	r3, ip, lsl #18
 878:	40011201 	andmi	r1, r1, r1, lsl #4
 87c:	0e000006 	cdpeq	0, 0, cr0, cr0, cr6, {0}
 880:	0c3f002e 	ldceq	0, cr0, [pc], #-184
 884:	0b3a0e03 	bleq	e84098 <__standby_start+0xe84098>
 888:	0c270b3b 	stceq	11, cr0, [r7], #-236
 88c:	01111349 	tsteq	r1, r9, asr #6
 890:	0a400112 	beq	1000ce0 <__standby_start+0x1000ce0>
 894:	2e0f0000 	cdpcs	0, 0, cr0, cr15, cr0, {0}
 898:	030c3f01 	movweq	r3, #52993	; 0xcf01
 89c:	3b0b3a0e 	blcc	2cf0dc <__standby_start+0x2cf0dc>
 8a0:	490c270b 	stmdbmi	ip, {r0, r1, r3, r8, r9, sl, sp}
 8a4:	12011113 	andne	r1, r1, #-1073741820	; 0xc0000004
 8a8:	01064001 	tsteq	r6, r1
 8ac:	10000013 	andne	r0, r0, r3, lsl r0
 8b0:	08030005 	stmdaeq	r3, {r0, r2}
 8b4:	0b3b0b3a 	bleq	ec35a4 <__standby_start+0xec35a4>
 8b8:	06021349 	streq	r1, [r2], -r9, asr #6
 8bc:	34110000 	ldrcc	r0, [r1]
 8c0:	3a0e0300 	bcc	3814c8 <__standby_start+0x3814c8>
 8c4:	490b3b0b 	stmdbmi	fp, {r0, r1, r3, r8, r9, fp, ip, sp}
 8c8:	00060213 	andeq	r0, r6, r3, lsl r2
 8cc:	00341200 	eorseq	r1, r4, r0, lsl #4
 8d0:	0b3a0e03 	bleq	e840e4 <__standby_start+0xe840e4>
 8d4:	13490b3b 	movtne	r0, #39739	; 0x9b3b
 8d8:	2e130000 	wxorcs	wr0, wr3, wr0
 8dc:	030c3f01 	movweq	r3, #52993	; 0xcf01
 8e0:	3b0b3a0e 	blcc	2cf120 <__standby_start+0x2cf120>
 8e4:	490c270b 	stmdbmi	ip, {r0, r1, r3, r8, r9, sl, sp}
 8e8:	12011113 	andne	r1, r1, #-1073741820	; 0xc0000004
 8ec:	010a4001 	tsteq	sl, r1
 8f0:	14000013 	strne	r0, [r0], #-19
 8f4:	0e030034 	mcreq	0, 0, r0, cr3, cr4, {1}
 8f8:	0b3b0b3a 	bleq	ec35e8 <__standby_start+0xec35e8>
 8fc:	0a021349 	beq	85628 <__standby_start+0x85628>
 900:	0f150000 	svceq	0x00150000
 904:	490b0b00 	stmdbmi	fp, {r8, r9, fp}
 908:	00000013 	andeq	r0, r0, r3, lsl r0
 90c:	25011101 	strcs	r1, [r1, #-257]
 910:	030b130e 	movweq	r1, #45838	; 0xb30e
 914:	110e1b0e 	tstne	lr, lr, lsl #22
 918:	10011201 	andne	r1, r1, r1, lsl #4
 91c:	02000006 	andeq	r0, r0, #6	; 0x6
 920:	0b0b0024 	bleq	2c09b8 <__standby_start+0x2c09b8>
 924:	0e030b3e 	vmoveq.16	d3[0], r0
 928:	24030000 	strcs	r0, [r3]
 92c:	3e0b0b00 	vmlacc.f64	d0, d11, d0
 930:	0008030b 	andeq	r0, r8, fp, lsl #6
 934:	00160400 	andseq	r0, r6, r0, lsl #8
 938:	0b3a0e03 	bleq	e8414c <__standby_start+0xe8414c>
 93c:	13490b3b 	movtne	r0, #39739	; 0x9b3b
 940:	24050000 	strcs	r0, [r5]
 944:	3e0b0b00 	vmlacc.f64	d0, d11, d0
 948:	0600000b 	streq	r0, [r0], -fp
 94c:	0c3f002e 	ldceq	0, cr0, [pc], #-184
 950:	0b3a0e03 	bleq	e84164 <__standby_start+0xe84164>
 954:	0c270b3b 	stceq	11, cr0, [r7], #-236
 958:	01111349 	tsteq	r1, r9, asr #6
 95c:	0a400112 	beq	1000dac <__standby_start+0x1000dac>
 960:	01000000 	tsteq	r0, r0
 964:	0e250111 	mcreq	1, 1, r0, cr5, cr1, {0}
 968:	0e030b13 	vmoveq.32	d3[0], r0
 96c:	01110e1b 	tsteq	r1, fp, lsl lr
 970:	06100112 	undefined
 974:	24020000 	strcs	r0, [r2]
 978:	3e0b0b00 	vmlacc.f64	d0, d11, d0
 97c:	000e030b 	andeq	r0, lr, fp, lsl #6
 980:	00240300 	eoreq	r0, r4, r0, lsl #6
 984:	0b3e0b0b 	bleq	f835b8 <__standby_start+0xf835b8>
 988:	00000803 	andeq	r0, r0, r3, lsl #16
 98c:	03001604 	movweq	r1, #1540	; 0x604
 990:	3b0b3a0e 	blcc	2cf1d0 <__standby_start+0x2cf1d0>
 994:	0013490b 	andseq	r4, r3, fp, lsl #18
 998:	00350500 	eorseq	r0, r5, r0, lsl #10
 99c:	00001349 	andeq	r1, r0, r9, asr #6
 9a0:	0b002406 	bleq	99c0 <__standby_start+0x99c0>
 9a4:	000b3e0b 	andeq	r3, fp, fp, lsl #28
 9a8:	01130700 	tsteq	r3, r0, lsl #14
 9ac:	0b0b0e03 	bleq	2c41c0 <__standby_start+0x2c41c0>
 9b0:	0b3b0b3a 	bleq	ec36a0 <__standby_start+0xec36a0>
 9b4:	00001301 	andeq	r1, r0, r1, lsl #6
 9b8:	03000d08 	movweq	r0, #3336	; 0xd08
 9bc:	3b0b3a0e 	blcc	2cf1fc <__standby_start+0x2cf1fc>
 9c0:	3813490b 	ldmdacc	r3, {r0, r1, r3, r8, fp, lr}
 9c4:	0900000a 	stmdbeq	r0, {r1, r3}
 9c8:	0c3f002e 	ldceq	0, cr0, [pc], #-184
 9cc:	0b3a0e03 	bleq	e841e0 <__standby_start+0xe841e0>
 9d0:	0c270b3b 	stceq	11, cr0, [r7], #-236
 9d4:	01111349 	tsteq	r1, r9, asr #6
 9d8:	0a400112 	beq	1000e28 <__standby_start+0x1000e28>
 9dc:	2e0a0000 	cdpcs	0, 0, cr0, cr10, cr0, {0}
 9e0:	030c3f00 	movweq	r3, #52992	; 0xcf00
 9e4:	3b0b3a0e 	blcc	2cf224 <__standby_start+0x2cf224>
 9e8:	490c270b 	stmdbmi	ip, {r0, r1, r3, r8, r9, sl, sp}
 9ec:	12011113 	andne	r1, r1, #-1073741820	; 0xc0000004
 9f0:	00064001 	andeq	r4, r6, r1
 9f4:	00340b00 	eorseq	r0, r4, r0, lsl #22
 9f8:	0b3a0e03 	bleq	e8420c <__standby_start+0xe8420c>
 9fc:	13490b3b 	movtne	r0, #39739	; 0x9b3b
 a00:	00000a02 	andeq	r0, r0, r2, lsl #20
 a04:	0b000f0c 	bleq	463c <__standby_start+0x463c>
 a08:	0013490b 	andseq	r4, r3, fp, lsl #18
 a0c:	00340d00 	eorseq	r0, r4, r0, lsl #26
 a10:	0b3a0e03 	bleq	e84224 <__standby_start+0xe84224>
 a14:	13490b3b 	movtne	r0, #39739	; 0x9b3b
 a18:	01000000 	tsteq	r0, r0
 a1c:	0e250111 	mcreq	1, 1, r0, cr5, cr1, {0}
 a20:	0e030b13 	vmoveq.32	d3[0], r0
 a24:	01110e1b 	tsteq	r1, fp, lsl lr
 a28:	06100112 	undefined
 a2c:	24020000 	strcs	r0, [r2]
 a30:	3e0b0b00 	vmlacc.f64	d0, d11, d0
 a34:	000e030b 	andeq	r0, lr, fp, lsl #6
 a38:	00240300 	eoreq	r0, r4, r0, lsl #6
 a3c:	0b3e0b0b 	bleq	f83670 <__standby_start+0xf83670>
 a40:	00000803 	andeq	r0, r0, r3, lsl #16
 a44:	03001604 	movweq	r1, #1540	; 0x604
 a48:	3b0b3a0e 	blcc	2cf288 <__standby_start+0x2cf288>
 a4c:	0013490b 	andseq	r4, r3, fp, lsl #18
 a50:	00240500 	eoreq	r0, r4, r0, lsl #10
 a54:	0b3e0b0b 	bleq	f83688 <__standby_start+0xf83688>
 a58:	04060000 	streq	r0, [r6]
 a5c:	0b0e0301 	bleq	381668 <__standby_start+0x381668>
 a60:	3b0b3a0b 	blcc	2cf294 <__standby_start+0x2cf294>
 a64:	0013010b 	andseq	r0, r3, fp, lsl #2
 a68:	00280700 	eoreq	r0, r8, r0, lsl #14
 a6c:	0d1c0e03 	ldceq	14, cr0, [ip, #-12]
 a70:	13080000 	movwne	r0, #32768	; 0x8000
 a74:	0b0e0301 	bleq	381680 <__standby_start+0x381680>
 a78:	3b0b3a0b 	blcc	2cf2ac <__standby_start+0x2cf2ac>
 a7c:	0013010b 	andseq	r0, r3, fp, lsl #2
 a80:	000d0900 	andeq	r0, sp, r0, lsl #18
 a84:	0b3a0803 	bleq	e82a98 <__standby_start+0xe82a98>
 a88:	13490b3b 	movtne	r0, #39739	; 0x9b3b
 a8c:	00000a38 	andeq	r0, r0, r8, lsr sl
 a90:	03000d0a 	movweq	r0, #3338	; 0xd0a
 a94:	3b0b3a0e 	blcc	2cf2d4 <__standby_start+0x2cf2d4>
 a98:	3813490b 	ldmdacc	r3, {r0, r1, r3, r8, fp, lr}
 a9c:	0b00000a 	bleq	acc <__standby_start+0xacc>
 aa0:	0e03012e 	adfeqsp	f0, f3, #0.5
 aa4:	0b3b0b3a 	bleq	ec3794 <__standby_start+0xec3794>
 aa8:	13490c27 	movtne	r0, #39975	; 0x9c27
 aac:	01120111 	tsteq	r2, r1, lsl r1
 ab0:	13010a40 	movwne	r0, #6720	; 0x1a40
 ab4:	050c0000 	streq	r0, [ip]
 ab8:	3a0e0300 	bcc	3816c0 <__standby_start+0x3816c0>
 abc:	490b3b0b 	stmdbmi	fp, {r0, r1, r3, r8, r9, fp, ip, sp}
 ac0:	00060213 	andeq	r0, r6, r3, lsl r2
 ac4:	00340d00 	eorseq	r0, r4, r0, lsl #26
 ac8:	0b3a0e03 	bleq	e842dc <__standby_start+0xe842dc>
 acc:	13490b3b 	movtne	r0, #39739	; 0x9b3b
 ad0:	00000602 	andeq	r0, r0, r2, lsl #12
 ad4:	0300340e 	movweq	r3, #1038	; 0x40e
 ad8:	3b0b3a0e 	blcc	2cf318 <__standby_start+0x2cf318>
 adc:	0213490b 	andseq	r4, r3, #180224	; 0x2c000
 ae0:	0f00000a 	svceq	0x0000000a
 ae4:	08030005 	stmdaeq	r3, {r0, r2}
 ae8:	0b3b0b3a 	bleq	ec37d8 <__standby_start+0xec37d8>
 aec:	06021349 	streq	r1, [r2], -r9, asr #6
 af0:	34100000 	ldrcc	r0, [r0]
 af4:	3a080300 	bcc	2016fc <__standby_start+0x2016fc>
 af8:	490b3b0b 	stmdbmi	fp, {r0, r1, r3, r8, r9, fp, ip, sp}
 afc:	00060213 	andeq	r0, r6, r3, lsl r2
 b00:	00341100 	eorseq	r1, r4, r0, lsl #2
 b04:	0b3a0803 	bleq	e82b18 <__standby_start+0xe82b18>
 b08:	13490b3b 	movtne	r0, #39739	; 0x9b3b
 b0c:	0f120000 	svceq	0x00120000
 b10:	490b0b00 	stmdbmi	fp, {r8, r9, fp}
 b14:	13000013 	movwne	r0, #19	; 0x13
 b18:	0c3f012e 	ldfeqs	f0, [pc], #-184
 b1c:	0b3a0e03 	bleq	e84330 <__standby_start+0xe84330>
 b20:	0c270b3b 	stceq	11, cr0, [r7], #-236
 b24:	01111349 	tsteq	r1, r9, asr #6
 b28:	06400112 	undefined
 b2c:	00001301 	andeq	r1, r0, r1, lsl #6
 b30:	03003414 	movweq	r3, #1044	; 0x414
 b34:	3b0b3a0e 	blcc	2cf374 <__standby_start+0x2cf374>
 b38:	0013490b 	andseq	r4, r3, fp, lsl #18
 b3c:	012e1500 	teqeq	lr, r0, lsl #10
 b40:	0b3a0e03 	bleq	e84354 <__standby_start+0xe84354>
 b44:	0c270b3b 	stceq	11, cr0, [r7], #-236
 b48:	0b201349 	bleq	805874 <__standby_start+0x805874>
 b4c:	00001301 	andeq	r1, r0, r1, lsl #6
 b50:	03000516 	movweq	r0, #1302	; 0x516
 b54:	3b0b3a0e 	blcc	2cf394 <__standby_start+0x2cf394>
 b58:	0013490b 	andseq	r4, r3, fp, lsl #18
 b5c:	012e1700 	teqeq	lr, r0, lsl #14
 b60:	0e030c3f 	mcreq	12, 0, r0, cr3, cr15, {1}
 b64:	0b3b0b3a 	bleq	ec3854 <__standby_start+0xec3854>
 b68:	01110c27 	tsteq	r1, r7, lsr #24
 b6c:	06400112 	undefined
 b70:	00001301 	andeq	r1, r0, r1, lsl #6
 b74:	31011d18 	tstcc	r1, r8, lsl sp
 b78:	12011113 	andne	r1, r1, #-1073741820	; 0xc0000004
 b7c:	590b5801 	stmdbpl	fp, {r0, fp, ip, lr}
 b80:	1900000b 	stmdbne	r0, {r0, r1, r3}
 b84:	13310005 	teqne	r1, #5	; 0x5
 b88:	011a0000 	tsteq	sl, r0
 b8c:	01134901 	tsteq	r3, r1, lsl #18
 b90:	1b000013 	blne	be4 <__standby_start+0xbe4>
 b94:	13490021 	movtne	r0, #36897	; 0x9021
 b98:	00000b2f 	andeq	r0, r0, pc, lsr #22
 b9c:	4900261c 	stmdbmi	r0, {r2, r3, r4, r9, sl, sp}
 ba0:	00000013 	andeq	r0, r0, r3, lsl r0
 ba4:	25011101 	strcs	r1, [r1, #-257]
 ba8:	030b130e 	movweq	r1, #45838	; 0xb30e
 bac:	110e1b0e 	tstne	lr, lr, lsl #22
 bb0:	10011201 	andne	r1, r1, r1, lsl #4
 bb4:	02000006 	andeq	r0, r0, #6	; 0x6
 bb8:	0b0b0024 	bleq	2c0c50 <__standby_start+0x2c0c50>
 bbc:	0e030b3e 	vmoveq.16	d3[0], r0
 bc0:	24030000 	strcs	r0, [r3]
 bc4:	3e0b0b00 	vmlacc.f64	d0, d11, d0
 bc8:	0008030b 	andeq	r0, r8, fp, lsl #6
 bcc:	00160400 	andseq	r0, r6, r0, lsl #8
 bd0:	0b3a0e03 	bleq	e843e4 <__standby_start+0xe843e4>
 bd4:	13490b3b 	movtne	r0, #39739	; 0x9b3b
 bd8:	35050000 	strcc	r0, [r5]
 bdc:	00134900 	andseq	r4, r3, r0, lsl #18
 be0:	01010600 	tsteq	r1, r0, lsl #12
 be4:	13011349 	movwne	r1, #4937	; 0x1349
 be8:	21070000 	tstcs	r7, r0
 bec:	2f134900 	svccs	0x00134900
 bf0:	0800000b 	stmdaeq	r0, {r0, r1, r3}
 bf4:	0b0b0024 	bleq	2c0c8c <__standby_start+0x2c0c8c>
 bf8:	00000b3e 	andeq	r0, r0, lr, lsr fp
 bfc:	03011309 	movweq	r1, #4873	; 0x1309
 c00:	3a050b0e 	bcc	143840 <__standby_start+0x143840>
 c04:	010b3b0b 	tsteq	fp, fp, lsl #22
 c08:	0a000013 	beq	c5c <__standby_start+0xc5c>
 c0c:	0e03000d 	cdpeq	0, 0, cr0, cr3, cr13, {0}
 c10:	0b3b0b3a 	bleq	ec3900 <__standby_start+0xec3900>
 c14:	0a381349 	beq	e05940 <__standby_start+0xe05940>
 c18:	040b0000 	streq	r0, [fp]
 c1c:	0b0e0301 	bleq	381828 <__standby_start+0x381828>
 c20:	3b0b3a0b 	blcc	2cf454 <__standby_start+0x2cf454>
 c24:	0013010b 	andseq	r0, r3, fp, lsl #2
 c28:	00280c00 	eoreq	r0, r8, r0, lsl #24
 c2c:	0d1c0e03 	ldceq	14, cr0, [ip, #-12]
 c30:	2e0d0000 	cdpcs	0, 0, cr0, cr13, cr0, {0}
 c34:	030c3f01 	movweq	r3, #52993	; 0xcf01
 c38:	3b0b3a0e 	blcc	2cf478 <__standby_start+0x2cf478>
 c3c:	490c270b 	stmdbmi	ip, {r0, r1, r3, r8, r9, sl, sp}
 c40:	12011113 	andne	r1, r1, #-1073741820	; 0xc0000004
 c44:	01064001 	tsteq	r6, r1
 c48:	0e000013 	mcreq	0, 0, r0, cr0, cr3, {0}
 c4c:	08030034 	stmdaeq	r3, {r2, r4, r5}
 c50:	0b3b0b3a 	bleq	ec3940 <__standby_start+0xec3940>
 c54:	00001349 	andeq	r1, r0, r9, asr #6
 c58:	0300050f 	movweq	r0, #1295	; 0x50f
 c5c:	3b0b3a0e 	blcc	2cf49c <__standby_start+0x2cf49c>
 c60:	0213490b 	andseq	r4, r3, #180224	; 0x2c000
 c64:	10000006 	andne	r0, r0, r6
 c68:	0c3f002e 	ldceq	0, cr0, [pc], #-184
 c6c:	0b3a0e03 	bleq	e84480 <__standby_start+0xe84480>
 c70:	0c270b3b 	stceq	11, cr0, [r7], #-236
 c74:	01120111 	tsteq	r2, r1, lsl r1
 c78:	00000a40 	andeq	r0, r0, r0, asr #20
 c7c:	3f012e11 	svccc	0x00012e11
 c80:	3a0e030c 	bcc	3818b8 <__standby_start+0x3818b8>
 c84:	270b3b0b 	strcs	r3, [fp, -fp, lsl #22]
 c88:	1113490c 	tstne	r3, ip, lsl #18
 c8c:	40011201 	andmi	r1, r1, r1, lsl #4
 c90:	0013010a 	andseq	r0, r3, sl, lsl #2
 c94:	00341200 	eorseq	r1, r4, r0, lsl #4
 c98:	0b3a0e03 	bleq	e844ac <__standby_start+0xe844ac>
 c9c:	13490b3b 	movtne	r0, #39739	; 0x9b3b
 ca0:	2e130000 	wxorcs	wr0, wr3, wr0
 ca4:	030c3f01 	movweq	r3, #52993	; 0xcf01
 ca8:	3b0b3a0e 	blcc	2cf4e8 <__standby_start+0x2cf4e8>
 cac:	110c270b 	tstne	ip, fp, lsl #14
 cb0:	40011201 	andmi	r1, r1, r1, lsl #4
 cb4:	00130106 	andseq	r0, r3, r6, lsl #2
 cb8:	00051400 	andeq	r1, r5, r0, lsl #8
 cbc:	0b3a0803 	bleq	e82cd0 <__standby_start+0xe82cd0>
 cc0:	13490b3b 	movtne	r0, #39739	; 0x9b3b
 cc4:	00000602 	andeq	r0, r0, r2, lsl #12
 cc8:	03003415 	movweq	r3, #1045	; 0x415
 ccc:	3b0b3a0e 	blcc	2cf50c <__standby_start+0x2cf50c>
 cd0:	0213490b 	andseq	r4, r3, #180224	; 0x2c000
 cd4:	1600000a 	strne	r0, [r0], -sl
 cd8:	0b0b000f 	bleq	2c0d1c <__standby_start+0x2c0d1c>
 cdc:	00001349 	andeq	r1, r0, r9, asr #6
 ce0:	01110100 	tsteq	r1, r0, lsl #2
 ce4:	0b130e25 	bleq	4c4580 <__standby_start+0x4c4580>
 ce8:	0e1b0e03 	cdpeq	14, 1, cr0, cr11, cr3, {0}
 cec:	01120111 	tsteq	r2, r1, lsl r1
 cf0:	00000610 	andeq	r0, r0, r0, lsl r6
 cf4:	0b002402 	bleq	9d04 <__standby_start+0x9d04>
 cf8:	030b3e0b 	movweq	r3, #48651	; 0xbe0b
 cfc:	0300000e 	movweq	r0, #14	; 0xe
 d00:	0b0b0024 	bleq	2c0d98 <__standby_start+0x2c0d98>
 d04:	08030b3e 	stmdaeq	r3, {r1, r2, r3, r4, r5, r8, r9, fp}
 d08:	16040000 	strne	r0, [r4], -r0
 d0c:	3a0e0300 	bcc	381914 <__standby_start+0x381914>
 d10:	490b3b0b 	stmdbmi	fp, {r0, r1, r3, r8, r9, fp, ip, sp}
 d14:	05000013 	streq	r0, [r0, #-19]
 d18:	0b0b0024 	bleq	2c0db0 <__standby_start+0x2c0db0>
 d1c:	00000b3e 	andeq	r0, r0, lr, lsr fp
 d20:	03011306 	movweq	r1, #4870	; 0x1306
 d24:	3a0b0b0e 	bcc	2c3964 <__standby_start+0x2c3964>
 d28:	010b3b0b 	tsteq	fp, fp, lsl #22
 d2c:	07000013 	smladeq	r0, r3, r0, r0
 d30:	0e03000d 	cdpeq	0, 0, cr0, cr3, cr13, {0}
 d34:	0b3b0b3a 	bleq	ec3a24 <__standby_start+0xec3a24>
 d38:	0a381349 	beq	e05a64 <__standby_start+0xe05a64>
 d3c:	35080000 	strcc	r0, [r8]
 d40:	00134900 	andseq	r4, r3, r0, lsl #18
 d44:	01040900 	tsteq	r4, r0, lsl #18
 d48:	0b0b0e03 	bleq	2c455c <__standby_start+0x2c455c>
 d4c:	0b3b0b3a 	bleq	ec3a3c <__standby_start+0xec3a3c>
 d50:	00001301 	andeq	r1, r0, r1, lsl #6
 d54:	0300280a 	movweq	r2, #2058	; 0x80a
 d58:	000d1c0e 	andeq	r1, sp, lr, lsl #24
 d5c:	012e0b00 	teqeq	lr, r0, lsl #22
 d60:	0e030c3f 	mcreq	12, 0, r0, cr3, cr15, {1}
 d64:	0b3b0b3a 	bleq	ec3a54 <__standby_start+0xec3a54>
 d68:	13490c27 	movtne	r0, #39975	; 0x9c27
 d6c:	01120111 	tsteq	r2, r1, lsl r1
 d70:	13010a40 	movwne	r0, #6720	; 0x1a40
 d74:	050c0000 	streq	r0, [ip]
 d78:	3a0e0300 	bcc	381980 <__standby_start+0x381980>
 d7c:	490b3b0b 	stmdbmi	fp, {r0, r1, r3, r8, r9, fp, ip, sp}
 d80:	00060213 	andeq	r0, r6, r3, lsl r2
 d84:	012e0d00 	teqeq	lr, r0, lsl #26
 d88:	0b3a0e03 	bleq	e8459c <__standby_start+0xe8459c>
 d8c:	0c270b3b 	stceq	11, cr0, [r7], #-236
 d90:	0b201349 	bleq	805abc <__standby_start+0x805abc>
 d94:	00001301 	andeq	r1, r0, r1, lsl #6
 d98:	0300340e 	movweq	r3, #1038	; 0x40e
 d9c:	3b0b3a0e 	blcc	2cf5dc <__standby_start+0x2cf5dc>
 da0:	0013490b 	andseq	r4, r3, fp, lsl #18
 da4:	012e0f00 	teqeq	lr, r0, lsl #30
 da8:	0e030c3f 	mcreq	12, 0, r0, cr3, cr15, {1}
 dac:	0b3b0b3a 	bleq	ec3a9c <__standby_start+0xec3a9c>
 db0:	13490c27 	movtne	r0, #39975	; 0x9c27
 db4:	01120111 	tsteq	r2, r1, lsl r1
 db8:	13010640 	movwne	r0, #5696	; 0x1640
 dbc:	05100000 	ldreq	r0, [r0]
 dc0:	3a080300 	bcc	2019c8 <__standby_start+0x2019c8>
 dc4:	490b3b0b 	stmdbmi	fp, {r0, r1, r3, r8, r9, fp, ip, sp}
 dc8:	00060213 	andeq	r0, r6, r3, lsl r2
 dcc:	00341100 	eorseq	r1, r4, r0, lsl #2
 dd0:	0b3a0e03 	bleq	e845e4 <__standby_start+0xe845e4>
 dd4:	13490b3b 	movtne	r0, #39739	; 0x9b3b
 dd8:	00000602 	andeq	r0, r0, r2, lsl #12
 ddc:	03003412 	movweq	r3, #1042	; 0x412
 de0:	3b0b3a08 	blcc	2cf608 <__standby_start+0x2cf608>
 de4:	0213490b 	andseq	r4, r3, #180224	; 0x2c000
 de8:	13000006 	movwne	r0, #6	; 0x6
 dec:	0e03000a 	cdpeq	0, 0, cr0, cr3, cr10, {0}
 df0:	053b0b3a 	ldreq	r0, [fp, #-2874]!
 df4:	00000111 	andeq	r0, r0, r1, lsl r1
 df8:	31011d14 	tstcc	r1, r4, lsl sp
 dfc:	12011113 	andne	r1, r1, #-1073741820	; 0xc0000004
 e00:	590b5801 	stmdbpl	fp, {r0, fp, ip, lr}
 e04:	15000005 	strne	r0, [r0, #-5]
 e08:	0111010b 	tsteq	r1, fp, lsl #2
 e0c:	00000112 	andeq	r0, r0, r2, lsl r1
 e10:	31003416 	tstcc	r0, r6, lsl r4
 e14:	00060213 	andeq	r0, r6, r3, lsl r2
 e18:	00341700 	eorseq	r1, r4, r0, lsl #14
 e1c:	0a021331 	beq	85ae8 <__standby_start+0x85ae8>
 e20:	0f180000 	svceq	0x00180000
 e24:	490b0b00 	stmdbmi	fp, {r8, r9, fp}
 e28:	19000013 	stmdbne	r0, {r0, r1, r4}
 e2c:	0c3f002e 	ldceq	0, cr0, [pc], #-184
 e30:	0b3a0e03 	bleq	e84644 <__standby_start+0xe84644>
 e34:	0c270b3b 	stceq	11, cr0, [r7], #-236
 e38:	01111349 	tsteq	r1, r9, asr #6
 e3c:	06400112 	undefined
 e40:	011a0000 	tsteq	sl, r0
 e44:	01134901 	tsteq	r3, r1, lsl #18
 e48:	1b000013 	blne	e9c <__standby_start+0xe9c>
 e4c:	13490021 	movtne	r0, #36897	; 0x9021
 e50:	00000b2f 	andeq	r0, r0, pc, lsr #22
 e54:	0300341c 	movweq	r3, #1052	; 0x41c
 e58:	3b0b3a0e 	blcc	2cf698 <__standby_start+0x2cf698>
 e5c:	0213490b 	andseq	r4, r3, #180224	; 0x2c000
 e60:	1d00000a 	stcne	0, cr0, [r0, #-40]
 e64:	13490026 	movtne	r0, #36902	; 0x9026
 e68:	01000000 	tsteq	r0, r0
 e6c:	0e250111 	mcreq	1, 1, r0, cr5, cr1, {0}
 e70:	0e030b13 	vmoveq.32	d3[0], r0
 e74:	01110e1b 	tsteq	r1, fp, lsl lr
 e78:	06100112 	undefined
 e7c:	24020000 	strcs	r0, [r2]
 e80:	3e0b0b00 	vmlacc.f64	d0, d11, d0
 e84:	000e030b 	andeq	r0, lr, fp, lsl #6
 e88:	00240300 	eoreq	r0, r4, r0, lsl #6
 e8c:	0b3e0b0b 	bleq	f83ac0 <__standby_start+0xf83ac0>
 e90:	00000803 	andeq	r0, r0, r3, lsl #16
 e94:	03001604 	movweq	r1, #1540	; 0x604
 e98:	3b0b3a0e 	blcc	2cf6d8 <__standby_start+0x2cf6d8>
 e9c:	0013490b 	andseq	r4, r3, fp, lsl #18
 ea0:	00240500 	eoreq	r0, r4, r0, lsl #10
 ea4:	0b3e0b0b 	bleq	f83ad8 <__standby_start+0xf83ad8>
 ea8:	2e060000 	cdpcs	0, 0, cr0, cr6, cr0, {0}
 eac:	030c3f00 	movweq	r3, #52992	; 0xcf00
 eb0:	3b0b3a0e 	blcc	2cf6f0 <__standby_start+0x2cf6f0>
 eb4:	490c270b 	stmdbmi	ip, {r0, r1, r3, r8, r9, sl, sp}
 eb8:	12011113 	andne	r1, r1, #-1073741820	; 0xc0000004
 ebc:	000a4001 	andeq	r4, sl, r1
 ec0:	012e0700 	teqeq	lr, r0, lsl #14
 ec4:	0e030c3f 	mcreq	12, 0, r0, cr3, cr15, {1}
 ec8:	0b3b0b3a 	bleq	ec3bb8 <__standby_start+0xec3bb8>
 ecc:	13490c27 	movtne	r0, #39975	; 0x9c27
 ed0:	01120111 	tsteq	r2, r1, lsl r1
 ed4:	13010a40 	movwne	r0, #6720	; 0x1a40
 ed8:	05080000 	streq	r0, [r8]
 edc:	3a0e0300 	bcc	381ae4 <__standby_start+0x381ae4>
 ee0:	490b3b0b 	stmdbmi	fp, {r0, r1, r3, r8, r9, fp, ip, sp}
 ee4:	00060213 	andeq	r0, r6, r3, lsl r2
 ee8:	11010000 	tstne	r1, r0
 eec:	11061000 	tstne	r6, r0
 ef0:	03011201 	movweq	r1, #4609	; 0x1201
 ef4:	25081b08 	strcs	r1, [r8, #-2824]
 ef8:	00051308 	andeq	r1, r5, r8, lsl #6
	...

Disassembly of section .debug_info:

00000000 <.debug_info>:
       0:	00000302 	andeq	r0, r0, r2, lsl #6
       4:	00000002 	andeq	r0, r0, r2
       8:	01040000 	tsteq	r4, r0
       c:	000000e5 	andeq	r0, r0, r5, ror #1
      10:	00025101 	andeq	r5, r2, r1, lsl #2
      14:	00008200 	andeq	r8, r0, r0, lsl #4
      18:	00000000 	andeq	r0, r0, r0
      1c:	000360f0 	strdeq	r6, [r3], -r0
      20:	000000f0 	strdeq	r0, [r0], -r0
      24:	017d0200 	cmneq	sp, r0, lsl #4
      28:	02080000 	andeq	r0, r8, #0	; 0x0
      2c:	00004e34 	andeq	r4, r0, r4, lsr lr
      30:	01560300 	cmpeq	r6, r0, lsl #6
      34:	35020000 	strcc	r0, [r2]
      38:	0000004e 	andeq	r0, r0, lr, asr #32
      3c:	03002302 	movweq	r2, #770	; 0x302
      40:	00000222 	andeq	r0, r0, r2, lsr #4
      44:	00553602 	subseq	r3, r5, r2, lsl #12
      48:	23020000 	movwcs	r0, #8192	; 0x2000
      4c:	04040004 	streq	r0, [r4], #-4
      50:	00021507 	andeq	r1, r2, r7, lsl #10
      54:	08010400 	stmdaeq	r1, {sl}
      58:	000001b7 	strheq	r0, [r0], -r7
      5c:	0002e502 	andeq	lr, r2, r2, lsl #10
      60:	3d020800 	stccc	8, cr0, [r2]
      64:	00000085 	andeq	r0, r0, r5, lsl #1
      68:	00201403 	eoreq	r1, r0, r3, lsl #8
      6c:	4e3e0200 	cdpmi	2, 3, cr0, cr14, cr0, {0}
      70:	02000000 	andeq	r0, r0, #0	; 0x0
      74:	5f030023 	svcpl	0x00030023
      78:	02000000 	andeq	r0, r0, #0	; 0x0
      7c:	0000853f 	andeq	r8, r0, pc, lsr r5
      80:	04230200 	strteq	r0, [r3], #-512
      84:	05040500 	streq	r0, [r4, #-1280]
      88:	00746e69 	rsbseq	r6, r4, r9, ror #28
      8c:	00023502 	andeq	r3, r2, r2, lsl #10
      90:	46021000 	strmi	r1, [r2], -r0
      94:	000000b5 	strheq	r0, [r0], -r5
      98:	0002e803 	andeq	lr, r2, r3, lsl #16
      9c:	5c470200 	sfmpl	f0, 2, [r7], {0}
      a0:	02000000 	andeq	r0, r0, #0	; 0x0
      a4:	80030023 	andhi	r0, r3, r3, lsr #32
      a8:	02000001 	andeq	r0, r0, #1	; 0x1
      ac:	00002548 	andeq	r2, r0, r8, asr #10
      b0:	08230200 	stmdaeq	r3!, {r9}
      b4:	06010400 	streq	r0, [r1], -r0, lsl #8
      b8:	000001b9 	strheq	r0, [r0], -r9
      bc:	c5050204 	strgt	r0, [r5, #-516]
      c0:	04000001 	streq	r0, [r0], #-1
      c4:	026d0702 	rsbeq	r0, sp, #524288	; 0x80000
      c8:	50060000 	andpl	r0, r6, r0
      cc:	06000001 	streq	r0, [r0], -r1
      d0:	00004e1a 	andeq	r4, r0, sl, lsl lr
      d4:	05080400 	streq	r0, [r8, #-1024]
      d8:	00000167 	andeq	r0, r0, r7, ror #2
      dc:	0b070804 	bleq	1c20f4 <__standby_start+0x1c20f4>
      e0:	07000002 	streq	r0, [r0, -r2]
      e4:	9f020704 	svcls	0x00020704
      e8:	04000002 	streq	r0, [r0], #-2
      ec:	01481903 	cmpeq	r8, r3, lsl #18
      f0:	00080000 	andeq	r0, r8, r0
      f4:	03000000 	movweq	r0, #0	; 0x0
      f8:	0000ca1a 	andeq	ip, r0, sl, lsl sl
      fc:	1c040400 	cfstrsne	mvf0, [r4], {0}
     100:	08002302 	stmdaeq	r0, {r1, r8, r9, sp}
     104:	000000f1 	strdeq	r0, [r0], -r1
     108:	00ca1b03 	sbceq	r1, sl, r3, lsl #22
     10c:	04040000 	streq	r0, [r4]
     110:	00230218 	eoreq	r0, r3, r8, lsl r2
     114:	00017508 	andeq	r7, r1, r8, lsl #10
     118:	ca1c0300 	bgt	700d20 <__standby_start+0x700d20>
     11c:	04000000 	streq	r0, [r0]
     120:	23021404 	movwcs	r1, #9220	; 0x2404
     124:	015f0800 	cmpeq	pc, r0, lsl #16
     128:	1d030000 	stcne	0, cr0, [r3]
     12c:	000000ca 	andeq	r0, r0, sl, asr #1
     130:	02100404 	andseq	r0, r0, #67108864	; 0x4000000
     134:	30080023 	andcc	r0, r8, r3, lsr #32
     138:	03000003 	movweq	r0, #3	; 0x3
     13c:	0000ca1e 	andeq	ip, r0, lr, lsl sl
     140:	00100400 	andseq	r0, r0, r0, lsl #8
     144:	00002302 	andeq	r2, r0, r2, lsl #6
     148:	00024009 	andeq	r4, r2, r9
     14c:	17040400 	strne	r0, [r4, -r0, lsl #8]
     150:	0000017f 	andeq	r0, r0, pc, ror r1
     154:	0001200a 	andeq	r2, r1, sl
     158:	300a0000 	andcc	r0, sl, r0
     15c:	01000001 	tsteq	r0, r1
     160:	0001400a 	andeq	r4, r1, sl
     164:	cf0a0200 	svcgt	0x000a0200
     168:	03000001 	movweq	r0, #1	; 0x1
     16c:	0001de0a 	andeq	sp, r1, sl, lsl #28
     170:	ed0a0400 	cfstrs	mvf0, [sl]
     174:	05000001 	streq	r0, [r0, #-1]
     178:	0001fc0a 	andeq	pc, r1, sl, lsl #24
     17c:	09000600 	stmdbeq	r0, {r9, sl}
     180:	0000010d 	andeq	r0, r0, sp, lsl #2
     184:	e2190504 	ands	r0, r9, #16777216	; 0x1000000
     188:	0a000001 	beq	194 <__standby_start+0x194>
     18c:	0000025b 	andeq	r0, r0, fp, asr r2
     190:	03010a00 	movweq	r0, #6656	; 0x1a00
     194:	0a050000 	beq	14019c <__standby_start+0x14019c>
     198:	00000310 	andeq	r0, r0, r0, lsl r3
     19c:	02d30a06 	sbcseq	r0, r3, #24576	; 0x6000
     1a0:	0a150000 	beq	5401a8 <__standby_start+0x5401a8>
     1a4:	000002af 	andeq	r0, r0, pc, lsr #5
     1a8:	02c10a16 	sbceq	r0, r1, #90112	; 0x16000
     1ac:	0a170000 	beq	5c01b4 <__standby_start+0x5c01b4>
     1b0:	0000031f 	andeq	r0, r0, pc, lsl r3
     1b4:	00f90a18 	rscseq	r0, r9, r8, lsl sl
     1b8:	0a1d0000 	beq	7401c0 <__standby_start+0x7401c0>
     1bc:	0000028e 	andeq	r0, r0, lr, lsl #5
     1c0:	00080a1f 	andeq	r0, r8, pc, lsl sl
     1c4:	0a260000 	beq	9801cc <__standby_start+0x9801cc>
     1c8:	00000018 	andeq	r0, r0, r8, lsl r0
     1cc:	00680a27 	rsbeq	r0, r8, r7, lsr #20
     1d0:	0a280000 	beq	a001d8 <__standby_start+0xa001d8>
     1d4:	0000003f 	andeq	r0, r0, pc, lsr r0
     1d8:	4f0a00c0 	svcmi	0x000a00c0
     1dc:	c1000000 	tstgt	r0, r0
     1e0:	d80b0000 	stmdale	fp, {}
     1e4:	01000000 	tsteq	r0, r0
     1e8:	0c0101af 	stfeqs	f0, [r1], {175}
     1ec:	0000e001 	andeq	lr, r0, r1
     1f0:	01390100 	teqeq	r9, r0, lsl #2
     1f4:	00000085 	andeq	r0, r0, r5, lsl #1
     1f8:	f0000000 	undefined instruction 0xf0000000
     1fc:	f0000360 	undefined instruction 0xf0000360
     200:	00000000 	andeq	r0, r0, r0
     204:	00000236 	andeq	r0, r0, r6, lsr r2
     208:	6772610d 	ldrbvs	r6, [r2, -sp, lsl #2]!
     20c:	36380100 	ldrtcc	r0, [r8], -r0, lsl #2
     210:	1f000002 	svcne	0x00000002
     214:	0e000000 	cdpeq	0, 0, cr0, cr0, cr0, {0}
     218:	00000188 	andeq	r0, r0, r8, lsl #3
     21c:	023c3a01 	eorseq	r3, ip, #4096	; 0x1000
     220:	003d0000 	eorseq	r0, sp, r0
     224:	e20f0000 	and	r0, pc, #0	; 0x0
     228:	38000001 	stmdacc	r0, {r0}
     22c:	c8f00001 	ldmgt	r0!, {r0}^
     230:	01f00002 	mvnseq	r0, r2
     234:	0410007c 	ldreq	r0, [r0], #-124
     238:	0000008c 	andeq	r0, r0, ip, lsl #1
     23c:	02420410 	subeq	r0, r2, #268435456	; 0x10000000
     240:	01040000 	tsteq	r4, r0
     244:	0001c008 	andeq	ip, r1, r8
     248:	022b1100 	eoreq	r1, fp, #0	; 0x0
     24c:	1e010000 	cdpne	0, 0, cr0, cr1, cr0, {0}
     250:	000000ca 	andeq	r0, r0, sl, asr #1
     254:	1fe00305 	svcne	0x00e00305
     258:	f511f000 	undefined instruction 0xf511f000
     25c:	01000002 	tsteq	r0, r2
     260:	0000ca20 	andeq	ip, r0, r0, lsr #20
     264:	e4030500 	str	r0, [r3], #-1280
     268:	11f0001f 	mvnsne	r0, pc, lsl r0
     26c:	000002fb 	strdeq	r0, [r0], -fp
     270:	00ca2001 	sbceq	r2, sl, r1
     274:	03050000 	movweq	r0, #20480	; 0x5000
     278:	f0001fe8 	undefined instruction 0xf0001fe8
     27c:	00019311 	andeq	r9, r1, r1, lsl r3
     280:	e6210100 	strt	r0, [r1], -r0, lsl #2
     284:	05000000 	streq	r0, [r0]
     288:	001fec03 	andseq	lr, pc, r3, lsl #24
     28c:	018f11f0 	strdeq	r1, [pc, r0]
     290:	22010000 	andcs	r0, r1, #0	; 0x0
     294:	000000e6 	andeq	r0, r0, r6, ror #1
     298:	1ff00305 	svcne	0x00f00305
     29c:	ca12f000 	bgt	4bc2a4 <__standby_start+0x4bc2a4>
     2a0:	ae000000 	cdpge	0, 0, cr0, cr0, cr0, {0}
     2a4:	13000002 	movwne	r0, #2	; 0x2
     2a8:	000000e3 	andeq	r0, r0, r3, ror #1
     2ac:	2811000f 	ldmdacs	r1, {r0, r1, r2, r3}
     2b0:	01000000 	tsteq	r0, r0
     2b4:	00029e29 	andeq	r9, r2, r9, lsr #28
     2b8:	a0030500 	andge	r0, r3, r0, lsl #10
     2bc:	14f0001f 	ldrbtne	r0, [r0], #31
     2c0:	00000238 	andeq	r0, r0, r8, lsr r2
     2c4:	008c2501 	addeq	r2, ip, r1, lsl #10
     2c8:	05010000 	streq	r0, [r1]
     2cc:	00207403 	eoreq	r7, r0, r3, lsl #8
     2d0:	01ab15f0 	strdeq	r1, [fp, r0]!
     2d4:	19010000 	stmdbne	r1, {}
     2d8:	0000023c 	andeq	r0, r0, ip, lsr r2
     2dc:	78150101 	ldmdavc	r5, {r0, r8}
     2e0:	01000000 	tsteq	r0, r0
     2e4:	00023c1a 	andeq	r3, r2, sl, lsl ip
     2e8:	15010100 	strne	r0, [r1, #-256]
     2ec:	0000019b 	muleq	r0, fp, r1
     2f0:	023c1b01 	eorseq	r1, ip, #1024	; 0x400
     2f4:	01010000 	tsteq	r1, r0
     2f8:	00028015 	andeq	r8, r2, r5, lsl r0
     2fc:	3c1c0100 	ldfccs	f0, [ip], {0}
     300:	01000002 	tsteq	r0, r2
     304:	00fd0001 	rscseq	r0, sp, r1
     308:	00020000 	andeq	r0, r2, r0
     30c:	0000012c 	andeq	r0, r0, ip, lsr #2
     310:	00e50104 	rsceq	r0, r5, r4, lsl #2
     314:	7b010000 	blvc	4031c <__standby_start+0x4031c>
     318:	82000003 	andhi	r0, r0, #3	; 0x3
     31c:	60000000 	andvs	r0, r0, r0
     320:	acf00003 	ldclge	0, cr0, [r0], #12
     324:	51f00003 	mvnspl	r0, r3
     328:	02000001 	andeq	r0, r0, #1	; 0x1
     32c:	02150704 	andseq	r0, r5, #1048576	; 0x100000
     330:	01020000 	tsteq	r2, r0
     334:	0001b708 	andeq	fp, r1, r8, lsl #14
     338:	05040300 	streq	r0, [r4, #-768]
     33c:	00746e69 	rsbseq	r6, r4, r9, ror #28
     340:	b9060102 	stmdblt	r6, {r1, r8}
     344:	02000001 	andeq	r0, r0, #1	; 0x1
     348:	01c50502 	biceq	r0, r5, r2, lsl #10
     34c:	02020000 	andeq	r0, r2, #0	; 0x0
     350:	00026d07 	andeq	r6, r2, r7, lsl #26
     354:	01500400 	cmpeq	r0, r0, lsl #8
     358:	1a020000 	bne	80360 <__standby_start+0x80360>
     35c:	00000025 	andeq	r0, r0, r5, lsr #32
     360:	67050802 	strvs	r0, [r5, -r2, lsl #16]
     364:	02000001 	andeq	r0, r0, #1	; 0x1
     368:	020b0708 	andeq	r0, fp, #2097152	; 0x200000
     36c:	04050000 	streq	r0, [r5]
     370:	64010607 	strvs	r0, [r1], #-1543
     374:	01000003 	tsteq	r0, r3
     378:	03600124 	cmneq	r0, #9	; 0x9
     37c:	0398f000 	orrseq	pc, r8, #0	; 0x0
     380:	5d01f000 	stcpl	0, cr15, [r1]
     384:	000000be 	strheq	r0, [r0], -lr
     388:	00033907 	andeq	r3, r3, r7, lsl #18
     38c:	be230100 	suflts	f0, f3, f0
     390:	01000000 	tsteq	r0, r0
     394:	72730850 	rsbsvc	r0, r3, #5242880	; 0x500000
     398:	23010063 	movwcs	r0, #4195	; 0x1063
     39c:	000000be 	strheq	r0, [r0], -lr
     3a0:	6e085101 	adfvse	f5, f0, f1
     3a4:	33230100 	teqcc	r3, #0	; 0x0
     3a8:	01000000 	tsteq	r0, r0
     3ac:	03730952 	cmneq	r3, #1343488	; 0x148000
     3b0:	25010000 	strcs	r0, [r1]
     3b4:	000000c0 	andeq	r0, r0, r0, asr #1
     3b8:	00034d09 	andeq	r4, r3, r9, lsl #26
     3bc:	c0260100 	eorgt	r0, r6, r0, lsl #2
     3c0:	00000000 	andeq	r0, r0, r0
     3c4:	040b040a 	streq	r0, [fp], #-1034
     3c8:	000000c6 	andeq	r0, r0, r6, asr #1
     3cc:	c0080102 	andgt	r0, r8, r2, lsl #2
     3d0:	06000001 	streq	r0, [r0], -r1
     3d4:	00033e01 	andeq	r3, r3, r1, lsl #28
     3d8:	01440100 	cmpeq	r4, r0, lsl #2
     3dc:	f0000398 	undefined instruction 0xf0000398
     3e0:	f00003ac 	undefined instruction 0xf00003ac
     3e4:	00f35d01 	rscseq	r5, r3, r1, lsl #26
     3e8:	6d0c0000 	stcvs	0, cr0, [ip]
     3ec:	43010073 	movwmi	r0, #4211	; 0x1073
     3f0:	00000033 	andeq	r0, r0, r3, lsr r0
     3f4:	00000050 	andeq	r0, r0, r0, asr r0
     3f8:	03550d00 	cmpeq	r5, #0	; 0x0
     3fc:	33030000 	movwcc	r0, #12288	; 0x3000
     400:	0000004f 	andeq	r0, r0, pc, asr #32
     404:	8b000101 	blhi	810 <__standby_start+0x810>
     408:	02000000 	andeq	r0, r0, #0	; 0x0
     40c:	0001de00 	andeq	sp, r1, r0, lsl #28
     410:	b3010400 	movwlt	r0, #5120	; 0x1400
     414:	ac000001 	stcge	0, cr0, [r0], {1}
     418:	d0f00003 	rscsle	r0, r0, r3
     41c:	73f00004 	mvnsvc	r0, #4	; 0x4
     420:	6b636174 	blvs	18d89f8 <__standby_start+0x18d89f8>
     424:	2f00532e 	svccs	0x0000532e
     428:	6964656d 	stmdbvs	r4!, {r0, r2, r3, r5, r6, r8, sl, sp, lr}^
     42c:	62332f61 	eorsvs	r2, r3, #388	; 0x184
     430:	62636137 	rsbvs	r6, r3, #-1073741811	; 0xc000000d
     434:	392d3937 	pushcc	{r0, r1, r2, r4, r5, r8, fp, ip, sp}
     438:	2d333833 	ldccs	8, cr3, [r3, #-204]!
     43c:	66386334 	undefined
     440:	3333382d 	teqcc	r3, #2949120	; 0x2d0000
     444:	32352d36 	eorscc	r2, r5, #3456	; 0xd80
     448:	62643430 	rsbvs	r3, r4, #805306368	; 0x30000000
     44c:	63326163 	teqvs	r2, #-1073741800	; 0xc0000018
     450:	6c2f6134 	stfvss	f6, [pc], #-208
     454:	78756e69 	ldmdavc	r5!, {r0, r3, r5, r6, r9, sl, fp, sp, lr}^
     458:	362e322d 	strtcc	r3, [lr], -sp, lsr #4
     45c:	2d36332e 	ldccs	3, cr3, [r6, #-184]!
     460:	346e7573 	strbtcc	r7, [lr], #-1395
     464:	72612f69 	rsbvc	r2, r1, #420	; 0x1a4
     468:	612f6863 	teqvs	pc, r3, ror #16
     46c:	6d2f6d72 	stcvs	13, cr6, [pc, #-456]!
     470:	2d686361 	stclcs	3, cr6, [r8, #-388]!
     474:	346e7573 	strbtcc	r7, [lr], #-1395
     478:	6d702f69 	ldclvs	15, cr2, [r0, #-420]!
     47c:	6174732f 	cmnvs	r4, pc, lsr #6
     480:	7962646e 	stmdbvc	r2!, {r1, r2, r3, r5, r6, sl, sp, lr}^
     484:	554e4700 	strbpl	r4, [lr, #-1792]
     488:	20534120 	subscs	r4, r3, r0, lsr #2
     48c:	39312e32 	ldmdbcc	r1!, {r1, r4, r5, r9, sl, fp, sp}
     490:	0031352e 	eorseq	r3, r1, lr, lsr #10
     494:	23048001 	movwcs	r8, #16385	; 0x4001
     498:	00020000 	andeq	r0, r2, r0
     49c:	000001f2 	strdeq	r0, [r0], -r2
     4a0:	00e50104 	rsceq	r0, r5, r4, lsl #2
     4a4:	6b010000 	blvs	404ac <__standby_start+0x404ac>
     4a8:	8200000b 	andhi	r0, r0, #11	; 0xb
     4ac:	d0000000 	andle	r0, r0, r0
     4b0:	fcf00004 	ldc2l	0, cr0, [r0], #16
     4b4:	21f00008 	mvnscs	r0, r8
     4b8:	02000002 	andeq	r0, r0, #2	; 0x2
     4bc:	02150704 	andseq	r0, r5, #1048576	; 0x100000
     4c0:	01020000 	tsteq	r2, r0
     4c4:	0001b708 	andeq	fp, r1, r8, lsl #14
     4c8:	05040300 	streq	r0, [r4, #-768]
     4cc:	00746e69 	rsbseq	r6, r4, r9, ror #28
     4d0:	b9060102 	stmdblt	r6, {r1, r8}
     4d4:	02000001 	andeq	r0, r0, #1	; 0x1
     4d8:	01c50502 	biceq	r0, r5, r2, lsl #10
     4dc:	02020000 	andeq	r0, r2, #0	; 0x0
     4e0:	00026d07 	andeq	r6, r2, r7, lsl #26
     4e4:	0df90400 	cfldrdeq	mvd0, [r9]
     4e8:	19020000 	stmdbne	r2, {}
     4ec:	00000033 	andeq	r0, r0, r3, lsr r0
     4f0:	00015004 	andeq	r5, r1, r4
     4f4:	251a0200 	ldrcs	r0, [sl, #-512]
     4f8:	02000000 	andeq	r0, r0, #0	; 0x0
     4fc:	01670508 	cmneq	r7, r8, lsl #10
     500:	08020000 	stmdaeq	r2, {}
     504:	00020b07 	andeq	r0, r2, r7, lsl #22
     508:	0cb40500 	cfldr32eq	mvfx0, [r4]
     50c:	03040000 	movweq	r0, #16384	; 0x4000
     510:	00016e17 	andeq	r6, r1, r7, lsl lr
     514:	073d0600 	ldreq	r0, [sp, -r0, lsl #12]!
     518:	18030000 	stmdane	r3, {}
     51c:	0000005a 	andeq	r0, r0, sl, asr r0
     520:	021e0204 	andseq	r0, lr, #1073741824	; 0x40000000
     524:	f1060023 	undefined instruction 0xf1060023
     528:	0300000a 	movweq	r0, #10	; 0xa
     52c:	00005a19 	andeq	r5, r0, r9, lsl sl
     530:	1d010400 	cfstrsne	mvf0, [r1]
     534:	06002302 	streq	r2, [r0], -r2, lsl #6
     538:	00000ef6 	strdeq	r0, [r0], -r6
     53c:	005a1a03 	subseq	r1, sl, r3, lsl #20
     540:	01040000 	tsteq	r4, r0
     544:	0023021c 	eoreq	r0, r3, ip, lsl r2
     548:	00073506 	andeq	r3, r7, r6, lsl #10
     54c:	5a1b0300 	bpl	6c1154 <__standby_start+0x6c1154>
     550:	04000000 	streq	r0, [r0]
     554:	23021a02 	movwcs	r1, #10754	; 0x2a02
     558:	0fc30600 	svceq	0x00c30600
     55c:	1c030000 	stcne	0, cr0, [r3], {0}
     560:	0000005a 	andeq	r0, r0, sl, asr r0
     564:	02180204 	andseq	r0, r8, #1073741824	; 0x40000000
     568:	45060023 	strmi	r0, [r6, #-35]
     56c:	03000007 	movweq	r0, #7	; 0x7
     570:	00005a1d 	andeq	r5, r0, sp, lsl sl
     574:	13050400 	movwne	r0, #21504	; 0x5400
     578:	06002302 	streq	r2, [r0], -r2, lsl #6
     57c:	0000126f 	andeq	r1, r0, pc, ror #4
     580:	005a1e03 	subseq	r1, sl, r3, lsl #28
     584:	03040000 	movweq	r0, #16384	; 0x4000
     588:	00230210 	eoreq	r0, r3, r0, lsl r2
     58c:	00086606 	andeq	r6, r8, r6, lsl #12
     590:	5a1f0300 	bpl	7c1198 <__standby_start+0x7c1198>
     594:	04000000 	streq	r0, [r0]
     598:	23020e02 	movwcs	r0, #11778	; 0x2e02
     59c:	0fcd0600 	svceq	0x00cd0600
     5a0:	20030000 	andcs	r0, r3, r0
     5a4:	0000005a 	andeq	r0, r0, sl, asr r0
     5a8:	020c0204 	andeq	r0, ip, #1073741824	; 0x40000000
     5ac:	c0060023 	andgt	r0, r6, r3, lsr #32
     5b0:	03000010 	movweq	r0, #16	; 0x10
     5b4:	00005a21 	andeq	r5, r0, r1, lsr #20
     5b8:	07050400 	streq	r0, [r5, -r0, lsl #8]
     5bc:	06002302 	streq	r2, [r0], -r2, lsl #6
     5c0:	00000bc9 	andeq	r0, r0, r9, asr #23
     5c4:	005a2203 	subseq	r2, sl, r3, lsl #4
     5c8:	01040000 	tsteq	r4, r0
     5cc:	00230206 	eoreq	r0, r3, r6, lsl #4
     5d0:	000f5006 	andeq	r5, pc, r6
     5d4:	5a230300 	bpl	8c11dc <__standby_start+0x8c11dc>
     5d8:	04000000 	streq	r0, [r0]
     5dc:	23020204 	movwcs	r0, #8708	; 0x2204
     5e0:	0c190600 	ldceq	6, cr0, [r9], {0}
     5e4:	24030000 	strcs	r0, [r3]
     5e8:	0000005a 	andeq	r0, r0, sl, asr r0
     5ec:	02010104 	andeq	r0, r1, #1	; 0x1
     5f0:	59060023 	stmdbpl	r6, {r0, r1, r5}
     5f4:	03000010 	movweq	r0, #16	; 0x10
     5f8:	00005a25 	andeq	r5, r0, r5, lsr #20
     5fc:	00010400 	andeq	r0, r1, r0, lsl #8
     600:	00002302 	andeq	r2, r0, r2, lsl #6
     604:	000a5204 	andeq	r5, sl, r4, lsl #4
     608:	73270300 	teqvc	r7, #0	; 0x0
     60c:	05000000 	streq	r0, [r0]
     610:	000011ae 	andeq	r1, r0, lr, lsr #3
     614:	db2a0304 	blle	a8122c <__standby_start+0xa8122c>
     618:	06000001 	streq	r0, [r0], -r1
     61c:	00000fc3 	andeq	r0, r0, r3, asr #31
     620:	005a2b03 	subseq	r2, sl, r3, lsl #22
     624:	10040000 	andne	r0, r4, r0
     628:	00230210 	eoreq	r0, r3, r0, lsl r2
     62c:	0010ad06 	andseq	sl, r0, r6, lsl #26
     630:	5a2c0300 	bpl	b01238 <__standby_start+0xb01238>
     634:	04000000 	streq	r0, [r0]
     638:	23020907 	movwcs	r0, #10503	; 0x2907
     63c:	13070600 	movwne	r0, #30208	; 0x7600
     640:	2d030000 	stccs	0, cr0, [r3]
     644:	0000005a 	andeq	r0, r0, sl, asr r0
     648:	02080104 	andeq	r0, r8, #1	; 0x1
     64c:	a3060023 	movwge	r0, #24611	; 0x6023
     650:	03000005 	movweq	r0, #5	; 0x5
     654:	00005a2e 	andeq	r5, r0, lr, lsr #20
     658:	07010400 	streq	r0, [r1, -r0, lsl #8]
     65c:	06002302 	streq	r2, [r0], -r2, lsl #6
     660:	00000a10 	andeq	r0, r0, r0, lsl sl
     664:	005a2f03 	subseq	r2, sl, r3, lsl #30
     668:	04040000 	streq	r0, [r4]
     66c:	00230203 	eoreq	r0, r3, r3, lsl #4
     670:	066f0400 	strbteq	r0, [pc], -r0, lsl #8
     674:	30030000 	andcc	r0, r3, r0
     678:	00000179 	andeq	r0, r0, r9, ror r1
     67c:	000c6b05 	andeq	r6, ip, r5, lsl #22
     680:	34030400 	strcc	r0, [r3], #-1024
     684:	0000028c 	andeq	r0, r0, ip, lsl #5
     688:	000f5006 	andeq	r5, pc, r6
     68c:	5a350300 	bpl	d41294 <__standby_start+0xd41294>
     690:	04000000 	streq	r0, [r0]
     694:	23021b05 	movwcs	r1, #11013	; 0x2b05
     698:	0fc30600 	svceq	0x00c30600
     69c:	36030000 	strcc	r0, [r3], -r0
     6a0:	0000005a 	andeq	r0, r0, sl, asr r0
     6a4:	02180304 	andseq	r0, r8, #268435456	; 0x10000000
     6a8:	45060023 	strmi	r0, [r6, #-35]
     6ac:	03000007 	movweq	r0, #7	; 0x7
     6b0:	00005a37 	andeq	r5, r0, r7, lsr sl
     6b4:	11070400 	tstne	r7, r0, lsl #8
     6b8:	06002302 	streq	r2, [r0], -r2, lsl #6
     6bc:	00000fcd 	andeq	r0, r0, sp, asr #31
     6c0:	005a3803 	subseq	r3, sl, r3, lsl #16
     6c4:	01040000 	tsteq	r4, r0
     6c8:	00230210 	eoreq	r0, r3, r0, lsl r2
     6cc:	0010c006 	andseq	ip, r0, r6
     6d0:	5a390300 	bpl	e412d8 <__standby_start+0xe412d8>
     6d4:	04000000 	streq	r0, [r0]
     6d8:	23020b05 	movwcs	r0, #11013	; 0x2b05
     6dc:	0fd70600 	svceq	0x00d70600
     6e0:	3a030000 	bcc	c06e8 <__standby_start+0xc06e8>
     6e4:	0000005a 	andeq	r0, r0, sl, asr r0
     6e8:	02040704 	andeq	r0, r4, #1048576	; 0x100000
     6ec:	70060023 	andvc	r0, r6, r3, lsr #32
     6f0:	0300000d 	movweq	r0, #13	; 0xd
     6f4:	00005a3b 	andeq	r5, r0, fp, lsr sl
     6f8:	03010400 	movweq	r0, #5120	; 0x1400
     6fc:	06002302 	streq	r2, [r0], -r2, lsl #6
     700:	00000fe1 	andeq	r0, r0, r1, ror #31
     704:	005a3c03 	subseq	r3, sl, r3, lsl #24
     708:	02040000 	andeq	r0, r4, #0	; 0x0
     70c:	00230201 	eoreq	r0, r3, r1, lsl #4
     710:	00105906 	andseq	r5, r0, r6, lsl #18
     714:	5a3d0300 	bpl	f4131c <__standby_start+0xf4131c>
     718:	04000000 	streq	r0, [r0]
     71c:	23020001 	movwcs	r0, #8193	; 0x2001
     720:	2a040000 	bcs	100728 <__standby_start+0x100728>
     724:	03000008 	movweq	r0, #8	; 0x8
     728:	0001e63e 	andeq	lr, r1, lr, lsr r6
     72c:	04290500 	strteq	r0, [r9], #-1280
     730:	03040000 	movweq	r0, #16384	; 0x4000
     734:	00030a42 	andeq	r0, r3, r2, asr #20
     738:	0b250600 	bleq	941f40 <__standby_start+0x941f40>
     73c:	43030000 	movwmi	r0, #12288	; 0x3000
     740:	0000005a 	andeq	r0, r0, sl, asr r0
     744:	020f1104 	andeq	r1, pc, #1	; 0x1
     748:	2e060023 	cdpcs	0, 0, cr0, cr6, cr3, {1}
     74c:	03000013 	movweq	r0, #19	; 0x13
     750:	00005a44 	andeq	r5, r0, r4, asr #20
     754:	0d020400 	cfstrseq	mvf0, [r2]
     758:	06002302 	streq	r2, [r0], -r2, lsl #6
     75c:	00000fc3 	andeq	r0, r0, r3, asr #31
     760:	005a4503 	subseq	r4, sl, r3, lsl #10
     764:	01040000 	tsteq	r4, r0
     768:	0023020c 	eoreq	r0, r3, ip, lsl #4
     76c:	00038a06 	andeq	r8, r3, r6, lsl #20
     770:	5a460300 	bpl	1181378 <__standby_start+0x1181378>
     774:	04000000 	streq	r0, [r0]
     778:	23020309 	movwcs	r0, #8969	; 0x2309
     77c:	085d0600 	ldmdaeq	sp, {r9, sl}^
     780:	47030000 	strmi	r0, [r3, -r0]
     784:	0000005a 	andeq	r0, r0, sl, asr r0
     788:	02010204 	andeq	r0, r1, #1073741824	; 0x40000000
     78c:	f1060023 	undefined instruction 0xf1060023
     790:	0300000a 	movweq	r0, #10	; 0xa
     794:	00005a48 	andeq	r5, r0, r8, asr #20
     798:	00010400 	andeq	r0, r1, r0, lsl #8
     79c:	00002302 	andeq	r2, r0, r2, lsl #6
     7a0:	000ed904 	andeq	sp, lr, r4, lsl #18
     7a4:	974a0300 	strbls	r0, [sl, -r0, lsl #6]
     7a8:	05000002 	streq	r0, [r0, #-2]
     7ac:	00000f11 	andeq	r0, r0, r1, lsl pc
     7b0:	dd4e0304 	stclle	3, cr0, [lr, #-16]
     7b4:	06000003 	streq	r0, [r0], -r3
     7b8:	0000073d 	andeq	r0, r0, sp, lsr r7
     7bc:	005a4f03 	subseq	r4, sl, r3, lsl #30
     7c0:	07040000 	streq	r0, [r4, -r0]
     7c4:	00230219 	eoreq	r0, r3, r9, lsl r2
     7c8:	000fc306 	andeq	ip, pc, r6, lsl #6
     7cc:	5a500300 	bpl	14013d4 <__standby_start+0x14013d4>
     7d0:	04000000 	streq	r0, [r0]
     7d4:	23021801 	movwcs	r1, #10241	; 0x2801
     7d8:	10c00600 	sbcne	r0, r0, r0, lsl #12
     7dc:	51030000 	tstpl	r3, r0
     7e0:	0000005a 	andeq	r0, r0, sl, asr r0
     7e4:	02130504 	andseq	r0, r3, #16777216	; 0x1000000
     7e8:	cd060023 	stcgt	0, cr0, [r6, #-140]
     7ec:	0300000f 	movweq	r0, #15	; 0xf
     7f0:	00005a52 	andeq	r5, r0, r2, asr sl
     7f4:	12010400 	andne	r0, r1, #0	; 0x0
     7f8:	06002302 	streq	r2, [r0], -r2, lsl #6
     7fc:	00000bd4 	ldrdeq	r0, [r0], -r4
     800:	005a5303 	subseq	r5, sl, r3, lsl #6
     804:	01040000 	tsteq	r4, r0
     808:	00230211 	eoreq	r0, r3, r1, lsl r2
     80c:	000daa06 	andeq	sl, sp, r6, lsl #20
     810:	5a540300 	bpl	1501418 <__standby_start+0x1501418>
     814:	04000000 	streq	r0, [r0]
     818:	23021001 	movwcs	r1, #8193	; 0x2001
     81c:	0f500600 	svceq	0x00500600
     820:	55030000 	strpl	r0, [r3]
     824:	0000005a 	andeq	r0, r0, sl, asr r0
     828:	020b0504 	andeq	r0, fp, #16777216	; 0x1000000
     82c:	d7060023 	strle	r0, [r6, -r3, lsr #32]
     830:	0300000f 	movweq	r0, #15	; 0xf
     834:	00005a56 	andeq	r5, r0, r6, asr sl
     838:	08030400 	stmdaeq	r3, {sl}
     83c:	06002302 	streq	r2, [r0], -r2, lsl #6
     840:	00000a10 	andeq	r0, r0, r0, lsl sl
     844:	005a5703 	subseq	r5, sl, r3, lsl #14
     848:	03040000 	movweq	r0, #16384	; 0x4000
     84c:	00230205 	eoreq	r0, r3, r5, lsl #4
     850:	000fe106 	andeq	lr, pc, r6, lsl #2
     854:	5a580300 	bpl	160145c <__standby_start+0x160145c>
     858:	04000000 	streq	r0, [r0]
     85c:	23020104 	movwcs	r0, #8452	; 0x2104
     860:	10590600 	subsne	r0, r9, r0, lsl #12
     864:	59030000 	stmdbpl	r3, {}
     868:	0000005a 	andeq	r0, r0, sl, asr r0
     86c:	02000104 	andeq	r0, r0, #1	; 0x1
     870:	04000023 	streq	r0, [r0], #-35
     874:	00000d00 	andeq	r0, r0, r0, lsl #26
     878:	03155a03 	tsteq	r5, #12288	; 0x3000
     87c:	8c050000 	stchi	0, cr0, [r5], {0}
     880:	04000006 	streq	r0, [r0], #-6
     884:	04d25e03 	ldrbeq	r5, [r2], #3587
     888:	3d060000 	stccc	0, cr0, [r6]
     88c:	03000007 	movweq	r0, #7	; 0x7
     890:	00005a5f 	andeq	r5, r0, pc, asr sl
     894:	1e020400 	cfcpysne	mvf0, mvf2
     898:	06002302 	streq	r2, [r0], -r2, lsl #6
     89c:	00000fc3 	andeq	r0, r0, r3, asr #31
     8a0:	005a6003 	subseq	r6, sl, r3
     8a4:	02040000 	andeq	r0, r4, #0	; 0x0
     8a8:	0023021c 	eoreq	r0, r3, ip, lsl r2
     8ac:	00073506 	andeq	r3, r7, r6, lsl #10
     8b0:	5a610300 	bpl	18414b8 <__standby_start+0x18414b8>
     8b4:	04000000 	streq	r0, [r0]
     8b8:	23021a02 	movwcs	r1, #10754	; 0x2a02
     8bc:	0fcd0600 	svceq	0x00cd0600
     8c0:	62030000 	andvs	r0, r3, #0	; 0x0
     8c4:	0000005a 	andeq	r0, r0, sl, asr r0
     8c8:	02180204 	andseq	r0, r8, #1073741824	; 0x40000000
     8cc:	45060023 	strmi	r0, [r6, #-35]
     8d0:	03000007 	movweq	r0, #7	; 0x7
     8d4:	00005a63 	andeq	r5, r0, r3, ror #20
     8d8:	13050400 	movwne	r0, #21504	; 0x5400
     8dc:	06002302 	streq	r2, [r0], -r2, lsl #6
     8e0:	00000fd7 	ldrdeq	r0, [r0], -r7
     8e4:	005a6403 	subseq	r6, sl, r3, lsl #8
     8e8:	03040000 	movweq	r0, #16384	; 0x4000
     8ec:	00230210 	eoreq	r0, r3, r0, lsl r2
     8f0:	00074d06 	andeq	r4, r7, r6, lsl #26
     8f4:	5a650300 	bpl	19414fc <__standby_start+0x19414fc>
     8f8:	04000000 	streq	r0, [r0]
     8fc:	23020e02 	movwcs	r0, #11778	; 0x2e02
     900:	0fe10600 	svceq	0x00e10600
     904:	66030000 	strvs	r0, [r3], -r0
     908:	0000005a 	andeq	r0, r0, sl, asr r0
     90c:	020d0104 	andeq	r0, sp, #1	; 0x1
     910:	07060023 	streq	r0, [r6, -r3, lsr #32]
     914:	03000013 	movweq	r0, #19	; 0x13
     918:	00005a67 	andeq	r5, r0, r7, ror #20
     91c:	0c010400 	cfstrseq	mvf0, [r1], {0}
     920:	06002302 	streq	r2, [r0], -r2, lsl #6
     924:	000010c0 	andeq	r1, r0, r0, asr #1
     928:	005a6803 	subseq	r6, sl, r3, lsl #16
     92c:	05040000 	streq	r0, [r4]
     930:	00230207 	eoreq	r0, r3, r7, lsl #4
     934:	000f5006 	andeq	r5, pc, r6
     938:	5a690300 	bpl	1a41540 <__standby_start+0x1a41540>
     93c:	04000000 	streq	r0, [r0]
     940:	23020205 	movwcs	r0, #8709	; 0x2205
     944:	0bb40600 	bleq	fed0214c <__bss_end+0xed000c4>
     948:	6a030000 	bvs	c0950 <__standby_start+0xc0950>
     94c:	0000005a 	andeq	r0, r0, sl, asr r0
     950:	02010104 	andeq	r0, r1, #1	; 0x1
     954:	59060023 	stmdbpl	r6, {r0, r1, r5}
     958:	03000010 	movweq	r0, #16	; 0x10
     95c:	00005a6b 	andeq	r5, r0, fp, ror #20
     960:	00010400 	andeq	r0, r1, r0, lsl #8
     964:	00002302 	andeq	r2, r0, r2, lsl #6
     968:	00135904 	andseq	r5, r3, r4, lsl #18
     96c:	e86c0300 	stmda	ip!, {r8, r9}^
     970:	05000003 	streq	r0, [r0, #-3]
     974:	0000064f 	andeq	r0, r0, pc, asr #12
     978:	e9700304 	ldmdb	r0!, {r2, r8, r9}^
     97c:	06000005 	streq	r0, [r0], -r5
     980:	0000073d 	andeq	r0, r0, sp, lsr r7
     984:	005a7103 	subseq	r7, sl, r3, lsl #2
     988:	02040000 	andeq	r0, r4, #0	; 0x0
     98c:	0023021e 	eoreq	r0, r3, lr, lsl r2
     990:	00117206 	andseq	r7, r1, r6, lsl #4
     994:	5a720300 	bpl	1c8159c <__standby_start+0x1c8159c>
     998:	04000000 	streq	r0, [r0]
     99c:	23021c02 	movwcs	r1, #11266	; 0x2c02
     9a0:	07350600 	ldreq	r0, [r5, -r0, lsl #12]!
     9a4:	73030000 	movwvc	r0, #12288	; 0x3000
     9a8:	0000005a 	andeq	r0, r0, sl, asr r0
     9ac:	021a0204 	andseq	r0, sl, #1073741824	; 0x40000000
     9b0:	c3060023 	movwgt	r0, #24611	; 0x6023
     9b4:	0300000f 	movweq	r0, #15	; 0xf
     9b8:	00005a74 	andeq	r5, r0, r4, ror sl
     9bc:	19010400 	stmdbne	r1, {sl}
     9c0:	06002302 	streq	r2, [r0], -r2, lsl #6
     9c4:	0000116b 	andeq	r1, r0, fp, ror #2
     9c8:	005a7503 	subseq	r7, sl, r3, lsl #10
     9cc:	01040000 	tsteq	r4, r0
     9d0:	00230218 	eoreq	r0, r3, r8, lsl r2
     9d4:	00074506 	andeq	r4, r7, r6, lsl #10
     9d8:	5a760300 	bpl	1d815e0 <__standby_start+0x1d815e0>
     9dc:	04000000 	streq	r0, [r0]
     9e0:	23021305 	movwcs	r1, #8965	; 0x2305
     9e4:	13070600 	movwne	r0, #30208	; 0x7600
     9e8:	77030000 	strvc	r0, [r3, -r0]
     9ec:	0000005a 	andeq	r0, r0, sl, asr r0
     9f0:	02100304 	andseq	r0, r0, #268435456	; 0x10000000
     9f4:	4d060023 	stcmi	0, cr0, [r6, #-140]
     9f8:	03000007 	movweq	r0, #7	; 0x7
     9fc:	00005a78 	andeq	r5, r0, r8, ror sl
     a00:	0e020400 	cfcpyseq	mvf0, mvf2
     a04:	06002302 	streq	r2, [r0], -r2, lsl #6
     a08:	000005a3 	andeq	r0, r0, r3, lsr #11
     a0c:	005a7903 	subseq	r7, sl, r3, lsl #18
     a10:	01040000 	tsteq	r4, r0
     a14:	0023020d 	eoreq	r0, r3, sp, lsl #4
     a18:	0004f506 	andeq	pc, r4, r6, lsl #10
     a1c:	5a7a0300 	bpl	1e81624 <__standby_start+0x1e81624>
     a20:	04000000 	streq	r0, [r0]
     a24:	23020c01 	movwcs	r0, #11265	; 0x2c01
     a28:	10c00600 	sbcne	r0, r0, r0, lsl #12
     a2c:	7b030000 	blvc	c0a34 <__standby_start+0xc0a34>
     a30:	0000005a 	andeq	r0, r0, sl, asr r0
     a34:	02070504 	andeq	r0, r7, #16777216	; 0x1000000
     a38:	50060023 	andpl	r0, r6, r3, lsr #32
     a3c:	0300000f 	movweq	r0, #15	; 0xf
     a40:	00005a7c 	andeq	r5, r0, ip, ror sl
     a44:	03040400 	movweq	r0, #17408	; 0x4400
     a48:	06002302 	streq	r2, [r0], -r2, lsl #6
     a4c:	00000943 	andeq	r0, r0, r3, asr #18
     a50:	005a7d03 	subseq	r7, sl, r3, lsl #26
     a54:	01040000 	tsteq	r4, r0
     a58:	00230202 	eoreq	r0, r3, r2, lsl #4
     a5c:	000bb406 	andeq	fp, fp, r6, lsl #8
     a60:	5a7e0300 	bpl	1f81668 <__standby_start+0x1f81668>
     a64:	04000000 	streq	r0, [r0]
     a68:	23020101 	movwcs	r0, #8449	; 0x2101
     a6c:	10590600 	subsne	r0, r9, r0, lsl #12
     a70:	7f030000 	svcvc	0x00030000
     a74:	0000005a 	andeq	r0, r0, sl, asr r0
     a78:	02000104 	andeq	r0, r0, #1	; 0x1
     a7c:	04000023 	streq	r0, [r0], #-35
     a80:	00000806 	andeq	r0, r0, r6, lsl #16
     a84:	04dd8003 	ldrbeq	r8, [sp], #3
     a88:	ec050000 	stc	0, cr0, [r5], {0}
     a8c:	04000012 	streq	r0, [r0], #-18
     a90:	06788403 	ldrbteq	r8, [r8], -r3, lsl #8
     a94:	c3060000 	movwgt	r0, #24576	; 0x6000
     a98:	0300000f 	movweq	r0, #15	; 0xf
     a9c:	00005a85 	andeq	r5, r0, r5, lsl #21
     aa0:	10100400 	andsne	r0, r0, r0, lsl #8
     aa4:	06002302 	streq	r2, [r0], -r2, lsl #6
     aa8:	000010ad 	andeq	r1, r0, sp, lsr #1
     aac:	005a8603 	subseq	r8, sl, r3, lsl #12
     ab0:	07040000 	streq	r0, [r4, -r0]
     ab4:	00230209 	eoreq	r0, r3, r9, lsl #4
     ab8:	000c1906 	andeq	r1, ip, r6, lsl #18
     abc:	5a870300 	bpl	fe1c16c4 <__bss_end+0xe1bf63c>
     ac0:	04000000 	streq	r0, [r0]
     ac4:	23020801 	movwcs	r0, #10241	; 0x2801
     ac8:	126f0600 	rsbne	r0, pc, #0	; 0x0
     acc:	88030000 	stmdahi	r3, {}
     ad0:	0000005a 	andeq	r0, r0, sl, asr r0
     ad4:	02050304 	andeq	r0, r5, #268435456	; 0x10000000
     ad8:	cd060023 	stcgt	0, cr0, [r6, #-140]
     adc:	0300000f 	movweq	r0, #15	; 0xf
     ae0:	00005a89 	andeq	r5, r0, r9, lsl #21
     ae4:	04010400 	streq	r0, [r1], #-1024
     ae8:	06002302 	streq	r2, [r0], -r2, lsl #6
     aec:	00001112 	andeq	r1, r0, r2, lsl r1
     af0:	005a8a03 	subseq	r8, sl, r3, lsl #20
     af4:	01040000 	tsteq	r4, r0
     af8:	00230203 	eoreq	r0, r3, r3, lsl #4
     afc:	000a1006 	andeq	r1, sl, r6
     b00:	5a8b0300 	bpl	fe2c1708 <__bss_end+0xe2bf680>
     b04:	04000000 	streq	r0, [r0]
     b08:	23020003 	movwcs	r0, #8195	; 0x2003
     b0c:	97040000 	strls	r0, [r4, -r0]
     b10:	0300000c 	movweq	r0, #12	; 0xc
     b14:	0005f48c 	andeq	pc, r5, ip, lsl #9
     b18:	07550500 	ldrbeq	r0, [r5, -r0, lsl #10]
     b1c:	03040000 	movweq	r0, #16384	; 0x4000
     b20:	00076d8f 	andeq	r6, r7, pc, lsl #27
     b24:	073d0600 	ldreq	r0, [sp, -r0, lsl #12]!
     b28:	90030000 	andls	r0, r3, r0
     b2c:	0000005a 	andeq	r0, r0, sl, asr r0
     b30:	021e0204 	andseq	r0, lr, #1073741824	; 0x40000000
     b34:	c3060023 	movwgt	r0, #24611	; 0x6023
     b38:	0300000f 	movweq	r0, #15	; 0xf
     b3c:	00005a91 	muleq	r0, r1, sl
     b40:	1c020400 	cfstrsne	mvf0, [r2], {0}
     b44:	06002302 	streq	r2, [r0], -r2, lsl #6
     b48:	00000735 	andeq	r0, r0, r5, lsr r7
     b4c:	005a9203 	subseq	r9, sl, r3, lsl #4
     b50:	02040000 	andeq	r0, r4, #0	; 0x0
     b54:	0023021a 	eoreq	r0, r3, sl, lsl r2
     b58:	000a1006 	andeq	r1, sl, r6
     b5c:	5a930300 	bpl	fe4c1764 <__bss_end+0xe4bf6dc>
     b60:	04000000 	streq	r0, [r0]
     b64:	23021802 	movwcs	r1, #10242	; 0x2802
     b68:	07450600 	strbeq	r0, [r5, -r0, lsl #12]
     b6c:	94030000 	strls	r0, [r3]
     b70:	0000005a 	andeq	r0, r0, sl, asr r0
     b74:	02130504 	andseq	r0, r3, #16777216	; 0x1000000
     b78:	cd060023 	stcgt	0, cr0, [r6, #-140]
     b7c:	0300000f 	movweq	r0, #15	; 0xf
     b80:	00005a95 	muleq	r0, r5, sl
     b84:	12010400 	andne	r0, r1, #0	; 0x0
     b88:	06002302 	streq	r2, [r0], -r2, lsl #6
     b8c:	00000943 	andeq	r0, r0, r3, asr #18
     b90:	005a9603 	subseq	r9, sl, r3, lsl #12
     b94:	01040000 	tsteq	r4, r0
     b98:	00230211 	eoreq	r0, r3, r1, lsl r2
     b9c:	0005a306 	andeq	sl, r5, r6, lsl #6
     ba0:	5a970300 	bpl	fe5c17a8 <__bss_end+0xe5bf720>
     ba4:	04000000 	streq	r0, [r0]
     ba8:	23021001 	movwcs	r1, #8193	; 0x2001
     bac:	0fd70600 	svceq	0x00d70600
     bb0:	98030000 	stmdals	r3, {}
     bb4:	0000005a 	andeq	r0, r0, sl, asr r0
     bb8:	020c0404 	andeq	r0, ip, #67108864	; 0x4000000
     bbc:	c0060023 	andgt	r0, r6, r3, lsr #32
     bc0:	03000010 	movweq	r0, #16	; 0x10
     bc4:	00005a99 	muleq	r0, r9, sl
     bc8:	07050400 	streq	r0, [r5, -r0, lsl #8]
     bcc:	06002302 	streq	r2, [r0], -r2, lsl #6
     bd0:	00000f50 	andeq	r0, r0, r0, asr pc
     bd4:	005a9a03 	subseq	r9, sl, r3, lsl #20
     bd8:	05040000 	streq	r0, [r4]
     bdc:	00230202 	eoreq	r0, r3, r2, lsl #4
     be0:	000bb406 	andeq	fp, fp, r6, lsl #8
     be4:	5a9b0300 	bpl	fe6c17ec <__bss_end+0xe6bf764>
     be8:	04000000 	streq	r0, [r0]
     bec:	23020101 	movwcs	r0, #8449	; 0x2101
     bf0:	10590600 	subsne	r0, r9, r0, lsl #12
     bf4:	9c030000 	stcls	0, cr0, [r3], {0}
     bf8:	0000005a 	andeq	r0, r0, sl, asr r0
     bfc:	02000104 	andeq	r0, r0, #1	; 0x1
     c00:	04000023 	streq	r0, [r0], #-35
     c04:	00000588 	andeq	r0, r0, r8, lsl #11
     c08:	06839d03 	streq	r9, [r3], r3, lsl #26
     c0c:	c7050000 	strgt	r0, [r5, -r0]
     c10:	0400000d 	streq	r0, [r0], #-13
     c14:	0840a103 	stmdaeq	r0, {r0, r1, r8, sp, pc}^
     c18:	3d060000 	stccc	0, cr0, [r6]
     c1c:	03000007 	movweq	r0, #7	; 0x7
     c20:	00005aa2 	andeq	r5, r0, r2, lsr #21
     c24:	19070400 	stmdbne	r7, {sl}
     c28:	06002302 	streq	r2, [r0], -r2, lsl #6
     c2c:	00000fc3 	andeq	r0, r0, r3, asr #31
     c30:	005aa303 	subseq	sl, sl, r3, lsl #6
     c34:	01040000 	tsteq	r4, r0
     c38:	00230218 	eoreq	r0, r3, r8, lsl r2
     c3c:	0010c006 	andseq	ip, r0, r6
     c40:	5aa40300 	bpl	fe901848 <__bss_end+0xe8ff7c0>
     c44:	04000000 	streq	r0, [r0]
     c48:	23021305 	movwcs	r1, #8965	; 0x2305
     c4c:	0fcd0600 	svceq	0x00cd0600
     c50:	a5030000 	strge	r0, [r3]
     c54:	0000005a 	andeq	r0, r0, sl, asr r0
     c58:	02120104 	andseq	r0, r2, #1	; 0x1
     c5c:	d4060023 	strle	r0, [r6], #-35
     c60:	0300000b 	movweq	r0, #11	; 0xb
     c64:	00005aa6 	andeq	r5, r0, r6, lsr #21
     c68:	11010400 	tstne	r1, r0, lsl #8
     c6c:	06002302 	streq	r2, [r0], -r2, lsl #6
     c70:	00000daa 	andeq	r0, r0, sl, lsr #27
     c74:	005aa703 	subseq	sl, sl, r3, lsl #14
     c78:	01040000 	tsteq	r4, r0
     c7c:	00230210 	eoreq	r0, r3, r0, lsl r2
     c80:	000f5006 	andeq	r5, pc, r6
     c84:	5aa80300 	bpl	fea0188c <__bss_end+0xe9ff804>
     c88:	04000000 	streq	r0, [r0]
     c8c:	23020b05 	movwcs	r0, #11013	; 0x2b05
     c90:	0fd70600 	svceq	0x00d70600
     c94:	a9030000 	stmdbge	r3, {}
     c98:	0000005a 	andeq	r0, r0, sl, asr r0
     c9c:	02080304 	andeq	r0, r8, #268435456	; 0x10000000
     ca0:	10060023 	andne	r0, r6, r3, lsr #32
     ca4:	0300000a 	movweq	r0, #10	; 0xa
     ca8:	00005aaa 	andeq	r5, r0, sl, lsr #21
     cac:	05030400 	streq	r0, [r3, #-1024]
     cb0:	06002302 	streq	r2, [r0], -r2, lsl #6
     cb4:	00000fe1 	andeq	r0, r0, r1, ror #31
     cb8:	005aab03 	subseq	sl, sl, r3, lsl #22
     cbc:	04040000 	streq	r0, [r4]
     cc0:	00230201 	eoreq	r0, r3, r1, lsl #4
     cc4:	00105906 	andseq	r5, r0, r6, lsl #18
     cc8:	5aac0300 	bpl	feb018d0 <__bss_end+0xeaff848>
     ccc:	04000000 	streq	r0, [r0]
     cd0:	23020001 	movwcs	r0, #8193	; 0x2001
     cd4:	84040000 	strhi	r0, [r4]
     cd8:	0300000d 	movweq	r0, #13	; 0xd
     cdc:	000778ad 	andeq	r7, r7, sp, lsr #17
     ce0:	0ff50500 	svceq	0x00f50500
     ce4:	03040000 	movweq	r0, #16384	; 0x4000
     ce8:	0008beb1 	strheq	fp, [r8], -r1
     cec:	0b250600 	bleq	9424f4 <__standby_start+0x9424f4>
     cf0:	b2030000 	andlt	r0, r3, #0	; 0x0
     cf4:	0000005a 	andeq	r0, r0, sl, asr r0
     cf8:	020f1104 	andeq	r1, pc, #1	; 0x1
     cfc:	2e060023 	cdpcs	0, 0, cr0, cr6, cr3, {1}
     d00:	03000013 	movweq	r0, #19	; 0x13
     d04:	00005ab3 	strheq	r5, [r0], -r3
     d08:	0d020400 	cfstrseq	mvf0, [r2]
     d0c:	06002302 	streq	r2, [r0], -r2, lsl #6
     d10:	00000fc3 	andeq	r0, r0, r3, asr #31
     d14:	005ab403 	subseq	fp, sl, r3, lsl #8
     d18:	01040000 	tsteq	r4, r0
     d1c:	0023020c 	eoreq	r0, r3, ip, lsl #4
     d20:	00038a06 	andeq	r8, r3, r6, lsl #20
     d24:	5ab50300 	bpl	fed4192c <__bss_end+0xed3f8a4>
     d28:	04000000 	streq	r0, [r0]
     d2c:	23020309 	movwcs	r0, #8969	; 0x2309
     d30:	085d0600 	ldmdaeq	sp, {r9, sl}^
     d34:	b6030000 	strlt	r0, [r3], -r0
     d38:	0000005a 	andeq	r0, r0, sl, asr r0
     d3c:	02010204 	andeq	r0, r1, #1073741824	; 0x40000000
     d40:	f1060023 	undefined instruction 0xf1060023
     d44:	0300000a 	movweq	r0, #10	; 0xa
     d48:	00005ab7 	strheq	r5, [r0], -r7
     d4c:	00010400 	andeq	r0, r1, r0, lsl #8
     d50:	00002302 	andeq	r2, r0, r2, lsl #6
     d54:	00055104 	andeq	r5, r5, r4, lsl #2
     d58:	4bb80300 	blmi	fee01960 <__bss_end+0xedff8d8>
     d5c:	05000008 	streq	r0, [r0, #-8]
     d60:	00000f2b 	andeq	r0, r0, fp, lsr #30
     d64:	3cbc0304 	ldccc	3, cr0, [ip], #16
     d68:	06000009 	streq	r0, [r0], -r9
     d6c:	00000b25 	andeq	r0, r0, r5, lsr #22
     d70:	005abd03 	subseq	fp, sl, r3, lsl #26
     d74:	11040000 	tstne	r4, r0
     d78:	0023020f 	eoreq	r0, r3, pc, lsl #4
     d7c:	00132e06 	andseq	r2, r3, r6, lsl #28
     d80:	5abe0300 	bpl	fef81988 <__bss_end+0xef7f900>
     d84:	04000000 	streq	r0, [r0]
     d88:	23020d02 	movwcs	r0, #11522	; 0x2d02
     d8c:	0fc30600 	svceq	0x00c30600
     d90:	bf030000 	svclt	0x00030000
     d94:	0000005a 	andeq	r0, r0, sl, asr r0
     d98:	020c0104 	andeq	r0, ip, #1	; 0x1
     d9c:	8a060023 	bhi	180e30 <__standby_start+0x180e30>
     da0:	03000003 	movweq	r0, #3	; 0x3
     da4:	00005ac0 	andeq	r5, r0, r0, asr #21
     da8:	03090400 	movweq	r0, #37888	; 0x9400
     dac:	06002302 	streq	r2, [r0], -r2, lsl #6
     db0:	0000085d 	andeq	r0, r0, sp, asr r8
     db4:	005ac103 	subseq	ip, sl, r3, lsl #2
     db8:	02040000 	andeq	r0, r4, #0	; 0x0
     dbc:	00230201 	eoreq	r0, r3, r1, lsl #4
     dc0:	000af106 	andeq	pc, sl, r6, lsl #2
     dc4:	5ac20300 	bpl	ff0819cc <__bss_end+0xf07f944>
     dc8:	04000000 	streq	r0, [r0]
     dcc:	23020001 	movwcs	r0, #8193	; 0x2001
     dd0:	1d040000 	stcne	0, cr0, [r4]
     dd4:	03000011 	movweq	r0, #17	; 0x11
     dd8:	0008c9c3 	andeq	ip, r8, r3, asr #19
     ddc:	0e560500 	cdpeq	5, 5, cr0, cr6, cr0, {0}
     de0:	03040000 	movweq	r0, #16384	; 0x4000
     de4:	0009dcc7 	andeq	sp, r9, r7, asr #25
     de8:	10480600 	subne	r0, r8, r0, lsl #12
     dec:	c8030000 	stmdagt	r3, {}
     df0:	0000005a 	andeq	r0, r0, sl, asr r0
     df4:	021f0104 	andseq	r0, pc, #1	; 0x1
     df8:	5d060023 	stcpl	0, cr0, [r6, #-140]
     dfc:	0300000d 	movweq	r0, #13	; 0xd
     e00:	00005ac9 	andeq	r5, r0, r9, asr #21
     e04:	1e010400 	cfcpysne	mvf0, mvf1
     e08:	06002302 	streq	r2, [r0], -r2, lsl #6
     e0c:	00000fc3 	andeq	r0, r0, r3, asr #31
     e10:	005aca03 	subseq	ip, sl, r3, lsl #20
     e14:	0d040000 	stceq	0, cr0, [r4]
     e18:	00230211 	eoreq	r0, r3, r1, lsl r2
     e1c:	000c6106 	andeq	r6, ip, r6, lsl #2
     e20:	5acb0300 	bpl	ff2c1a28 <__bss_end+0xf2bf9a0>
     e24:	04000000 	streq	r0, [r0]
     e28:	23021001 	movwcs	r1, #8193	; 0x2001
     e2c:	05820600 	streq	r0, [r2, #1536]
     e30:	cc030000 	stcgt	0, cr0, [r3], {0}
     e34:	0000005a 	andeq	r0, r0, sl, asr r0
     e38:	020f0104 	andeq	r0, pc, #1	; 0x1
     e3c:	ff060023 	undefined instruction 0xff060023
     e40:	03000004 	movweq	r0, #4	; 0x4
     e44:	00005acd 	andeq	r5, r0, sp, asr #21
     e48:	0e010400 	cfcpyseq	mvf0, mvf1
     e4c:	06002302 	streq	r2, [r0], -r2, lsl #6
     e50:	000006f3 	strdeq	r0, [r0], -r3
     e54:	005ace03 	subseq	ip, sl, r3, lsl #28
     e58:	03040000 	movweq	r0, #16384	; 0x4000
     e5c:	0023020b 	eoreq	r0, r3, fp, lsl #4
     e60:	000e7f06 	andeq	r7, lr, r6, lsl #30
     e64:	5acf0300 	bpl	ff3c1a6c <__bss_end+0xf3bf9e4>
     e68:	04000000 	streq	r0, [r0]
     e6c:	2302000b 	movwcs	r0, #8203	; 0x200b
     e70:	ae040000 	cdpge	0, 0, cr0, cr4, cr0, {0}
     e74:	03000007 	movweq	r0, #7	; 0x7
     e78:	000947d0 	ldrdeq	r4, [r9], -r0
     e7c:	10790500 	rsbsne	r0, r9, r0, lsl #10
     e80:	03040000 	movweq	r0, #16384	; 0x4000
     e84:	000a7cd4 	ldrdeq	r7, [sl], -r4
     e88:	12e20600 	rscne	r0, r2, #0	; 0x0
     e8c:	d5030000 	strle	r0, [r3]
     e90:	0000005a 	andeq	r0, r0, sl, asr r0
     e94:	021e0204 	andseq	r0, lr, #1073741824	; 0x40000000
     e98:	c3060023 	movwgt	r0, #24611	; 0x6023
     e9c:	0300000f 	movweq	r0, #15	; 0xf
     ea0:	00005ad6 	ldrdeq	r5, [r0], -r6
     ea4:	1c020400 	cfstrsne	mvf0, [r2], {0}
     ea8:	06002302 	streq	r2, [r0], -r2, lsl #6
     eac:	0000092b 	andeq	r0, r0, fp, lsr #18
     eb0:	005ad703 	subseq	sp, sl, r3, lsl #14
     eb4:	02040000 	andeq	r0, r4, #0	; 0x0
     eb8:	0023021a 	eoreq	r0, r3, sl, lsl r2
     ebc:	000fcd06 	andeq	ip, pc, r6, lsl #26
     ec0:	5ad80300 	bpl	ff601ac8 <__bss_end+0xf5ffa40>
     ec4:	04000000 	streq	r0, [r0]
     ec8:	23021802 	movwcs	r1, #10242	; 0x2802
     ecc:	13720600 	cmnne	r2, #0	; 0x0
     ed0:	d9030000 	stmdble	r3, {}
     ed4:	0000005a 	andeq	r0, r0, sl, asr r0
     ed8:	02160204 	andseq	r0, r6, #1073741824	; 0x40000000
     edc:	d7060023 	strle	r0, [r6, -r3, lsr #32]
     ee0:	0300000f 	movweq	r0, #15	; 0xf
     ee4:	00005ada 	ldrdeq	r5, [r0], -sl
     ee8:	10060400 	andne	r0, r6, r0, lsl #8
     eec:	06002302 	streq	r2, [r0], -r2, lsl #6
     ef0:	00001322 	andeq	r1, r0, r2, lsr #6
     ef4:	005adb03 	subseq	sp, sl, r3, lsl #22
     ef8:	02040000 	andeq	r0, r4, #0	; 0x0
     efc:	0023020e 	eoreq	r0, r3, lr, lsl #4
     f00:	000fe106 	andeq	lr, pc, r6, lsl #2
     f04:	5adc0300 	bpl	ff701b0c <__bss_end+0xf6ffa84>
     f08:	04000000 	streq	r0, [r0]
     f0c:	2302000e 	movwcs	r0, #8206	; 0x200e
     f10:	08040000 	stmdaeq	r4, {}
     f14:	03000012 	movweq	r0, #18	; 0x12
     f18:	0009e7dd 	ldrdeq	lr, [r9], -sp
     f1c:	0f9e0500 	svceq	0x009e0500
     f20:	03040000 	movweq	r0, #16384	; 0x4000
     f24:	000afae0 	andeq	pc, sl, r0, ror #21
     f28:	13760600 	cmnne	r6, #0	; 0x0
     f2c:	e1030000 	tst	r3, r0
     f30:	0000005a 	andeq	r0, r0, sl, asr r0
     f34:	021b0504 	andseq	r0, fp, #16777216	; 0x1000000
     f38:	c3060023 	movwgt	r0, #24611	; 0x6023
     f3c:	0300000f 	movweq	r0, #15	; 0xf
     f40:	00005ae2 	andeq	r5, r0, r2, ror #21
     f44:	100b0400 	andne	r0, fp, r0, lsl #8
     f48:	06002302 	streq	r2, [r0], -r2, lsl #6
     f4c:	000004ee 	andeq	r0, r0, lr, ror #9
     f50:	005ae303 	subseq	lr, sl, r3, lsl #6
     f54:	02040000 	andeq	r0, r4, #0	; 0x0
     f58:	0023020e 	eoreq	r0, r3, lr, lsl #4
     f5c:	000fcd06 	andeq	ip, pc, r6, lsl #26
     f60:	5ae40300 	bpl	ff901b68 <__bss_end+0xf8ffae0>
     f64:	04000000 	streq	r0, [r0]
     f68:	23020806 	movwcs	r0, #10246	; 0x2806
     f6c:	13270600 	teqne	r7, #0	; 0x0
     f70:	e5030000 	str	r0, [r3]
     f74:	0000005a 	andeq	r0, r0, sl, asr r0
     f78:	02060204 	andeq	r0, r6, #1073741824	; 0x40000000
     f7c:	d7060023 	strle	r0, [r6, -r3, lsr #32]
     f80:	0300000f 	movweq	r0, #15	; 0xf
     f84:	00005ae6 	andeq	r5, r0, r6, ror #21
     f88:	00060400 	andeq	r0, r6, r0, lsl #8
     f8c:	00002302 	andeq	r2, r0, r2, lsl #6
     f90:	0006bc04 	andeq	fp, r6, r4, lsl #24
     f94:	87e70300 	strbhi	r0, [r7, r0, lsl #6]!
     f98:	0500000a 	streq	r0, [r0, #-10]
     f9c:	00000c2c 	andeq	r0, r0, ip, lsr #24
     fa0:	34eb0304 	strbtcc	r0, [fp], #772
     fa4:	0600000b 	streq	r0, [r0], -fp
     fa8:	00000d1c 	andeq	r0, r0, ip, lsl sp
     fac:	005aec03 	subseq	lr, sl, r3, lsl #24
     fb0:	01040000 	tsteq	r4, r0
     fb4:	0023021f 	eoreq	r0, r3, pc, lsl r2
     fb8:	000fc306 	andeq	ip, pc, r6, lsl #6
     fbc:	5aed0300 	bpl	ffb41bc4 <__bss_end+0xfb3fb3c>
     fc0:	04000000 	streq	r0, [r0]
     fc4:	2302001f 	movwcs	r0, #8223	; 0x201f
     fc8:	44040000 	strmi	r0, [r4]
     fcc:	03000011 	movweq	r0, #17	; 0x11
     fd0:	000b05ee 	andeq	r0, fp, lr, ror #11
     fd4:	03e40500 	mvneq	r0, #0	; 0x0
     fd8:	03040000 	movweq	r0, #16384	; 0x4000
     fdc:	000d37f2 	strdeq	r3, [sp], -r2
     fe0:	07f30600 	ldrbeq	r0, [r3, r0, lsl #12]!
     fe4:	f3030000 	vhadd.u8	d0, d3, d0
     fe8:	0000005a 	andeq	r0, r0, sl, asr r0
     fec:	021f0104 	andseq	r0, pc, #1	; 0x1
     ff0:	a3060023 	movwge	r0, #24611	; 0x6023
     ff4:	03000010 	movweq	r0, #16	; 0x10
     ff8:	00005af4 	strdeq	r5, [r0], -r4
     ffc:	1e010400 	cfcpysne	mvf0, mvf1
    1000:	06002302 	streq	r2, [r0], -r2, lsl #6
    1004:	00000dff 	strdeq	r0, [r0], -pc
    1008:	005af503 	subseq	pc, sl, r3, lsl #10
    100c:	01040000 	tsteq	r4, r0
    1010:	0023021d 	eoreq	r0, r3, sp, lsl r2
    1014:	000b1b06 	andeq	r1, fp, r6, lsl #22
    1018:	5af60300 	bpl	ffd81c20 <__bss_end+0xfd7fb98>
    101c:	04000000 	streq	r0, [r0]
    1020:	23021c01 	movwcs	r1, #11265	; 0x2c01
    1024:	08930600 	ldmeq	r3, {r9, sl}
    1028:	f7030000 	undefined instruction 0xf7030000
    102c:	0000005a 	andeq	r0, r0, sl, asr r0
    1030:	021b0104 	andseq	r0, fp, #1	; 0x1
    1034:	dc060023 	stcle	0, cr0, [r6], {35}
    1038:	03000010 	movweq	r0, #16	; 0x10
    103c:	00005af8 	strdeq	r5, [r0], -r8
    1040:	1a010400 	bne	42048 <__standby_start+0x42048>
    1044:	06002302 	streq	r2, [r0], -r2, lsl #6
    1048:	00001051 	andeq	r1, r0, r1, asr r0
    104c:	005af903 	subseq	pc, sl, r3, lsl #18
    1050:	01040000 	tsteq	r4, r0
    1054:	00230219 	eoreq	r0, r3, r9, lsl r2
    1058:	00090906 	andeq	r0, r9, r6, lsl #18
    105c:	5afa0300 	bpl	ffe81c64 <__bss_end+0xfe7fbdc>
    1060:	04000000 	streq	r0, [r0]
    1064:	23021801 	movwcs	r1, #10241	; 0x2801
    1068:	09350600 	ldmdbeq	r5!, {r9, sl}
    106c:	fb030000 	blx	c1076 <__standby_start+0xc1076>
    1070:	0000005a 	andeq	r0, r0, sl, asr r0
    1074:	02170104 	andseq	r0, r7, #1	; 0x1
    1078:	b8060023 	stmdalt	r6, {r0, r1, r5}
    107c:	03000013 	movweq	r0, #19	; 0x13
    1080:	00005afc 	strdeq	r5, [r0], -ip
    1084:	16010400 	strne	r0, [r1], -r0, lsl #8
    1088:	06002302 	streq	r2, [r0], -r2, lsl #6
    108c:	00000d79 	andeq	r0, r0, r9, ror sp
    1090:	005afd03 	subseq	pc, sl, r3, lsl #26
    1094:	01040000 	tsteq	r4, r0
    1098:	00230215 	eoreq	r0, r3, r5, lsl r2
    109c:	00044406 	andeq	r4, r4, r6, lsl #8
    10a0:	5afe0300 	bpl	fff81ca8 <__bss_end+0xff7fc20>
    10a4:	04000000 	streq	r0, [r0]
    10a8:	23021401 	movwcs	r1, #9217	; 0x2401
    10ac:	07250600 	streq	r0, [r5, -r0, lsl #12]!
    10b0:	ff030000 	undefined instruction 0xff030000
    10b4:	0000005a 	andeq	r0, r0, sl, asr r0
    10b8:	02130104 	andseq	r0, r3, #1	; 0x1
    10bc:	d3070023 	movwle	r0, #28707	; 0x7023
    10c0:	03000010 	movweq	r0, #16	; 0x10
    10c4:	005a0100 	subseq	r0, sl, r0, lsl #2
    10c8:	01040000 	tsteq	r4, r0
    10cc:	00230212 	eoreq	r0, r3, r2, lsl r2
    10d0:	000d1c07 	andeq	r1, sp, r7, lsl #24
    10d4:	01010300 	tsteq	r1, r0, lsl #6
    10d8:	0000005a 	andeq	r0, r0, sl, asr r0
    10dc:	02110104 	andseq	r0, r1, #1	; 0x1
    10e0:	d7070023 	strle	r0, [r7, -r3, lsr #32]
    10e4:	0300000f 	movweq	r0, #15	; 0xf
    10e8:	005a0102 	subseq	r0, sl, r2, lsl #2
    10ec:	01040000 	tsteq	r4, r0
    10f0:	00230210 	eoreq	r0, r3, r0, lsl r2
    10f4:	000d5507 	andeq	r5, sp, r7, lsl #10
    10f8:	01030300 	tsteq	r3, r0, lsl #6
    10fc:	0000005a 	andeq	r0, r0, sl, asr r0
    1100:	020f0104 	andeq	r0, pc, #1	; 0x1
    1104:	76070023 	strvc	r0, [r7], -r3, lsr #32
    1108:	0300000e 	movweq	r0, #14	; 0xe
    110c:	005a0104 	subseq	r0, sl, r4, lsl #2
    1110:	01040000 	tsteq	r4, r0
    1114:	0023020e 	eoreq	r0, r3, lr, lsl #4
    1118:	00040007 	andeq	r0, r4, r7
    111c:	01050300 	tsteq	r5, r0, lsl #6
    1120:	0000005a 	andeq	r0, r0, sl, asr r0
    1124:	020d0104 	andeq	r0, sp, #1	; 0x1
    1128:	e1070023 	tst	r7, r3, lsr #32
    112c:	0300000f 	movweq	r0, #15	; 0xf
    1130:	005a0106 	subseq	r0, sl, r6, lsl #2
    1134:	01040000 	tsteq	r4, r0
    1138:	0023020c 	eoreq	r0, r3, ip, lsl #4
    113c:	0004d807 	andeq	sp, r4, r7, lsl #16
    1140:	01070300 	tsteq	r7, r0, lsl #6
    1144:	0000005a 	andeq	r0, r0, sl, asr r0
    1148:	020b0104 	andeq	r0, fp, #1	; 0x1
    114c:	dd070023 	stcle	0, cr0, [r7, #-140]
    1150:	03000008 	movweq	r0, #8	; 0x8
    1154:	005a0108 	subseq	r0, sl, r8, lsl #2
    1158:	01040000 	tsteq	r4, r0
    115c:	0023020a 	eoreq	r0, r3, sl, lsl #4
    1160:	000a2607 	andeq	r2, sl, r7, lsl #12
    1164:	01090300 	tsteq	r9, r0, lsl #6
    1168:	0000005a 	andeq	r0, r0, sl, asr r0
    116c:	02090104 	andeq	r0, r9, #1	; 0x1
    1170:	0f070023 	svceq	0x00070023
    1174:	03000004 	movweq	r0, #4	; 0x4
    1178:	005a010a 	subseq	r0, sl, sl, lsl #2
    117c:	01040000 	tsteq	r4, r0
    1180:	00230208 	eoreq	r0, r3, r8, lsl #4
    1184:	00076e07 	andeq	r6, r7, r7, lsl #28
    1188:	010b0300 	tsteq	fp, r0, lsl #6
    118c:	0000005a 	andeq	r0, r0, sl, asr r0
    1190:	02070104 	andeq	r0, r7, #1	; 0x1
    1194:	d0070023 	andle	r0, r7, r3, lsr #32
    1198:	03000007 	movweq	r0, #7	; 0x7
    119c:	005a010c 	subseq	r0, sl, ip, lsl #2
    11a0:	01040000 	tsteq	r4, r0
    11a4:	00230206 	eoreq	r0, r3, r6, lsl #4
    11a8:	00124c07 	andseq	r4, r2, r7, lsl #24
    11ac:	010d0300 	tsteq	sp, r0, lsl #6
    11b0:	0000005a 	andeq	r0, r0, sl, asr r0
    11b4:	02050104 	andeq	r0, r5, #1	; 0x1
    11b8:	eb070023 	bl	1c124c <__standby_start+0x1c124c>
    11bc:	0300000f 	movweq	r0, #15	; 0xf
    11c0:	005a010e 	subseq	r0, sl, lr, lsl #2
    11c4:	05040000 	streq	r0, [r4]
    11c8:	00230200 	eoreq	r0, r3, r0, lsl #4
    11cc:	03930800 	orrseq	r0, r3, #0	; 0x0
    11d0:	0f030000 	svceq	0x00030000
    11d4:	000b3f01 	andeq	r3, fp, r1, lsl #30
    11d8:	08c10900 	stmiaeq	r1, {r8, fp}^
    11dc:	03040000 	movweq	r0, #16384	; 0x4000
    11e0:	0eb90113 	mrceq	1, 5, r0, cr9, cr3, {0}
    11e4:	a5070000 	strge	r0, [r7]
    11e8:	0300000b 	movweq	r0, #11	; 0xb
    11ec:	005a0114 	subseq	r0, sl, r4, lsl r1
    11f0:	01040000 	tsteq	r4, r0
    11f4:	0023021f 	eoreq	r0, r3, pc, lsl r2
    11f8:	00048b07 	andeq	r8, r4, r7, lsl #22
    11fc:	01150300 	tsteq	r5, r0, lsl #6
    1200:	0000005a 	andeq	r0, r0, sl, asr r0
    1204:	021e0104 	andseq	r0, lr, #1	; 0x1
    1208:	38070023 	stmdacc	r7, {r0, r1, r5}
    120c:	0300000a 	movweq	r0, #10	; 0xa
    1210:	005a0116 	subseq	r0, sl, r6, lsl r1
    1214:	01040000 	tsteq	r4, r0
    1218:	0023021d 	eoreq	r0, r3, sp, lsl r2
    121c:	00042007 	andeq	r2, r4, r7
    1220:	01170300 	tsteq	r7, r0, lsl #6
    1224:	0000005a 	andeq	r0, r0, sl, asr r0
    1228:	021c0104 	andseq	r0, ip, #1	; 0x1
    122c:	e1070023 	tst	r7, r3, lsr #32
    1230:	03000007 	movweq	r0, #7	; 0x7
    1234:	005a0118 	subseq	r0, sl, r8, lsl r1
    1238:	01040000 	tsteq	r4, r0
    123c:	0023021b 	eoreq	r0, r3, fp, lsl r2
    1240:	00125407 	andseq	r5, r2, r7, lsl #8
    1244:	01190300 	tsteq	r9, r0, lsl #6
    1248:	0000005a 	andeq	r0, r0, sl, asr r0
    124c:	021a0104 	andseq	r0, sl, #1	; 0x1
    1250:	c3070023 	movwgt	r0, #28707	; 0x7023
    1254:	0300000f 	movweq	r0, #15	; 0xf
    1258:	005a011a 	subseq	r0, sl, sl, lsl r1
    125c:	02040000 	andeq	r0, r4, #0	; 0x0
    1260:	00230218 	eoreq	r0, r3, r8, lsl r2
    1264:	0013af07 	andseq	sl, r3, r7, lsl #30
    1268:	011b0300 	tsteq	fp, r0, lsl #6
    126c:	0000005a 	andeq	r0, r0, sl, asr r0
    1270:	02170104 	andseq	r0, r7, #1	; 0x1
    1274:	3b070023 	blcc	1c1308 <__standby_start+0x1c1308>
    1278:	03000012 	movweq	r0, #18	; 0x12
    127c:	005a011c 	subseq	r0, sl, ip, lsl r1
    1280:	01040000 	tsteq	r4, r0
    1284:	00230216 	eoreq	r0, r3, r6, lsl r2
    1288:	000fcd07 	andeq	ip, pc, r7, lsl #26
    128c:	011d0300 	tsteq	sp, r0, lsl #6
    1290:	0000005a 	andeq	r0, r0, sl, asr r0
    1294:	02150104 	andseq	r0, r5, #1	; 0x1
    1298:	08070023 	stmdaeq	r7, {r0, r1, r5}
    129c:	03000011 	movweq	r0, #17	; 0x11
    12a0:	005a011e 	subseq	r0, sl, lr, lsl r1
    12a4:	01040000 	tsteq	r4, r0
    12a8:	00230214 	eoreq	r0, r3, r4, lsl r2
    12ac:	000f7307 	andeq	r7, pc, r7, lsl #6
    12b0:	011f0300 	tsteq	pc, r0, lsl #6
    12b4:	0000005a 	andeq	r0, r0, sl, asr r0
    12b8:	02130104 	andseq	r0, r3, #1	; 0x1
    12bc:	20070023 	andcs	r0, r7, r3, lsr #32
    12c0:	03000008 	movweq	r0, #8	; 0x8
    12c4:	005a0120 	subseq	r0, sl, r0, lsr #2
    12c8:	01040000 	tsteq	r4, r0
    12cc:	00230212 	eoreq	r0, r3, r2, lsl r2
    12d0:	00123107 	andseq	r3, r2, r7, lsl #2
    12d4:	01210300 	teqeq	r1, r0, lsl #6
    12d8:	0000005a 	andeq	r0, r0, sl, asr r0
    12dc:	02110104 	andseq	r0, r1, #1	; 0x1
    12e0:	51070023 	tstpl	r7, r3, lsr #32
    12e4:	0300000c 	movweq	r0, #12	; 0xc
    12e8:	005a0122 	subseq	r0, sl, r2, lsr #2
    12ec:	01040000 	tsteq	r4, r0
    12f0:	00230210 	eoreq	r0, r3, r0, lsl r2
    12f4:	000fd707 	andeq	sp, pc, r7, lsl #14
    12f8:	01230300 	teqeq	r3, r0, lsl #6
    12fc:	0000005a 	andeq	r0, r0, sl, asr r0
    1300:	020e0204 	andeq	r0, lr, #1073741824	; 0x40000000
    1304:	0c070023 	stceq	0, cr0, [r7], {35}
    1308:	03000005 	movweq	r0, #5	; 0x5
    130c:	005a0124 	subseq	r0, sl, r4, lsr #2
    1310:	01040000 	tsteq	r4, r0
    1314:	0023020d 	eoreq	r0, r3, sp, lsl #4
    1318:	000fe107 	andeq	lr, pc, r7, lsl #2
    131c:	01250300 	teqeq	r5, r0, lsl #6
    1320:	0000005a 	andeq	r0, r0, sl, asr r0
    1324:	020c0104 	andeq	r0, ip, #1	; 0x1
    1328:	b2070023 	andlt	r0, r7, #35	; 0x23
    132c:	0300000d 	movweq	r0, #13	; 0xd
    1330:	005a0126 	subseq	r0, sl, r6, lsr #2
    1334:	01040000 	tsteq	r4, r0
    1338:	0023020b 	eoreq	r0, r3, fp, lsl #4
    133c:	000feb07 	andeq	lr, pc, r7, lsl #22
    1340:	01270300 	teqeq	r7, r0, lsl #6
    1344:	0000005a 	andeq	r0, r0, sl, asr r0
    1348:	02000b04 	andeq	r0, r0, #4096	; 0x1000
    134c:	08000023 	stmdaeq	r0, {r0, r1, r5}
    1350:	0000094c 	andeq	r0, r0, ip, asr #18
    1354:	43012803 	movwmi	r2, #6147	; 0x1803
    1358:	0900000d 	stmdbeq	r0, {r0, r2, r3}
    135c:	000013c3 	andeq	r1, r0, r3, asr #7
    1360:	012c0304 	teqeq	ip, r4, lsl #6
    1364:	00000f99 	muleq	r0, r9, pc
    1368:	000f4707 	andeq	r4, pc, r7, lsl #14
    136c:	012d0300 	teqeq	sp, r0, lsl #6
    1370:	0000005a 	andeq	r0, r0, sl, asr r0
    1374:	021f0104 	andseq	r0, pc, #1	; 0x1
    1378:	11070023 	tstne	r7, r3, lsr #32
    137c:	0300000b 	movweq	r0, #11	; 0xb
    1380:	005a012e 	subseq	r0, sl, lr, lsr #2
    1384:	01040000 	tsteq	r4, r0
    1388:	0023021e 	eoreq	r0, r3, lr, lsl r2
    138c:	00079c07 	andeq	r9, r7, r7, lsl #24
    1390:	012f0300 	teqeq	pc, r0, lsl #6
    1394:	0000005a 	andeq	r0, r0, sl, asr r0
    1398:	021d0104 	andseq	r0, sp, #1	; 0x1
    139c:	40070023 	andmi	r0, r7, r3, lsr #32
    13a0:	03000010 	movweq	r0, #16	; 0x10
    13a4:	005a0130 	subseq	r0, sl, r0, lsr r1
    13a8:	01040000 	tsteq	r4, r0
    13ac:	0023021c 	eoreq	r0, r3, ip, lsl r2
    13b0:	000fc307 	andeq	ip, pc, r7, lsl #6
    13b4:	01310300 	teqeq	r1, r0, lsl #6
    13b8:	0000005a 	andeq	r0, r0, sl, asr r0
    13bc:	021b0104 	andseq	r0, fp, #1	; 0x1
    13c0:	2b070023 	blcs	1c1454 <__standby_start+0x1c1454>
    13c4:	03000005 	movweq	r0, #5	; 0x5
    13c8:	005a0132 	subseq	r0, sl, r2, lsr r1
    13cc:	01040000 	tsteq	r4, r0
    13d0:	0023021a 	eoreq	r0, r3, sl, lsl r2
    13d4:	000e0907 	andeq	r0, lr, r7, lsl #18
    13d8:	01330300 	teqeq	r3, r0, lsl #6
    13dc:	0000005a 	andeq	r0, r0, sl, asr r0
    13e0:	02190104 	andseq	r0, r9, #1	; 0x1
    13e4:	9d070023 	stcls	0, cr0, [r7, #-140]
    13e8:	03000008 	movweq	r0, #8	; 0x8
    13ec:	005a0134 	subseq	r0, sl, r4, lsr r1
    13f0:	01040000 	tsteq	r4, r0
    13f4:	00230218 	eoreq	r0, r3, r8, lsl r2
    13f8:	000fcd07 	andeq	ip, pc, r7, lsl #26
    13fc:	01350300 	teqeq	r5, r0, lsl #6
    1400:	0000005a 	andeq	r0, r0, sl, asr r0
    1404:	02160204 	andseq	r0, r6, #1073741824	; 0x40000000
    1408:	1b070023 	blne	1c149c <__standby_start+0x1c149c>
    140c:	0300000a 	movweq	r0, #10	; 0xa
    1410:	005a0136 	subseq	r0, sl, r6, lsr r1
    1414:	01040000 	tsteq	r4, r0
    1418:	00230215 	eoreq	r0, r3, r5, lsl r2
    141c:	000fd707 	andeq	sp, pc, r7, lsl #14
    1420:	01370300 	teqeq	r7, r0, lsl #6
    1424:	0000005a 	andeq	r0, r0, sl, asr r0
    1428:	02001504 	andeq	r1, r0, #16777216	; 0x1000000
    142c:	08000023 	stmdaeq	r0, {r0, r1, r5}
    1430:	00000d2f 	andeq	r0, r0, pc, lsr #26
    1434:	c5013803 	strgt	r3, [r1, #-2051]
    1438:	0900000e 	stmdbeq	r0, {r1, r2, r3}
    143c:	000012c6 	andeq	r1, r0, r6, asr #5
    1440:	013c0304 	teqeq	ip, r4, lsl #6
    1444:	000010f7 	strdeq	r1, [r0], -r7
    1448:	00086e07 	andeq	r6, r8, r7, lsl #28
    144c:	013d0300 	teqeq	sp, r0, lsl #6
    1450:	0000005a 	andeq	r0, r0, sl, asr r0
    1454:	021f0104 	andseq	r0, pc, #1	; 0x1
    1458:	38070023 	stmdacc	r7, {r0, r1, r5}
    145c:	03000013 	movweq	r0, #19	; 0x13
    1460:	005a013e 	subseq	r0, sl, lr, lsr r1
    1464:	01040000 	tsteq	r4, r0
    1468:	0023021e 	eoreq	r0, r3, lr, lsl r2
    146c:	000d2607 	andeq	r2, sp, r7, lsl #12
    1470:	013f0300 	teqeq	pc, r0, lsl #6
    1474:	0000005a 	andeq	r0, r0, sl, asr r0
    1478:	021d0104 	andseq	r0, sp, #1	; 0x1
    147c:	c3070023 	movwgt	r0, #28707	; 0x7023
    1480:	0300000f 	movweq	r0, #15	; 0xf
    1484:	005a0140 	subseq	r0, sl, r0, asr #2
    1488:	01040000 	tsteq	r4, r0
    148c:	0023021c 	eoreq	r0, r3, ip, lsl r2
    1490:	00091207 	andeq	r1, r9, r7, lsl #4
    1494:	01410300 	cmpeq	r1, r0, lsl #6
    1498:	0000005a 	andeq	r0, r0, sl, asr r0
    149c:	021b0104 	andseq	r0, fp, #1	; 0x1
    14a0:	ad070023 	stcge	0, cr0, [r7, #-140]
    14a4:	03000005 	movweq	r0, #5	; 0x5
    14a8:	005a0142 	subseq	r0, sl, r2, asr #2
    14ac:	01040000 	tsteq	r4, r0
    14b0:	0023021a 	eoreq	r0, r3, sl, lsl r2
    14b4:	00090007 	andeq	r0, r9, r7
    14b8:	01430300 	cmpeq	r3, r0, lsl #6
    14bc:	0000005a 	andeq	r0, r0, sl, asr r0
    14c0:	02190104 	andseq	r0, r9, #1	; 0x1
    14c4:	9d070023 	stcls	0, cr0, [r7, #-140]
    14c8:	03000013 	movweq	r0, #19	; 0x13
    14cc:	005a0144 	subseq	r0, sl, r4, asr #2
    14d0:	01040000 	tsteq	r4, r0
    14d4:	00230218 	eoreq	r0, r3, r8, lsl r2
    14d8:	000fcd07 	andeq	ip, pc, r7, lsl #26
    14dc:	01450300 	cmpeq	r5, r0, lsl #6
    14e0:	0000005a 	andeq	r0, r0, sl, asr r0
    14e4:	02100804 	andseq	r0, r0, #262144	; 0x40000
    14e8:	b4070023 	strlt	r0, [r7], #-35
    14ec:	03000012 	movweq	r0, #18	; 0x12
    14f0:	005a0146 	subseq	r0, sl, r6, asr #2
    14f4:	01040000 	tsteq	r4, r0
    14f8:	0023020f 	eoreq	r0, r3, pc, lsl #4
    14fc:	000cce07 	andeq	ip, ip, r7, lsl #28
    1500:	01470300 	cmpeq	r7, r0, lsl #6
    1504:	0000005a 	andeq	r0, r0, sl, asr r0
    1508:	020e0104 	andeq	r0, lr, #1	; 0x1
    150c:	77070023 	strvc	r0, [r7, -r3, lsr #32]
    1510:	03000007 	movweq	r0, #7	; 0x7
    1514:	005a0148 	subseq	r0, sl, r8, asr #2
    1518:	01040000 	tsteq	r4, r0
    151c:	0023020d 	eoreq	r0, r3, sp, lsl #4
    1520:	00122707 	andseq	r2, r2, r7, lsl #14
    1524:	01490300 	cmpeq	r9, r0, lsl #6
    1528:	0000005a 	andeq	r0, r0, sl, asr r0
    152c:	020c0104 	andeq	r0, ip, #1	; 0x1
    1530:	22070023 	andcs	r0, r7, #35	; 0x23
    1534:	0300000c 	movweq	r0, #12	; 0xc
    1538:	005a014a 	subseq	r0, sl, sl, asr #2
    153c:	01040000 	tsteq	r4, r0
    1540:	0023020b 	eoreq	r0, r3, fp, lsl #4
    1544:	00064507 	andeq	r4, r6, r7, lsl #10
    1548:	014b0300 	cmpeq	fp, r0, lsl #6
    154c:	0000005a 	andeq	r0, r0, sl, asr r0
    1550:	020a0104 	andeq	r0, sl, #1	; 0x1
    1554:	61070023 	tstvs	r7, r3, lsr #32
    1558:	03000011 	movweq	r0, #17	; 0x11
    155c:	005a014c 	subseq	r0, sl, ip, asr #2
    1560:	01040000 	tsteq	r4, r0
    1564:	00230209 	eoreq	r0, r3, r9, lsl #4
    1568:	000b8407 	andeq	r8, fp, r7, lsl #8
    156c:	014d0300 	cmpeq	sp, r0, lsl #6
    1570:	0000005a 	andeq	r0, r0, sl, asr r0
    1574:	02080104 	andeq	r0, r8, #1	; 0x1
    1578:	d7070023 	strle	r0, [r7, -r3, lsr #32]
    157c:	0300000f 	movweq	r0, #15	; 0xf
    1580:	005a014e 	subseq	r0, sl, lr, asr #2
    1584:	08040000 	stmdaeq	r4, {}
    1588:	00230200 	eoreq	r0, r3, r0, lsl #4
    158c:	0bdc0800 	bleq	ff703594 <__bss_end+0xf70150c>
    1590:	4f030000 	svcmi	0x00030000
    1594:	000fa501 	andeq	sl, pc, r1, lsl #10
    1598:	0b430900 	bleq	10c39a0 <__standby_start+0x10c39a0>
    159c:	03040000 	movweq	r0, #16384	; 0x4000
    15a0:	118f0155 	orrne	r0, pc, r5, asr r1
    15a4:	76070000 	strvc	r0, [r7], -r0
    15a8:	03000013 	movweq	r0, #19	; 0x13
    15ac:	005a0156 	subseq	r0, sl, r6, asr r1
    15b0:	04040000 	streq	r0, [r4]
    15b4:	0023021c 	eoreq	r0, r3, ip, lsl r2
    15b8:	000fc307 	andeq	ip, pc, r7, lsl #6
    15bc:	01570300 	cmpeq	r7, r0, lsl #6
    15c0:	0000005a 	andeq	r0, r0, sl, asr r0
    15c4:	02100c04 	andseq	r0, r0, #1024	; 0x400
    15c8:	eb070023 	bl	1c165c <__standby_start+0x1c165c>
    15cc:	03000004 	movweq	r0, #4	; 0x4
    15d0:	005a0158 	subseq	r0, sl, r8, asr r1
    15d4:	02040000 	andeq	r0, r4, #0	; 0x0
    15d8:	0023020e 	eoreq	r0, r3, lr, lsl #4
    15dc:	000fcd07 	andeq	ip, pc, r7, lsl #26
    15e0:	01590300 	cmpeq	r9, r0, lsl #6
    15e4:	0000005a 	andeq	r0, r0, sl, asr r0
    15e8:	02080604 	andeq	r0, r8, #4194304	; 0x400000
    15ec:	27070023 	strcs	r0, [r7, -r3, lsr #32]
    15f0:	03000013 	movweq	r0, #19	; 0x13
    15f4:	005a015a 	subseq	r0, sl, sl, asr r1
    15f8:	02040000 	andeq	r0, r4, #0	; 0x0
    15fc:	00230206 	eoreq	r0, r3, r6, lsl #4
    1600:	000fd707 	andeq	sp, pc, r7, lsl #14
    1604:	015b0300 	cmpeq	fp, r0, lsl #6
    1608:	0000005a 	andeq	r0, r0, sl, asr r0
    160c:	02010504 	andeq	r0, r1, #16777216	; 0x1000000
    1610:	a2070023 	andge	r0, r7, #35	; 0x23
    1614:	03000011 	movweq	r0, #17	; 0x11
    1618:	005a015c 	subseq	r0, sl, ip, asr r1
    161c:	01040000 	tsteq	r4, r0
    1620:	00230200 	eoreq	r0, r3, r0, lsl #4
    1624:	0e410800 	cdpeq	8, 4, cr0, cr1, cr0, {0}
    1628:	5d030000 	stcpl	0, cr0, [r3]
    162c:	00110301 	andseq	r0, r1, r1, lsl #6
    1630:	056f0900 	strbeq	r0, [pc, #-2304]!	; d38 <__standby_start+0xd38>
    1634:	03040000 	movweq	r0, #16384	; 0x4000
    1638:	11f10163 	mvnsne	r0, r3, ror #2
    163c:	c3070000 	movwgt	r0, #28672	; 0x7000
    1640:	0300000f 	movweq	r0, #15	; 0xf
    1644:	005a0164 	subseq	r0, sl, r4, ror #2
    1648:	10040000 	andne	r0, r4, r0
    164c:	00230210 	eoreq	r0, r3, r0, lsl r2
    1650:	00137607 	andseq	r7, r3, r7, lsl #12
    1654:	01650300 	cmneq	r5, r0, lsl #6
    1658:	0000005a 	andeq	r0, r0, sl, asr r0
    165c:	020e0204 	andeq	r0, lr, #1073741824	; 0x40000000
    1660:	cd070023 	stcgt	0, cr0, [r7, #-140]
    1664:	0300000f 	movweq	r0, #15	; 0xf
    1668:	005a0166 	subseq	r0, sl, r6, ror #2
    166c:	0d040000 	stceq	0, cr0, [r4]
    1670:	00230201 	eoreq	r0, r3, r1, lsl #4
    1674:	0011a207 	andseq	sl, r1, r7, lsl #4
    1678:	01670300 	cmneq	r7, r0, lsl #6
    167c:	0000005a 	andeq	r0, r0, sl, asr r0
    1680:	02000104 	andeq	r0, r0, #1	; 0x1
    1684:	08000023 	stmdaeq	r0, {r0, r1, r5}
    1688:	00000787 	andeq	r0, r0, r7, lsl #15
    168c:	9b016903 	blls	5baa0 <__standby_start+0x5baa0>
    1690:	09000011 	stmdbeq	r0, {r0, r4}
    1694:	0000105f 	andeq	r1, r0, pc, asr r0
    1698:	016d0304 	cmneq	sp, r4, lsl #6
    169c:	00001289 	andeq	r1, r0, r9, lsl #5
    16a0:	00137607 	andseq	r7, r3, r7, lsl #12
    16a4:	016e0300 	cmneq	lr, r0, lsl #6
    16a8:	0000005a 	andeq	r0, r0, sl, asr r0
    16ac:	021b0504 	andseq	r0, fp, #16777216	; 0x1000000
    16b0:	c3070023 	movwgt	r0, #28707	; 0x7023
    16b4:	0300000f 	movweq	r0, #15	; 0xf
    16b8:	005a016f 	subseq	r0, sl, pc, ror #2
    16bc:	0b040000 	bleq	1016c4 <__standby_start+0x1016c4>
    16c0:	00230210 	eoreq	r0, r3, r0, lsl r2
    16c4:	0004eb07 	andeq	lr, r4, r7, lsl #22
    16c8:	01700300 	cmneq	r0, r0, lsl #6
    16cc:	0000005a 	andeq	r0, r0, sl, asr r0
    16d0:	020e0204 	andeq	r0, lr, #1073741824	; 0x40000000
    16d4:	cd070023 	stcgt	0, cr0, [r7, #-140]
    16d8:	0300000f 	movweq	r0, #15	; 0xf
    16dc:	005a0171 	subseq	r0, sl, r1, ror r1
    16e0:	06040000 	streq	r0, [r4], -r0
    16e4:	00230208 	eoreq	r0, r3, r8, lsl #4
    16e8:	00132707 	andseq	r2, r3, r7, lsl #14
    16ec:	01720300 	cmneq	r2, r0, lsl #6
    16f0:	0000005a 	andeq	r0, r0, sl, asr r0
    16f4:	02060204 	andeq	r0, r6, #1073741824	; 0x40000000
    16f8:	d7070023 	strle	r0, [r7, -r3, lsr #32]
    16fc:	0300000f 	movweq	r0, #15	; 0xf
    1700:	005a0173 	subseq	r0, sl, r3, ror r1
    1704:	05040000 	streq	r0, [r4]
    1708:	00230201 	eoreq	r0, r3, r1, lsl #4
    170c:	0011a207 	andseq	sl, r1, r7, lsl #4
    1710:	01740300 	cmneq	r4, r0, lsl #6
    1714:	0000005a 	andeq	r0, r0, sl, asr r0
    1718:	02000104 	andeq	r0, r0, #1	; 0x1
    171c:	08000023 	stmdaeq	r0, {r0, r1, r5}
    1720:	000009ec 	andeq	r0, r0, ip, ror #19
    1724:	fd017503 	stc2	5, cr7, [r1, #-12]
    1728:	09000011 	stmdbeq	r0, {r0, r4}
    172c:	00000af9 	strdeq	r0, [r0], -r9
    1730:	01790304 	cmneq	r9, r4, lsl #6
    1734:	000012eb 	andeq	r1, r0, fp, ror #5
    1738:	000fc307 	andeq	ip, pc, r7, lsl #6
    173c:	017a0300 	cmneq	sl, r0, lsl #6
    1740:	0000005a 	andeq	r0, r0, sl, asr r0
    1744:	02081804 	andeq	r1, r8, #262144	; 0x40000
    1748:	27070023 	strcs	r0, [r7, -r3, lsr #32]
    174c:	03000013 	movweq	r0, #19	; 0x13
    1750:	005a017b 	subseq	r0, sl, fp, ror r1
    1754:	01040000 	tsteq	r4, r0
    1758:	00230207 	eoreq	r0, r3, r7, lsl #4
    175c:	000fcd07 	andeq	ip, pc, r7, lsl #26
    1760:	017c0300 	cmneq	ip, r0, lsl #6
    1764:	0000005a 	andeq	r0, r0, sl, asr r0
    1768:	02010604 	andeq	r0, r1, #4194304	; 0x400000
    176c:	a2070023 	andge	r0, r7, #35	; 0x23
    1770:	03000011 	movweq	r0, #17	; 0x11
    1774:	005a017d 	subseq	r0, sl, sp, ror r1
    1778:	01040000 	tsteq	r4, r0
    177c:	00230200 	eoreq	r0, r3, r0, lsl #4
    1780:	08e60800 	stmiaeq	r6!, {fp}^
    1784:	7e030000 	cdpvc	0, 0, cr0, cr3, cr0, {0}
    1788:	00129501 	andseq	r9, r2, r1, lsl #10
    178c:	0ada0900 	beq	ff683b94 <__bss_end+0xf681b0c>
    1790:	03040000 	movweq	r0, #16384	; 0x4000
    1794:	13b90182 	undefined instruction 0x13b90182
    1798:	77070000 	strvc	r0, [r7, -r0]
    179c:	03000008 	movweq	r0, #8	; 0x8
    17a0:	005a0183 	subseq	r0, sl, r3, lsl #3
    17a4:	01040000 	tsteq	r4, r0
    17a8:	0023021f 	eoreq	r0, r3, pc, lsl r2
    17ac:	0011fd07 	andseq	pc, r1, r7, lsl #26
    17b0:	01840300 	orreq	r0, r4, r0, lsl #6
    17b4:	0000005a 	andeq	r0, r0, sl, asr r0
    17b8:	021e0104 	andseq	r0, lr, #1	; 0x1
    17bc:	30070023 	andcc	r0, r7, r3, lsr #32
    17c0:	0300000b 	movweq	r0, #11	; 0xb
    17c4:	005a0185 	subseq	r0, sl, r5, lsl #3
    17c8:	01040000 	tsteq	r4, r0
    17cc:	0023021d 	eoreq	r0, r3, sp, lsl r2
    17d0:	000fc307 	andeq	ip, pc, r7, lsl #6
    17d4:	01860300 	orreq	r0, r6, r0, lsl #6
    17d8:	0000005a 	andeq	r0, r0, sl, asr r0
    17dc:	021c0104 	andseq	r0, ip, #1	; 0x1
    17e0:	e2070023 	and	r0, r7, #35	; 0x23
    17e4:	03000011 	movweq	r0, #17	; 0x11
    17e8:	005a0187 	subseq	r0, sl, r7, lsl #3
    17ec:	01040000 	tsteq	r4, r0
    17f0:	0023021b 	eoreq	r0, r3, fp, lsl r2
    17f4:	000fcd07 	andeq	ip, pc, r7, lsl #26
    17f8:	01880300 	orreq	r0, r8, r0, lsl #6
    17fc:	0000005a 	andeq	r0, r0, sl, asr r0
    1800:	021a0104 	andseq	r0, sl, #1	; 0x1
    1804:	9d070023 	stcls	0, cr0, [r7, #-140]
    1808:	03000011 	movweq	r0, #17	; 0x11
    180c:	005a0189 	subseq	r0, sl, r9, lsl #3
    1810:	01040000 	tsteq	r4, r0
    1814:	00230219 	eoreq	r0, r3, r9, lsl r2
    1818:	0006a307 	andeq	sl, r6, r7, lsl #6
    181c:	018a0300 	orreq	r0, sl, r0, lsl #6
    1820:	0000005a 	andeq	r0, r0, sl, asr r0
    1824:	02180104 	andseq	r0, r8, #1	; 0x1
    1828:	fd070023 	stc2	0, cr0, [r7, #-140]
    182c:	03000006 	movweq	r0, #6	; 0x6
    1830:	005a018b 	subseq	r0, sl, fp, lsl #3
    1834:	01040000 	tsteq	r4, r0
    1838:	00230217 	eoreq	r0, r3, r7, lsl r2
    183c:	000fd707 	andeq	sp, pc, r7, lsl #14
    1840:	018c0300 	orreq	r0, ip, r0, lsl #6
    1844:	0000005a 	andeq	r0, r0, sl, asr r0
    1848:	02001704 	andeq	r1, r0, #1048576	; 0x100000
    184c:	08000023 	stmdaeq	r0, {r0, r1, r5}
    1850:	0000070c 	andeq	r0, r0, ip, lsl #14
    1854:	f7018d03 	undefined instruction 0xf7018d03
    1858:	09000012 	stmdbeq	r0, {r1, r4}
    185c:	00000e11 	andeq	r0, r0, r1, lsl lr
    1860:	01910304 	orrseq	r0, r1, r4, lsl #6
    1864:	00001409 	andeq	r1, r0, r9, lsl #8
    1868:	00038407 	andeq	r8, r3, r7, lsl #8
    186c:	01920300 	orrseq	r0, r2, r0, lsl #6
    1870:	0000005a 	andeq	r0, r0, sl, asr r0
    1874:	021f0104 	andseq	r0, pc, #1	; 0x1
    1878:	a2070023 	andge	r0, r7, #35	; 0x23
    187c:	03000011 	movweq	r0, #17	; 0x11
    1880:	005a0193 	ldrbeq	r0, [sl], #-19
    1884:	01040000 	tsteq	r4, r0
    1888:	0023021e 	eoreq	r0, r3, lr, lsl r2
    188c:	00033007 	andeq	r3, r3, r7
    1890:	01940300 	orrseq	r0, r4, r0, lsl #6
    1894:	0000005a 	andeq	r0, r0, sl, asr r0
    1898:	02001e04 	andeq	r1, r0, #64	; 0x40
    189c:	08000023 	stmdaeq	r0, {r0, r1, r5}
    18a0:	000009ab 	andeq	r0, r0, fp, lsr #19
    18a4:	c5019503 	strgt	r9, [r1, #-1283]
    18a8:	09000013 	stmdbeq	r0, {r0, r1, r4}
    18ac:	00000472 	andeq	r0, r0, r2, ror r4
    18b0:	01990304 	orrseq	r0, r9, r4, lsl #6
    18b4:	00001555 	andeq	r1, r0, r5, asr r5
    18b8:	000ba507 	andeq	sl, fp, r7, lsl #10
    18bc:	019a0300 	orrseq	r0, sl, r0, lsl #6
    18c0:	0000005a 	andeq	r0, r0, sl, asr r0
    18c4:	021f0104 	andseq	r0, pc, #1	; 0x1
    18c8:	af070023 	svcge	0x00070023
    18cc:	03000013 	movweq	r0, #19	; 0x13
    18d0:	005a019b 	ldrbeq	r0, [sl], #-27
    18d4:	01040000 	tsteq	r4, r0
    18d8:	0023021e 	eoreq	r0, r3, lr, lsl r2
    18dc:	00123b07 	andseq	r3, r2, r7, lsl #22
    18e0:	019c0300 	orrseq	r0, ip, r0, lsl #6
    18e4:	0000005a 	andeq	r0, r0, sl, asr r0
    18e8:	021d0104 	andseq	r0, sp, #1	; 0x1
    18ec:	00070023 	andeq	r0, r7, r3, lsr #32
    18f0:	03000004 	movweq	r0, #4	; 0x4
    18f4:	005a019d 	ldrbeq	r0, [sl], #-29
    18f8:	01040000 	tsteq	r4, r0
    18fc:	0023021c 	eoreq	r0, r3, ip, lsl r2
    1900:	00048b07 	andeq	r8, r4, r7, lsl #22
    1904:	019e0300 	orrseq	r0, lr, r0, lsl #6
    1908:	0000005a 	andeq	r0, r0, sl, asr r0
    190c:	021b0104 	andseq	r0, fp, #1	; 0x1
    1910:	38070023 	stmdacc	r7, {r0, r1, r5}
    1914:	0300000a 	movweq	r0, #10	; 0xa
    1918:	005a019f 	ldrbeq	r0, [sl], #-31
    191c:	01040000 	tsteq	r4, r0
    1920:	0023021a 	eoreq	r0, r3, sl, lsl r2
    1924:	00042007 	andeq	r2, r4, r7
    1928:	01a00300 	lsleq	r0, r0, #6
    192c:	0000005a 	andeq	r0, r0, sl, asr r0
    1930:	02190104 	andseq	r0, r9, #1	; 0x1
    1934:	c3070023 	movwgt	r0, #28707	; 0x7023
    1938:	0300000f 	movweq	r0, #15	; 0xf
    193c:	005a01a1 	subseq	r0, sl, r1, lsr #3
    1940:	08040000 	stmdaeq	r4, {}
    1944:	00230211 	eoreq	r0, r3, r1, lsl r2
    1948:	00094007 	andeq	r4, r9, r7
    194c:	01a20300 	undefined instruction 0x01a20300
    1950:	0000005a 	andeq	r0, r0, sl, asr r0
    1954:	02100104 	andseq	r0, r0, #1	; 0x1
    1958:	cd070023 	stcgt	0, cr0, [r7, #-140]
    195c:	0300000f 	movweq	r0, #15	; 0xf
    1960:	005a01a3 	subseq	r0, sl, r3, lsr #3
    1964:	08040000 	stmdaeq	r4, {}
    1968:	00230208 	eoreq	r0, r3, r8, lsl #4
    196c:	000c5107 	andeq	r5, ip, r7, lsl #2
    1970:	01a40300 	undefined instruction 0x01a40300
    1974:	0000005a 	andeq	r0, r0, sl, asr r0
    1978:	02070104 	andeq	r0, r7, #1	; 0x1
    197c:	31070023 	tstcc	r7, r3, lsr #32
    1980:	03000012 	movweq	r0, #18	; 0x12
    1984:	005a01a5 	subseq	r0, sl, r5, lsr #3
    1988:	01040000 	tsteq	r4, r0
    198c:	00230206 	eoreq	r0, r3, r6, lsl #4
    1990:	000f7307 	andeq	r7, pc, r7, lsl #6
    1994:	01a60300 	undefined instruction 0x01a60300
    1998:	0000005a 	andeq	r0, r0, sl, asr r0
    199c:	02050104 	andeq	r0, r5, #1	; 0x1
    19a0:	20070023 	andcs	r0, r7, r3, lsr #32
    19a4:	03000008 	movweq	r0, #8	; 0x8
    19a8:	005a01a7 	subseq	r0, sl, r7, lsr #3
    19ac:	01040000 	tsteq	r4, r0
    19b0:	00230204 	eoreq	r0, r3, r4, lsl #4
    19b4:	00050a07 	andeq	r0, r5, r7, lsl #20
    19b8:	01a80300 	undefined instruction 0x01a80300
    19bc:	0000005a 	andeq	r0, r0, sl, asr r0
    19c0:	02030104 	andeq	r0, r3, #1	; 0x1
    19c4:	55070023 	strpl	r0, [r7, #-35]
    19c8:	0300000d 	movweq	r0, #13	; 0xd
    19cc:	005a01a9 	subseq	r0, sl, r9, lsr #3
    19d0:	01040000 	tsteq	r4, r0
    19d4:	00230202 	eoreq	r0, r3, r2, lsl #4
    19d8:	000fd707 	andeq	sp, pc, r7, lsl #14
    19dc:	01aa0300 	undefined instruction 0x01aa0300
    19e0:	0000005a 	andeq	r0, r0, sl, asr r0
    19e4:	02000204 	andeq	r0, r0, #1073741824	; 0x40000000
    19e8:	08000023 	stmdaeq	r0, {r0, r1, r5}
    19ec:	000004ad 	andeq	r0, r0, sp, lsr #9
    19f0:	1501ab03 	strne	sl, [r1, #-2819]
    19f4:	09000014 	stmdbeq	r0, {r2, r4}
    19f8:	00000460 	andeq	r0, r0, r0, ror #8
    19fc:	01b10304 	undefined instruction 0x01b10304
    1a00:	000015db 	ldrdeq	r1, [r0], -fp
    1a04:	00137607 	andseq	r7, r3, r7, lsl #12
    1a08:	01b20300 	undefined instruction 0x01b20300
    1a0c:	0000005a 	andeq	r0, r0, sl, asr r0
    1a10:	021c0404 	andseq	r0, ip, #67108864	; 0x4000000
    1a14:	c3070023 	movwgt	r0, #28707	; 0x7023
    1a18:	0300000f 	movweq	r0, #15	; 0xf
    1a1c:	005a01b3 	ldrheq	r0, [sl], #-19
    1a20:	14040000 	strne	r0, [r4]
    1a24:	00230208 	eoreq	r0, r3, r8, lsl #4
    1a28:	00132707 	andseq	r2, r3, r7, lsl #14
    1a2c:	01b40300 	undefined instruction 0x01b40300
    1a30:	0000005a 	andeq	r0, r0, sl, asr r0
    1a34:	02060204 	andeq	r0, r6, #1073741824	; 0x40000000
    1a38:	cd070023 	stcgt	0, cr0, [r7, #-140]
    1a3c:	0300000f 	movweq	r0, #15	; 0xf
    1a40:	005a01b5 	ldrheq	r0, [sl], #-21
    1a44:	04040000 	streq	r0, [r4]
    1a48:	00230202 	eoreq	r0, r3, r2, lsl #4
    1a4c:	00038407 	andeq	r8, r3, r7, lsl #8
    1a50:	01b60300 	undefined instruction 0x01b60300
    1a54:	0000005a 	andeq	r0, r0, sl, asr r0
    1a58:	02010104 	andeq	r0, r1, #1	; 0x1
    1a5c:	a2070023 	andge	r0, r7, #35	; 0x23
    1a60:	03000011 	movweq	r0, #17	; 0x11
    1a64:	005a01b7 	ldrheq	r0, [sl], #-23
    1a68:	01040000 	tsteq	r4, r0
    1a6c:	00230200 	eoreq	r0, r3, r0, lsl #4
    1a70:	10e30800 	rscne	r0, r3, r0, lsl #16
    1a74:	b9030000 	stmdblt	r3, {}
    1a78:	00156101 	andseq	r6, r5, r1, lsl #2
    1a7c:	125d0900 	subsne	r0, sp, #0	; 0x0
    1a80:	03040000 	movweq	r0, #16384	; 0x4000
    1a84:	164f01bf 	undefined
    1a88:	c3070000 	movwgt	r0, #28672	; 0x7000
    1a8c:	0300000f 	movweq	r0, #15	; 0xf
    1a90:	005a01c0 	subseq	r0, sl, r0, asr #3
    1a94:	18040000 	stmdane	r4, {}
    1a98:	00230208 	eoreq	r0, r3, r8, lsl #4
    1a9c:	00132707 	andseq	r2, r3, r7, lsl #14
    1aa0:	01c10300 	biceq	r0, r1, r0, lsl #6
    1aa4:	0000005a 	andeq	r0, r0, sl, asr r0
    1aa8:	02060204 	andeq	r0, r6, #1073741824	; 0x40000000
    1aac:	cd070023 	stcgt	0, cr0, [r7, #-140]
    1ab0:	0300000f 	movweq	r0, #15	; 0xf
    1ab4:	005a01c2 	subseq	r0, sl, r2, asr #3
    1ab8:	04040000 	streq	r0, [r4]
    1abc:	00230202 	eoreq	r0, r3, r2, lsl #4
    1ac0:	00038407 	andeq	r8, r3, r7, lsl #8
    1ac4:	01c30300 	biceq	r0, r3, r0, lsl #6
    1ac8:	0000005a 	andeq	r0, r0, sl, asr r0
    1acc:	02010104 	andeq	r0, r1, #1	; 0x1
    1ad0:	a2070023 	andge	r0, r7, #35	; 0x23
    1ad4:	03000011 	movweq	r0, #17	; 0x11
    1ad8:	005a01c4 	subseq	r0, sl, r4, asr #3
    1adc:	01040000 	tsteq	r4, r0
    1ae0:	00230200 	eoreq	r0, r3, r0, lsl #4
    1ae4:	05c20800 	strbeq	r0, [r2, #2048]
    1ae8:	c6030000 	strgt	r0, [r3], -r0
    1aec:	0015e701 	andseq	lr, r5, r1, lsl #14
    1af0:	05e90900 	strbeq	r0, [r9, #2304]!
    1af4:	03040000 	movweq	r0, #16384	; 0x4000
    1af8:	16c301ca 	strbne	r0, [r3], sl, asr #3
    1afc:	76070000 	strvc	r0, [r7], -r0
    1b00:	03000013 	movweq	r0, #19	; 0x13
    1b04:	005a01cb 	subseq	r0, sl, fp, asr #3
    1b08:	04040000 	streq	r0, [r4]
    1b0c:	0023021c 	eoreq	r0, r3, ip, lsl r2
    1b10:	000fc307 	andeq	ip, pc, r7, lsl #6
    1b14:	01cc0300 	biceq	r0, ip, r0, lsl #6
    1b18:	0000005a 	andeq	r0, r0, sl, asr r0
    1b1c:	02081404 	andeq	r1, r8, #67108864	; 0x4000000
    1b20:	27070023 	strcs	r0, [r7, -r3, lsr #32]
    1b24:	03000013 	movweq	r0, #19	; 0x13
    1b28:	005a01cd 	subseq	r0, sl, sp, asr #3
    1b2c:	02040000 	andeq	r0, r4, #0	; 0x0
    1b30:	00230206 	eoreq	r0, r3, r6, lsl #4
    1b34:	000fcd07 	andeq	ip, pc, r7, lsl #26
    1b38:	01ce0300 	biceq	r0, lr, r0, lsl #6
    1b3c:	0000005a 	andeq	r0, r0, sl, asr r0
    1b40:	02010504 	andeq	r0, r1, #16777216	; 0x1000000
    1b44:	a2070023 	andge	r0, r7, #35	; 0x23
    1b48:	03000011 	movweq	r0, #17	; 0x11
    1b4c:	005a01cf 	subseq	r0, sl, pc, asr #3
    1b50:	01040000 	tsteq	r4, r0
    1b54:	00230200 	eoreq	r0, r3, r0, lsl #4
    1b58:	08a50800 	stmiaeq	r5!, {fp}
    1b5c:	d0030000 	andle	r0, r3, r0
    1b60:	00165b01 	andseq	r5, r6, r1, lsl #22
    1b64:	0de20900 	stcleq	9, cr0, [r2]
    1b68:	03040000 	movweq	r0, #16384	; 0x4000
    1b6c:	172501d3 	undefined
    1b70:	c3070000 	movwgt	r0, #28672	; 0x7000
    1b74:	0300000f 	movweq	r0, #15	; 0xf
    1b78:	005a01d4 	ldrsbeq	r0, [sl], #-20
    1b7c:	18040000 	stmdane	r4, {}
    1b80:	00230208 	eoreq	r0, r3, r8, lsl #4
    1b84:	00132707 	andseq	r2, r3, r7, lsl #14
    1b88:	01d50300 	bicseq	r0, r5, r0, lsl #6
    1b8c:	0000005a 	andeq	r0, r0, sl, asr r0
    1b90:	02070104 	andeq	r0, r7, #1	; 0x1
    1b94:	cd070023 	stcgt	0, cr0, [r7, #-140]
    1b98:	0300000f 	movweq	r0, #15	; 0xf
    1b9c:	005a01d6 	ldrsbeq	r0, [sl], #-22
    1ba0:	06040000 	streq	r0, [r4], -r0
    1ba4:	00230201 	eoreq	r0, r3, r1, lsl #4
    1ba8:	0011a207 	andseq	sl, r1, r7, lsl #4
    1bac:	01d70300 	bicseq	r0, r7, r0, lsl #6
    1bb0:	0000005a 	andeq	r0, r0, sl, asr r0
    1bb4:	02000104 	andeq	r0, r0, #1	; 0x1
    1bb8:	08000023 	stmdaeq	r0, {r0, r1, r5}
    1bbc:	000011c9 	andeq	r1, r0, r9, asr #3
    1bc0:	cf01d803 	svcgt	0x0001d803
    1bc4:	09000016 	stmdbeq	r0, {r1, r2, r4}
    1bc8:	00000c85 	andeq	r0, r0, r5, lsl #25
    1bcc:	01de0304 	bicseq	r0, lr, r4, lsl #6
    1bd0:	000017e1 	andeq	r1, r0, r1, ror #15
    1bd4:	00137607 	andseq	r7, r3, r7, lsl #12
    1bd8:	01df0300 	bicseq	r0, pc, r0, lsl #6
    1bdc:	0000005a 	andeq	r0, r0, sl, asr r0
    1be0:	021c0404 	andseq	r0, ip, #67108864	; 0x4000000
    1be4:	c3070023 	movwgt	r0, #28707	; 0x7023
    1be8:	0300000f 	movweq	r0, #15	; 0xf
    1bec:	005a01e0 	subseq	r0, sl, r0, ror #3
    1bf0:	07040000 	streq	r0, [r4, -r0]
    1bf4:	00230215 	eoreq	r0, r3, r5, lsl r2
    1bf8:	00063907 	andeq	r3, r6, r7, lsl #18
    1bfc:	01e10300 	mvneq	r0, r0, lsl #6
    1c00:	0000005a 	andeq	r0, r0, sl, asr r0
    1c04:	02140104 	andseq	r0, r4, #1	; 0x1
    1c08:	cd070023 	stcgt	0, cr0, [r7, #-140]
    1c0c:	0300000f 	movweq	r0, #15	; 0xf
    1c10:	005a01e2 	subseq	r0, sl, r2, ror #3
    1c14:	03040000 	movweq	r0, #16384	; 0x4000
    1c18:	00230211 	eoreq	r0, r3, r1, lsl r2
    1c1c:	00101107 	andseq	r1, r0, r7, lsl #2
    1c20:	01e30300 	mvneq	r0, r0, lsl #6
    1c24:	0000005a 	andeq	r0, r0, sl, asr r0
    1c28:	02100104 	andseq	r0, r0, #1	; 0x1
    1c2c:	d7070023 	strle	r0, [r7, -r3, lsr #32]
    1c30:	0300000f 	movweq	r0, #15	; 0xf
    1c34:	005a01e4 	subseq	r0, sl, r4, ror #3
    1c38:	08040000 	stmdaeq	r4, {}
    1c3c:	00230208 	eoreq	r0, r3, r8, lsl #4
    1c40:	00101e07 	andseq	r1, r0, r7, lsl #28
    1c44:	01e50300 	mvneq	r0, r0, lsl #6
    1c48:	0000005a 	andeq	r0, r0, sl, asr r0
    1c4c:	02060204 	andeq	r0, r6, #1073741824	; 0x40000000
    1c50:	e1070023 	tst	r7, r3, lsr #32
    1c54:	0300000f 	movweq	r0, #15	; 0xf
    1c58:	005a01e6 	subseq	r0, sl, r6, ror #3
    1c5c:	05040000 	streq	r0, [r4]
    1c60:	00230201 	eoreq	r0, r3, r1, lsl #4
    1c64:	000a6d07 	andeq	r6, sl, r7, lsl #26
    1c68:	01e70300 	mvneq	r0, r0, lsl #6
    1c6c:	0000005a 	andeq	r0, r0, sl, asr r0
    1c70:	02000104 	andeq	r0, r0, #1	; 0x1
    1c74:	08000023 	stmdaeq	r0, {r0, r1, r5}
    1c78:	00000f58 	andeq	r0, r0, r8, asr pc
    1c7c:	3101e903 	tstcc	r1, r3, lsl #18
    1c80:	09000017 	stmdbeq	r0, {r0, r1, r2, r4}
    1c84:	000009dd 	ldrdeq	r0, [r0], -sp
    1c88:	01ef0304 	mvneq	r0, r4, lsl #6
    1c8c:	00001867 	andeq	r1, r0, r7, ror #16
    1c90:	00137607 	andseq	r7, r3, r7, lsl #12
    1c94:	01f00300 	mvnseq	r0, r0, lsl #6
    1c98:	0000005a 	andeq	r0, r0, sl, asr r0
    1c9c:	021b0504 	andseq	r0, fp, #16777216	; 0x1000000
    1ca0:	c3070023 	movwgt	r0, #28707	; 0x7023
    1ca4:	0300000f 	movweq	r0, #15	; 0xf
    1ca8:	005a01f1 	ldrsheq	r0, [sl], #-17
    1cac:	13040000 	movwne	r0, #16384	; 0x4000
    1cb0:	00230208 	eoreq	r0, r3, r8, lsl #4
    1cb4:	00132707 	andseq	r2, r3, r7, lsl #14
    1cb8:	01f20300 	mvnseq	r0, r0, lsl #6
    1cbc:	0000005a 	andeq	r0, r0, sl, asr r0
    1cc0:	02050304 	andeq	r0, r5, #268435456	; 0x10000000
    1cc4:	cd070023 	stcgt	0, cr0, [r7, #-140]
    1cc8:	0300000f 	movweq	r0, #15	; 0xf
    1ccc:	005a01f3 	ldrsheq	r0, [sl], #-19
    1cd0:	03040000 	movweq	r0, #16384	; 0x4000
    1cd4:	00230202 	eoreq	r0, r3, r2, lsl #4
    1cd8:	00038407 	andeq	r8, r3, r7, lsl #8
    1cdc:	01f40300 	mvnseq	r0, r0, lsl #6
    1ce0:	0000005a 	andeq	r0, r0, sl, asr r0
    1ce4:	02010104 	andeq	r0, r1, #1	; 0x1
    1ce8:	a2070023 	andge	r0, r7, #35	; 0x23
    1cec:	03000011 	movweq	r0, #17	; 0x11
    1cf0:	005a01f5 	ldrsheq	r0, [sl], #-21
    1cf4:	01040000 	tsteq	r4, r0
    1cf8:	00230200 	eoreq	r0, r3, r0, lsl #4
    1cfc:	091a0800 	ldmdbeq	sl, {fp}
    1d00:	f6030000 	undefined instruction 0xf6030000
    1d04:	0017ed01 	andseq	lr, r7, r1, lsl #26
    1d08:	12850900 	addne	r0, r5, #0	; 0x0
    1d0c:	03040000 	movweq	r0, #16384	; 0x4000
    1d10:	18db01fa 	ldmne	fp, {r1, r3, r4, r5, r6, r7, r8}^
    1d14:	84070000 	strhi	r0, [r7]
    1d18:	03000003 	movweq	r0, #3	; 0x3
    1d1c:	005a01fb 	ldrsheq	r0, [sl], #-27
    1d20:	01040000 	tsteq	r4, r0
    1d24:	0023021f 	eoreq	r0, r3, pc, lsl r2
    1d28:	000fc307 	andeq	ip, pc, r7, lsl #6
    1d2c:	01fc0300 	mvnseq	r0, r0, lsl #6
    1d30:	0000005a 	andeq	r0, r0, sl, asr r0
    1d34:	02100f04 	andseq	r0, r0, #16	; 0x10
    1d38:	76070023 	strvc	r0, [r7], -r3, lsr #32
    1d3c:	03000013 	movweq	r0, #19	; 0x13
    1d40:	005a01fd 	ldrsheq	r0, [sl], #-29
    1d44:	03040000 	movweq	r0, #16384	; 0x4000
    1d48:	0023020d 	eoreq	r0, r3, sp, lsl #4
    1d4c:	000fcd07 	andeq	ip, pc, r7, lsl #26
    1d50:	01fe0300 	mvnseq	r0, r0, lsl #6
    1d54:	0000005a 	andeq	r0, r0, sl, asr r0
    1d58:	02010c04 	andeq	r0, r1, #1024	; 0x400
    1d5c:	a2070023 	andge	r0, r7, #35	; 0x23
    1d60:	03000011 	movweq	r0, #17	; 0x11
    1d64:	005a01ff 	ldrsheq	r0, [sl], #-31
    1d68:	01040000 	tsteq	r4, r0
    1d6c:	00230200 	eoreq	r0, r3, r0, lsl #4
    1d70:	0eaa0800 	cdpeq	8, 10, cr0, cr10, cr0, {0}
    1d74:	00030000 	andeq	r0, r3, r0
    1d78:	00187302 	andseq	r7, r8, r2, lsl #6
    1d7c:	0cdf0900 	ldcleq	9, cr0, [pc], {0}
    1d80:	03040000 	movweq	r0, #16384	; 0x4000
    1d84:	19190203 	ldmdbne	r9, {r0, r1, r9}
    1d88:	c3070000 	movwgt	r0, #28672	; 0x7000
    1d8c:	0300000f 	movweq	r0, #15	; 0xf
    1d90:	005a0204 	subseq	r0, sl, r4, lsl #4
    1d94:	1f040000 	svcne	0x00040000
    1d98:	00230201 	eoreq	r0, r3, r1, lsl #4
    1d9c:	0011a207 	andseq	sl, r1, r7, lsl #4
    1da0:	02050300 	andeq	r0, r5, #0	; 0x0
    1da4:	0000005a 	andeq	r0, r0, sl, asr r0
    1da8:	02000104 	andeq	r0, r0, #1	; 0x1
    1dac:	08000023 	stmdaeq	r0, {r0, r1, r5}
    1db0:	00000493 	muleq	r0, r3, r4
    1db4:	e7020603 	str	r0, [r2, -r3, lsl #12]
    1db8:	09000018 	stmdbeq	r0, {r3, r4}
    1dbc:	00000846 	andeq	r0, r0, r6, asr #16
    1dc0:	02090304 	andeq	r0, r9, #268435456	; 0x10000000
    1dc4:	00001957 	andeq	r1, r0, r7, asr r9
    1dc8:	000fc307 	andeq	ip, pc, r7, lsl #6
    1dcc:	020a0300 	andeq	r0, sl, #0	; 0x0
    1dd0:	0000005a 	andeq	r0, r0, sl, asr r0
    1dd4:	02011f04 	andeq	r1, r1, #16	; 0x10
    1dd8:	a2070023 	andge	r0, r7, #35	; 0x23
    1ddc:	03000011 	movweq	r0, #17	; 0x11
    1de0:	005a020b 	subseq	r0, sl, fp, lsl #4
    1de4:	01040000 	tsteq	r4, r0
    1de8:	00230200 	eoreq	r0, r3, r0, lsl #4
    1dec:	129b0800 	addsne	r0, fp, #0	; 0x0
    1df0:	0c030000 	stceq	0, cr0, [r3], {0}
    1df4:	00192502 	andseq	r2, r9, r2, lsl #10
    1df8:	0ec20900 	cdpeq	9, 12, cr0, cr2, cr0, {0}
    1dfc:	03040000 	movweq	r0, #16384	; 0x4000
    1e00:	19ef0210 	stmibne	pc!, {r4, r9}^
    1e04:	76070000 	strvc	r0, [r7], -r0
    1e08:	03000013 	movweq	r0, #19	; 0x13
    1e0c:	005a0211 	subseq	r0, sl, r1, lsl r2
    1e10:	04040000 	streq	r0, [r4]
    1e14:	0023021c 	eoreq	r0, r3, ip, lsl r2
    1e18:	000fc307 	andeq	ip, pc, r7, lsl #6
    1e1c:	02120300 	andseq	r0, r2, #0	; 0x0
    1e20:	0000005a 	andeq	r0, r0, sl, asr r0
    1e24:	02100c04 	andseq	r0, r0, #1024	; 0x400
    1e28:	84070023 	strhi	r0, [r7], #-35
    1e2c:	03000003 	movweq	r0, #3	; 0x3
    1e30:	005a0213 	subseq	r0, sl, r3, lsl r2
    1e34:	01040000 	tsteq	r4, r0
    1e38:	0023020f 	eoreq	r0, r3, pc, lsl #4
    1e3c:	000fcd07 	andeq	ip, pc, r7, lsl #26
    1e40:	02140300 	andseq	r0, r4, #0	; 0x0
    1e44:	0000005a 	andeq	r0, r0, sl, asr r0
    1e48:	02080704 	andeq	r0, r8, #1048576	; 0x100000
    1e4c:	27070023 	strcs	r0, [r7, -r3, lsr #32]
    1e50:	03000013 	movweq	r0, #19	; 0x13
    1e54:	005a0215 	subseq	r0, sl, r5, lsl r2
    1e58:	01040000 	tsteq	r4, r0
    1e5c:	00230207 	eoreq	r0, r3, r7, lsl #4
    1e60:	000fd707 	andeq	sp, pc, r7, lsl #14
    1e64:	02160300 	andseq	r0, r6, #0	; 0x0
    1e68:	0000005a 	andeq	r0, r0, sl, asr r0
    1e6c:	02010604 	andeq	r0, r1, #4194304	; 0x400000
    1e70:	a2070023 	andge	r0, r7, #35	; 0x23
    1e74:	03000011 	movweq	r0, #17	; 0x11
    1e78:	005a0217 	subseq	r0, sl, r7, lsl r2
    1e7c:	01040000 	tsteq	r4, r0
    1e80:	00230200 	eoreq	r0, r3, r0, lsl #4
    1e84:	0e280800 	cdpeq	8, 2, cr0, cr8, cr0, {0}
    1e88:	18030000 	stmdane	r3, {}
    1e8c:	00196302 	andseq	r6, r9, r2, lsl #6
    1e90:	05130900 	ldreq	r0, [r3, #-2304]
    1e94:	03040000 	movweq	r0, #16384	; 0x4000
    1e98:	1a2d021c 	bne	b42710 <__standby_start+0xb42710>
    1e9c:	84070000 	strhi	r0, [r7]
    1ea0:	03000003 	movweq	r0, #3	; 0x3
    1ea4:	005a021d 	subseq	r0, sl, sp, lsl r2
    1ea8:	01040000 	tsteq	r4, r0
    1eac:	0023021f 	eoreq	r0, r3, pc, lsl r2
    1eb0:	00033007 	andeq	r3, r3, r7
    1eb4:	021e0300 	andseq	r0, lr, #0	; 0x0
    1eb8:	0000005a 	andeq	r0, r0, sl, asr r0
    1ebc:	02001f04 	andeq	r1, r0, #16	; 0x10
    1ec0:	08000023 	stmdaeq	r0, {r0, r1, r5}
    1ec4:	00000e88 	andeq	r0, r0, r8, lsl #29
    1ec8:	fb021f03 	blx	89ade <__standby_start+0x89ade>
    1ecc:	09000019 	stmdbeq	r0, {r0, r3, r4}
    1ed0:	00000618 	andeq	r0, r0, r8, lsl r6
    1ed4:	02230304 	eoreq	r0, r3, #268435456	; 0x10000000
    1ed8:	00001aa1 	andeq	r1, r0, r1, lsr #21
    1edc:	00137607 	andseq	r7, r3, r7, lsl #12
    1ee0:	02240300 	eoreq	r0, r4, #0	; 0x0
    1ee4:	0000005a 	andeq	r0, r0, sl, asr r0
    1ee8:	021c0404 	andseq	r0, ip, #67108864	; 0x4000000
    1eec:	c3070023 	movwgt	r0, #28707	; 0x7023
    1ef0:	0300000f 	movweq	r0, #15	; 0xf
    1ef4:	005a0225 	subseq	r0, sl, r5, lsr #4
    1ef8:	14040000 	strne	r0, [r4]
    1efc:	00230208 	eoreq	r0, r3, r8, lsl #4
    1f00:	00132707 	andseq	r2, r3, r7, lsl #14
    1f04:	02260300 	eoreq	r0, r6, #0	; 0x0
    1f08:	0000005a 	andeq	r0, r0, sl, asr r0
    1f0c:	02060204 	andeq	r0, r6, #1073741824	; 0x40000000
    1f10:	cd070023 	stcgt	0, cr0, [r7, #-140]
    1f14:	0300000f 	movweq	r0, #15	; 0xf
    1f18:	005a0227 	subseq	r0, sl, r7, lsr #4
    1f1c:	05040000 	streq	r0, [r4]
    1f20:	00230201 	eoreq	r0, r3, r1, lsl #4
    1f24:	0011a207 	andseq	sl, r1, r7, lsl #4
    1f28:	02280300 	eoreq	r0, r8, #0	; 0x0
    1f2c:	0000005a 	andeq	r0, r0, sl, asr r0
    1f30:	02000104 	andeq	r0, r0, #1	; 0x1
    1f34:	08000023 	stmdaeq	r0, {r0, r1, r5}
    1f38:	000003c1 	andeq	r0, r0, r1, asr #7
    1f3c:	39022903 	stmdbcc	r2, {r0, r1, r8, fp, sp}
    1f40:	0900001a 	stmdbeq	r0, {r1, r3, r4}
    1f44:	00000aa9 	andeq	r0, r0, r9, lsr #21
    1f48:	022d0304 	eoreq	r0, sp, #268435456	; 0x10000000
    1f4c:	00001b27 	andeq	r1, r0, r7, lsr #22
    1f50:	00137607 	andseq	r7, r3, r7, lsl #12
    1f54:	022e0300 	eoreq	r0, lr, #0	; 0x0
    1f58:	0000005a 	andeq	r0, r0, sl, asr r0
    1f5c:	021c0404 	andseq	r0, ip, #67108864	; 0x4000000
    1f60:	c3070023 	movwgt	r0, #28707	; 0x7023
    1f64:	0300000f 	movweq	r0, #15	; 0xf
    1f68:	005a022f 	subseq	r0, sl, pc, lsr #4
    1f6c:	14040000 	strne	r0, [r4]
    1f70:	00230208 	eoreq	r0, r3, r8, lsl #4
    1f74:	00132707 	andseq	r2, r3, r7, lsl #14
    1f78:	02300300 	eorseq	r0, r0, #0	; 0x0
    1f7c:	0000005a 	andeq	r0, r0, sl, asr r0
    1f80:	02060204 	andeq	r0, r6, #1073741824	; 0x40000000
    1f84:	cd070023 	stcgt	0, cr0, [r7, #-140]
    1f88:	0300000f 	movweq	r0, #15	; 0xf
    1f8c:	005a0231 	subseq	r0, sl, r1, lsr r2
    1f90:	04040000 	streq	r0, [r4]
    1f94:	00230202 	eoreq	r0, r3, r2, lsl #4
    1f98:	00038407 	andeq	r8, r3, r7, lsl #8
    1f9c:	02320300 	eorseq	r0, r2, #0	; 0x0
    1fa0:	0000005a 	andeq	r0, r0, sl, asr r0
    1fa4:	02010104 	andeq	r0, r1, #1	; 0x1
    1fa8:	a2070023 	andge	r0, r7, #35	; 0x23
    1fac:	03000011 	movweq	r0, #17	; 0x11
    1fb0:	005a0233 	subseq	r0, sl, r3, lsr r2
    1fb4:	01040000 	tsteq	r4, r0
    1fb8:	00230200 	eoreq	r0, r3, r0, lsl #4
    1fbc:	096a0800 	stmdbeq	sl!, {fp}^
    1fc0:	34030000 	strcc	r0, [r3]
    1fc4:	001aad02 	andseq	sl, sl, r2, lsl #26
    1fc8:	13490a00 	movtne	r0, #39424	; 0x9a00
    1fcc:	01580000 	cmpeq	r8, r0
    1fd0:	98023903 	stmdals	r2, {r0, r1, r8, fp, ip, sp}
    1fd4:	0b00001f 	bleq	2058 <__standby_start+0x2058>
    1fd8:	00000a08 	andeq	r0, r0, r8, lsl #20
    1fdc:	98023a03 	stmdals	r2, {r0, r1, r9, fp, ip, sp}
    1fe0:	0200001f 	andeq	r0, r0, #31	; 0x1f
    1fe4:	820b0023 	andhi	r0, fp, #35	; 0x23
    1fe8:	03000008 	movweq	r0, #8	; 0x8
    1fec:	1f9d023b 	svcne	0x009d023b
    1ff0:	23020000 	movwcs	r0, #8192	; 0x2000
    1ff4:	13410b04 	movtne	r0, #6916	; 0x1b04
    1ff8:	3c030000 	stccc	0, cr0, [r3], {0}
    1ffc:	001fa202 	andseq	sl, pc, r2, lsl #4
    2000:	08230200 	stmdaeq	r3!, {r9}
    2004:	00113b0b 	andseq	r3, r1, fp, lsl #22
    2008:	023d0300 	eorseq	r0, sp, #0	; 0x0
    200c:	00001fa7 	andeq	r1, r0, r7, lsr #31
    2010:	0b0c2302 	bleq	30ac20 <__standby_start+0x30ac20>
    2014:	000007d9 	ldrdeq	r0, [r0], -r9
    2018:	ac023e03 	stcge	14, cr3, [r2], {3}
    201c:	0200001f 	andeq	r0, r0, #31	; 0x1f
    2020:	ed0b1023 	stc	0, cr1, [fp, #-140]
    2024:	03000011 	movweq	r0, #17	; 0x11
    2028:	1fb1023f 	svcne	0x00b1023f
    202c:	23020000 	movwcs	r0, #8192	; 0x2000
    2030:	05330b14 	ldreq	r0, [r3, #-2836]!
    2034:	40030000 	andmi	r0, r3, r0
    2038:	001fb602 	andseq	fp, pc, r2, lsl #12
    203c:	18230200 	stmdane	r3!, {r9}
    2040:	0007ea0b 	andeq	lr, r7, fp, lsl #20
    2044:	02410300 	subeq	r0, r1, #0	; 0x0
    2048:	00001fb1 	strheq	r1, [r0], -r1
    204c:	0b1c2302 	bleq	70ac5c <__standby_start+0x70ac5c>
    2050:	00000ea2 	andeq	r0, r0, r2, lsr #29
    2054:	bb024203 	bllt	92868 <__standby_start+0x92868>
    2058:	0200001f 	andeq	r0, r0, #31	; 0x1f
    205c:	7d0b2023 	stcvc	0, cr2, [fp, #-140]
    2060:	03000013 	movweq	r0, #19	; 0x13
    2064:	1fc00243 	svcne	0x00c00243
    2068:	23020000 	movwcs	r0, #8192	; 0x2000
    206c:	04d00b24 	ldrbeq	r0, [r0], #2852
    2070:	44030000 	strmi	r0, [r3]
    2074:	001fc502 	andseq	ip, pc, r2, lsl #10
    2078:	28230200 	stmdacs	r3!, {r9}
    207c:	0013a60b 	andseq	sl, r3, fp, lsl #12
    2080:	02450300 	subeq	r0, r5, #0	; 0x0
    2084:	00001fb1 	strheq	r1, [r0], -r1
    2088:	0b2c2302 	bleq	b0ac98 <__standby_start+0xb0ac98>
    208c:	0000117b 	andeq	r1, r0, fp, ror r1
    2090:	ca024603 	bgt	938a4 <__standby_start+0x938a4>
    2094:	0200001f 	andeq	r0, r0, #31	; 0x1f
    2098:	db0b3023 	blle	2ce12c <__standby_start+0x2ce12c>
    209c:	03000003 	movweq	r0, #3	; 0x3
    20a0:	1fb10247 	svcne	0x00b10247
    20a4:	23020000 	movwcs	r0, #8192	; 0x2000
    20a8:	0e6c0b34 	vmoveq.8	d12[5], r0
    20ac:	48030000 	stmdami	r3, {}
    20b0:	001fcf02 	andseq	ip, pc, r2, lsl #30
    20b4:	38230200 	stmdacc	r3!, {r9}
    20b8:	0003b10b 	andeq	fp, r3, fp, lsl #2
    20bc:	02490300 	subeq	r0, r9, #0	; 0x0
    20c0:	00001fd4 	ldrdeq	r1, [r0], -r4
    20c4:	0b3c2302 	bleq	f0acd4 <__standby_start+0xf0acd4>
    20c8:	00000330 	andeq	r0, r0, r0, lsr r3
    20cc:	ec024a03 	stc	10, cr4, [r2], {3}
    20d0:	0200001f 	andeq	r0, r0, #31	; 0x1f
    20d4:	670b4023 	strvs	r4, [fp, -r3, lsr #32]
    20d8:	03000006 	movweq	r0, #6	; 0x6
    20dc:	1ff1024b 	svcne	0x00f1024b
    20e0:	23020000 	movwcs	r0, #8192	; 0x2000
    20e4:	0c470b50 	mcrreq	11, 5, r0, r7, cr0
    20e8:	4c030000 	stcmi	0, cr0, [r3], {0}
    20ec:	001ff602 	andseq	pc, pc, r2, lsl #12
    20f0:	54230200 	strtpl	r0, [r3], #-512
    20f4:	000a810b 	andeq	r8, sl, fp, lsl #2
    20f8:	024d0300 	subeq	r0, sp, #0	; 0x0
    20fc:	00001ffb 	strdeq	r1, [r0], -fp
    2100:	0b582302 	bleq	160ad10 <__standby_start+0x160ad10>
    2104:	00001244 	andeq	r1, r0, r4, asr #4
    2108:	00024e03 	andeq	r4, r2, r3, lsl #28
    210c:	02000020 	andeq	r0, r0, #32	; 0x20
    2110:	c40b5c23 	strgt	r5, [fp], #-3107
    2114:	03000009 	movweq	r0, #9	; 0x9
    2118:	2005024f 	andcs	r0, r5, pc, asr #4
    211c:	23020000 	movwcs	r0, #8192	; 0x2000
    2120:	09cd0b60 	stmibeq	sp, {r5, r6, r8, r9, fp}^
    2124:	50030000 	andpl	r0, r3, r0
    2128:	00200a02 	eoreq	r0, r0, r2, lsl #20
    212c:	64230200 	strtvs	r0, [r3], #-512
    2130:	0006300b 	andeq	r3, r6, fp
    2134:	02510300 	subseq	r0, r1, #0	; 0x0
    2138:	0000200f 	andeq	r2, r0, pc
    213c:	0b682302 	bleq	1a0ad4c <__standby_start+0x1a0ad4c>
    2140:	0000072c 	andeq	r0, r0, ip, lsr #14
    2144:	14025203 	strne	r5, [r2], #-515
    2148:	02000020 	andeq	r0, r0, #32	; 0x20
    214c:	cd0b6c23 	stcgt	12, cr6, [fp, #-140]
    2150:	0300000f 	movweq	r0, #15	; 0xf
    2154:	20190253 	andscs	r0, r9, r3, asr r2
    2158:	23020000 	movwcs	r0, #8192	; 0x2000
    215c:	11950b70 	orrsne	r0, r5, r0, ror fp
    2160:	54030000 	strpl	r0, [r3]
    2164:	00201e02 	eoreq	r1, r0, r2, lsl #28
    2168:	80230300 	eorhi	r0, r3, r0, lsl #6
    216c:	07810b01 	streq	r0, [r1, r1, lsl #22]
    2170:	55030000 	strpl	r0, [r3]
    2174:	00201e02 	eoreq	r1, r0, r2, lsl #28
    2178:	84230300 	strthi	r0, [r3], #-768
    217c:	04e10b01 	strbteq	r0, [r1], #2817
    2180:	56030000 	strpl	r0, [r3], -r0
    2184:	00201e02 	eoreq	r1, r0, r2, lsl #28
    2188:	88230300 	stmdahi	r3!, {r8, r9}
    218c:	0f7d0b01 	svceq	0x007d0b01
    2190:	57030000 	strpl	r0, [r3, -r0]
    2194:	00201e02 	eoreq	r1, r0, r2, lsl #28
    2198:	8c230300 	stchi	3, cr0, [r3]
    219c:	07c60b01 	strbeq	r0, [r6, r1, lsl #22]
    21a0:	58030000 	stmdapl	r3, {}
    21a4:	00201e02 	eoreq	r1, r0, r2, lsl #28
    21a8:	90230300 	eorls	r0, r3, r0, lsl #6
    21ac:	10f70b01 	rscsne	r0, r7, r1, lsl #22
    21b0:	59030000 	stmdbpl	r3, {}
    21b4:	00201e02 	eoreq	r1, r0, r2, lsl #28
    21b8:	94230300 	strtls	r0, [r3], #-768
    21bc:	109d0b01 	addsne	r0, sp, r1, lsl #22
    21c0:	5a030000 	bpl	c21c8 <__standby_start+0xc21c8>
    21c4:	00201e02 	eoreq	r1, r0, r2, lsl #28
    21c8:	98230300 	stmdals	r3!, {r8, r9}
    21cc:	05b50b01 	ldreq	r0, [r5, #2817]!
    21d0:	5b030000 	blpl	c21d8 <__standby_start+0xc21d8>
    21d4:	00201e02 	eoreq	r1, r0, r2, lsl #28
    21d8:	9c230300 	stcls	3, cr0, [r3]
    21dc:	0b3b0b01 	bleq	ec4de8 <__standby_start+0xec4de8>
    21e0:	5c030000 	stcpl	0, cr0, [r3], {0}
    21e4:	00201e02 	eoreq	r1, r0, r2, lsl #28
    21e8:	a0230300 	eorge	r0, r3, r0, lsl #6
    21ec:	04180b01 	ldreq	r0, [r8], #-2817
    21f0:	5d030000 	stcpl	0, cr0, [r3]
    21f4:	00201e02 	eoreq	r1, r0, r2, lsl #28
    21f8:	a4230300 	strtge	r0, [r3], #-768
    21fc:	0d4d0b01 	vstreq	d16, [sp, #-4]
    2200:	5e030000 	cdppl	0, 0, cr0, cr3, cr0, {0}
    2204:	00201e02 	eoreq	r1, r0, r2, lsl #28
    2208:	a8230300 	stmdage	r3!, {r8, r9}
    220c:	05e10b01 	strbeq	r0, [r1, #2817]!
    2210:	5f030000 	svcpl	0x00030000
    2214:	00201e02 	eoreq	r1, r0, r2, lsl #28
    2218:	ac230300 	stcge	3, cr0, [r3]
    221c:	0a7a0b01 	beq	1e84e28 <__standby_start+0x1e84e28>
    2220:	60030000 	andvs	r0, r3, r0
    2224:	00201e02 	eoreq	r1, r0, r2, lsl #28
    2228:	b0230300 	eorlt	r0, r3, r0, lsl #6
    222c:	098f0b01 	stmibeq	pc, {r0, r8, r9, fp}
    2230:	61030000 	tstvs	r3, r0
    2234:	00201e02 	eoreq	r1, r0, r2, lsl #28
    2238:	b4230300 	strtlt	r0, [r3], #-768
    223c:	09d60b01 	ldmibeq	r6, {r0, r8, r9, fp}^
    2240:	62030000 	andvs	r0, r3, #0	; 0x0
    2244:	00202302 	eoreq	r2, r0, r2, lsl #6
    2248:	b8230300 	stmdalt	r3!, {r8, r9}
    224c:	088b0b01 	stmeq	fp, {r0, r8, r9, fp}
    2250:	63030000 	movwvs	r0, #12288	; 0x3000
    2254:	00202302 	eoreq	r2, r0, r2, lsl #6
    2258:	bc230300 	stclt	3, cr0, [r3]
    225c:	0cf70b01 	fldmiaxeq	r7!, {d16-d15}	;@ Deprecated
    2260:	64030000 	strvs	r0, [r3]
    2264:	00202302 	eoreq	r2, r0, r2, lsl #6
    2268:	c0230300 	eorgt	r0, r3, r0, lsl #6
    226c:	10b60b01 	adcsne	r0, r6, r1, lsl #22
    2270:	65030000 	strvs	r0, [r3]
    2274:	00202802 	eoreq	r2, r0, r2, lsl #16
    2278:	c4230300 	strtgt	r0, [r3], #-768
    227c:	0fbb0b01 	svceq	0x00bb0b01
    2280:	66030000 	strvs	r0, [r3], -r0
    2284:	00202d02 	eoreq	r2, r0, r2, lsl #26
    2288:	c8230300 	stmdagt	r3!, {r8, r9}
    228c:	05bb0b01 	ldreq	r0, [fp, #2817]!
    2290:	67030000 	strvs	r0, [r3, -r0]
    2294:	00203202 	eoreq	r3, r0, r2, lsl #4
    2298:	cc230300 	stcgt	3, cr0, [r3]
    229c:	0cd80b01 	fldmiaxeq	r8, {d16-d15}	;@ Deprecated
    22a0:	68030000 	stmdavs	r3, {}
    22a4:	00203702 	eoreq	r3, r0, r2, lsl #14
    22a8:	d0230300 	eorle	r0, r3, r0, lsl #6
    22ac:	06b40b01 	ldrteq	r0, [r4], r1, lsl #22
    22b0:	69030000 	stmdbvs	r3, {}
    22b4:	00201e02 	eoreq	r1, r0, r2, lsl #28
    22b8:	d4230300 	strtle	r0, [r3], #-768
    22bc:	0fd70b01 	svceq	0x00d70b01
    22c0:	6a030000 	bvs	c22c8 <__standby_start+0xc22c8>
    22c4:	00204c02 	eoreq	r4, r0, r2, lsl #24
    22c8:	d8230300 	stmdale	r3!, {r8, r9}
    22cc:	0d670b01 	fstmdbxeq	r7!, {d16-d15}	;@ Deprecated
    22d0:	6b030000 	blvs	c22d8 <__standby_start+0xc22d8>
    22d4:	00205102 	eoreq	r5, r0, r2, lsl #2
    22d8:	80230300 	eorhi	r0, r3, r0, lsl #6
    22dc:	0da10b02 	stceq	11, cr0, [r1, #8]!
    22e0:	6c030000 	stcvs	0, cr0, [r3], {0}
    22e4:	00205602 	eoreq	r5, r0, r2, lsl #12
    22e8:	84230300 	strthi	r0, [r3], #-768
    22ec:	07a50b02 	streq	r0, [r5, r2, lsl #22]!
    22f0:	6d030000 	stcvs	0, cr0, [r3]
    22f4:	00205602 	eoreq	r5, r0, r2, lsl #12
    22f8:	88230300 	stmdahi	r3!, {r8, r9}
    22fc:	0a2f0b02 	beq	bc4f0c <__standby_start+0xbc4f0c>
    2300:	6e030000 	cdpvs	0, 0, cr0, cr3, cr0, {0}
    2304:	00205602 	eoreq	r5, r0, r2, lsl #12
    2308:	8c230300 	stchi	3, cr0, [r3]
    230c:	0b7b0b02 	bleq	1ec4f1c <__standby_start+0x1ec4f1c>
    2310:	6f030000 	svcvs	0x00030000
    2314:	00205602 	eoreq	r5, r0, r2, lsl #12
    2318:	90230300 	eorls	r0, r3, r0, lsl #6
    231c:	04c80b02 	strbeq	r0, [r8], #2818
    2320:	70030000 	andvc	r0, r3, r0
    2324:	00205602 	eoreq	r5, r0, r2, lsl #12
    2328:	94230300 	strtls	r0, [r3], #-768
    232c:	0bbe0b02 	bleq	fef84f3c <__bss_end+0xef82eb4>
    2330:	71030000 	tstvc	r3, r0
    2334:	00205b02 	eoreq	r5, r0, r2, lsl #22
    2338:	98230300 	stmdals	r3!, {r8, r9}
    233c:	10c80b02 	sbcne	r0, r8, r2, lsl #22
    2340:	72030000 	andvc	r0, r3, #0	; 0x0
    2344:	00205b02 	eoreq	r5, r0, r2, lsl #22
    2348:	9c230300 	stcls	3, cr0, [r3]
    234c:	07fc0b02 	ldrbeq	r0, [ip, r2, lsl #22]!
    2350:	73030000 	movwvc	r0, #12288	; 0x3000
    2354:	00206002 	eoreq	r6, r0, r2
    2358:	a0230300 	eorge	r0, r3, r0, lsl #6
    235c:	0fe10b02 	svceq	0x00e10b02
    2360:	74030000 	strvc	r0, [r3]
    2364:	001fb102 	andseq	fp, pc, r2, lsl #2
    2368:	a4230300 	strtge	r0, [r3], #-768
    236c:	0f6c0b02 	svceq	0x006c0b02
    2370:	75030000 	strvc	r0, [r3]
    2374:	00206502 	eoreq	r6, r0, r2, lsl #10
    2378:	a8230300 	stmdage	r3!, {r8, r9}
    237c:	05d60b02 	ldrbeq	r0, [r6, #2818]
    2380:	76030000 	strvc	r0, [r3], -r0
    2384:	00206a02 	eoreq	r6, r0, r2, lsl #20
    2388:	ac230300 	stcge	3, cr0, [r3]
    238c:	0dbc0b02 	ldceq	11, cr0, [ip, #8]!
    2390:	77030000 	strvc	r0, [r3, -r0]
    2394:	00206a02 	eoreq	r6, r0, r2, lsl #20
    2398:	b0230300 	eorlt	r0, r3, r0, lsl #6
    239c:	09870b02 	stmibeq	r7, {r1, r8, r9, fp}
    23a0:	78030000 	stmdavc	r3, {}
    23a4:	00206f02 	eoreq	r6, r0, r2, lsl #30
    23a8:	b4230300 	strtlt	r0, [r3], #-768
    23ac:	12be0b02 	adcsne	r0, lr, #2048	; 0x800
    23b0:	79030000 	stmdbvc	r3, {}
    23b4:	00206f02 	eoreq	r6, r0, r2, lsl #30
    23b8:	b8230300 	stmdalt	r3!, {r8, r9}
    23bc:	03bb0b02 	undefined instruction 0x03bb0b02
    23c0:	7a030000 	bvc	c23c8 <__standby_start+0xc23c8>
    23c4:	00207402 	eoreq	r7, r0, r2, lsl #8
    23c8:	bc230300 	stclt	3, cr0, [r3]
    23cc:	10950b02 	addsne	r0, r5, r2, lsl #22
    23d0:	7b030000 	blvc	c23d8 <__standby_start+0xc23d8>
    23d4:	00207902 	eoreq	r7, r0, r2, lsl #18
    23d8:	c0230300 	eorgt	r0, r3, r0, lsl #6
    23dc:	11f60b02 	mvnsne	r0, r2, lsl #22
    23e0:	7c030000 	stcvc	0, cr0, [r3], {0}
    23e4:	00207e02 	eoreq	r7, r0, r2, lsl #28
    23e8:	c4230300 	strtgt	r0, [r3], #-768
    23ec:	0aa20b02 	beq	fe884ffc <__bss_end+0xe882f74>
    23f0:	7d030000 	stcvc	0, cr0, [r3]
    23f4:	00208302 	eoreq	r8, r0, r2, lsl #6
    23f8:	c8230300 	stmdagt	r3!, {r8, r9}
    23fc:	0c110b02 	ldceq	11, cr0, [r1], {2}
    2400:	7e030000 	cdpvc	0, 0, cr0, cr3, cr0, {0}
    2404:	00208802 	eoreq	r8, r0, r2, lsl #16
    2408:	cc230300 	stcgt	3, cr0, [r3]
    240c:	0bac0b02 	bleq	feb0501c <__bss_end+0xeb02f94>
    2410:	7f030000 	svcvc	0x00030000
    2414:	00208d02 	eoreq	r8, r0, r2, lsl #26
    2418:	d0230300 	eorle	r0, r3, r0, lsl #6
    241c:	04070b02 	streq	r0, [r7], #-2818
    2420:	80030000 	andhi	r0, r3, r0
    2424:	00209202 	eoreq	r9, r0, r2, lsl #4
    2428:	d4230300 	strtle	r0, [r3], #-768
    242c:	6e0c0002 	cdpvs	0, 0, cr0, cr12, cr2, {0}
    2430:	0c000001 	stceq	0, cr0, [r0], {1}
    2434:	000001db 	ldrdeq	r0, [r0], -fp
    2438:	00028c0c 	andeq	r8, r2, ip, lsl #24
    243c:	030a0c00 	movweq	r0, #44032	; 0xac00
    2440:	dd0c0000 	stcle	0, cr0, [ip]
    2444:	0c000003 	stceq	0, cr0, [r0], {3}
    2448:	0000005a 	andeq	r0, r0, sl, asr r0
    244c:	0004d20c 	andeq	sp, r4, ip, lsl #4
    2450:	05e90c00 	strbeq	r0, [r9, #3072]!
    2454:	780c0000 	stmdavc	ip, {}
    2458:	0c000006 	stceq	0, cr0, [r0], {6}
    245c:	0000076d 	andeq	r0, r0, sp, ror #14
    2460:	0008400c 	andeq	r4, r8, ip
    2464:	08be0c00 	ldmeq	lr!, {sl, fp}
    2468:	3c0c0000 	stccc	0, cr0, [ip], {0}
    246c:	0d000009 	stceq	0, cr0, [r0, #-36]
    2470:	0000005a 	andeq	r0, r0, sl, asr r0
    2474:	00001fe9 	andeq	r1, r0, r9, ror #31
    2478:	001fe90e 	andseq	lr, pc, lr, lsl #18
    247c:	0f000300 	svceq	0x00000300
    2480:	d90c0704 	stmdble	ip, {r2, r8, r9, sl}
    2484:	0c00001f 	stceq	0, cr0, [r0], {31}
    2488:	000009dc 	ldrdeq	r0, [r0], -ip
    248c:	000a7c0c 	andeq	r7, sl, ip, lsl #24
    2490:	0afa0c00 	beq	ffe85498 <__bss_end+0xfe83410>
    2494:	340c0000 	strcc	r0, [ip]
    2498:	0c00000b 	stceq	0, cr0, [r0], {11}
    249c:	00000d37 	andeq	r0, r0, r7, lsr sp
    24a0:	000eb90c 	andeq	fp, lr, ip, lsl #18
    24a4:	0f990c00 	svceq	0x00990c00
    24a8:	f70c0000 	undefined instruction 0xf70c0000
    24ac:	0c000010 	stceq	0, cr0, [r0], {16}
    24b0:	00001fd9 	ldrdeq	r1, [r0], -r9
    24b4:	00118f0c 	andseq	r8, r1, ip, lsl #30
    24b8:	11f10c00 	mvnsne	r0, r0, lsl #24
    24bc:	890c0000 	stmdbhi	ip, {}
    24c0:	0c000012 	stceq	0, cr0, [r0], {18}
    24c4:	000012eb 	andeq	r1, r0, fp, ror #5
    24c8:	0013b90c 	andseq	fp, r3, ip, lsl #18
    24cc:	14090c00 	strne	r0, [r9], #-3072
    24d0:	5a0d0000 	bpl	3424d8 <__standby_start+0x3424d8>
    24d4:	4c000000 	stcmi	0, cr0, [r0], {0}
    24d8:	0e000020 	cdpeq	0, 0, cr0, cr0, cr0, {1}
    24dc:	00001fe9 	andeq	r1, r0, r9, ror #31
    24e0:	3c0c0009 	stccc	0, cr0, [ip], {9}
    24e4:	0c000020 	stceq	0, cr0, [r0], {32}
    24e8:	00001555 	andeq	r1, r0, r5, asr r5
    24ec:	0015db0c 	andseq	sp, r5, ip, lsl #22
    24f0:	164f0c00 	strbne	r0, [pc], -r0, lsl #24
    24f4:	c30c0000 	movwgt	r0, #49152	; 0xc000
    24f8:	0c000016 	stceq	0, cr0, [r0], {22}
    24fc:	00001725 	andeq	r1, r0, r5, lsr #14
    2500:	0017e10c 	andseq	lr, r7, ip, lsl #2
    2504:	18670c00 	stmdane	r7!, {sl, fp}^
    2508:	db0c0000 	blle	302510 <__standby_start+0x302510>
    250c:	0c000018 	stceq	0, cr0, [r0], {24}
    2510:	00001919 	andeq	r1, r0, r9, lsl r9
    2514:	0019570c 	andseq	r5, r9, ip, lsl #14
    2518:	19ef0c00 	stmibne	pc!, {sl, fp}^
    251c:	2d0c0000 	stccs	0, cr0, [ip]
    2520:	0c00001a 	stceq	0, cr0, [r0], {26}
    2524:	00001aa1 	andeq	r1, r0, r1, lsr #21
    2528:	001b270c 	andseq	r2, fp, ip, lsl #14
    252c:	11830800 	orrne	r0, r3, r0, lsl #16
    2530:	82030000 	andhi	r0, r3, #0	; 0x0
    2534:	001b3302 	andseq	r3, fp, r2, lsl #6
    2538:	029f0500 	addseq	r0, pc, #0	; 0x0
    253c:	04040000 	streq	r0, [r4]
    2540:	00210519 	eoreq	r0, r1, r9, lsl r5
    2544:	00000600 	andeq	r0, r0, r0, lsl #12
    2548:	1a040000 	bne	102550 <__standby_start+0x102550>
    254c:	0000005a 	andeq	r0, r0, sl, asr r0
    2550:	021c0404 	andseq	r0, ip, #67108864	; 0x4000000
    2554:	f1060023 	undefined instruction 0xf1060023
    2558:	04000000 	streq	r0, [r0]
    255c:	00005a1b 	andeq	r5, r0, fp, lsl sl
    2560:	18040400 	stmdane	r4, {sl}
    2564:	06002302 	streq	r2, [r0], -r2, lsl #6
    2568:	00000175 	andeq	r0, r0, r5, ror r1
    256c:	005a1c04 	subseq	r1, sl, r4, lsl #24
    2570:	04040000 	streq	r0, [r4]
    2574:	00230214 	eoreq	r0, r3, r4, lsl r2
    2578:	00015f06 	andeq	r5, r1, r6, lsl #30
    257c:	5a1d0400 	bpl	743584 <__standby_start+0x743584>
    2580:	04000000 	streq	r0, [r0]
    2584:	23021004 	movwcs	r1, #8196	; 0x2004
    2588:	03300600 	teqeq	r0, #0	; 0x0
    258c:	1e040000 	cdpne	0, 0, cr0, cr4, cr0, {0}
    2590:	0000005a 	andeq	r0, r0, sl, asr r0
    2594:	02001004 	andeq	r1, r0, #4	; 0x4
    2598:	10000023 	andne	r0, r0, r3, lsr #32
    259c:	000a4101 	andeq	r4, sl, r1, lsl #2
    25a0:	01300100 	teqeq	r0, r0, lsl #2
    25a4:	0000004f 	andeq	r0, r0, pc, asr #32
    25a8:	f00004d0 	undefined instruction 0xf00004d0
    25ac:	f0000554 	undefined instruction 0xf0000554
    25b0:	00000063 	andeq	r0, r0, r3, rrx
    25b4:	044f0111 	strbeq	r0, [pc], #273	; 25bc <__standby_start+0x25bc>
    25b8:	52010000 	andpl	r0, r1, #0	; 0x0
    25bc:	00004f01 	andeq	r4, r0, r1, lsl #30
    25c0:	00055400 	andeq	r5, r5, r0, lsl #8
    25c4:	00059cf0 	strdeq	r9, [r5], -r0
    25c8:	115d01f0 	ldrshne	r0, [sp, #-16]
    25cc:	000ac401 	andeq	ip, sl, r1, lsl #8
    25d0:	016c0100 	cmneq	ip, r0, lsl #2
    25d4:	0000004f 	andeq	r0, r0, pc, asr #32
    25d8:	f000059c 	undefined instruction 0xf000059c
    25dc:	f00005cc 	undefined instruction 0xf00005cc
    25e0:	01115d01 	tsteq	r1, r1, lsl #26
    25e4:	0000053b 	andeq	r0, r0, fp, lsr r5
    25e8:	4f018101 	svcmi	0x00018101
    25ec:	cc000000 	stcgt	0, cr0, [r0], {0}
    25f0:	00f00005 	rscseq	r0, r0, r5
    25f4:	01f00006 	mvnseq	r0, r6
    25f8:	9601115d 	undefined
    25fc:	01000009 	tsteq	r0, r9
    2600:	004f0196 	umaaleq	r0, pc, r6, r1
    2604:	06000000 	streq	r0, [r0], -r0
    2608:	0634f000 	ldrteq	pc, [r4], -r0
    260c:	5d01f000 	stcpl	0, cr15, [r1]
    2610:	13860111 	orrne	r0, r6, #1073741828	; 0x40000004
    2614:	ab010000 	blge	4261c <__standby_start+0x4261c>
    2618:	00004f01 	andeq	r4, r0, r1, lsl #30
    261c:	00063400 	andeq	r3, r6, r0, lsl #8
    2620:	00069cf0 	strdeq	r9, [r6], -r0
    2624:	115d01f0 	ldrshne	r0, [sp, #-16]
    2628:	00102a01 	andseq	r2, r0, r1, lsl #20
    262c:	01c40100 	biceq	r0, r4, r0, lsl #2
    2630:	0000004f 	andeq	r0, r0, pc, asr #32
    2634:	f000069c 	undefined instruction 0xf000069c
    2638:	f0000704 	undefined instruction 0xf0000704
    263c:	01115d01 	tsteq	r1, r1, lsl #26
    2640:	000006db 	ldrdeq	r0, [r0], -fp
    2644:	4f01dd01 	svcmi	0x0001dd01
    2648:	04000000 	streq	r0, [r0]
    264c:	24f00007 	ldrbtcs	r0, [r0], #7
    2650:	01f00007 	mvnseq	r0, r7
    2654:	8701115d 	smlsdhi	r1, sp, r1, r1
    2658:	0100000f 	tsteq	r0, pc
    265c:	004f01ef 	subeq	r0, pc, pc, ror #3
    2660:	07240000 	streq	r0, [r4, -r0]!
    2664:	0744f000 	strbeq	pc, [r4, -r0]
    2668:	5d01f000 	stcpl	0, cr15, [r1]
    266c:	0b8e0112 	bleq	fe382abc <__bss_end+0xe380a34>
    2670:	01010000 	tsteq	r1, r0
    2674:	004f0101 	subeq	r0, pc, r1, lsl #2
    2678:	07440000 	strbeq	r0, [r4, -r0]
    267c:	078cf000 	streq	pc, [ip, r0]
    2680:	5d01f000 	stcpl	0, cr15, [r1]
    2684:	0a8c0112 	beq	fe302ad4 <__bss_end+0xe300a4c>
    2688:	16010000 	strne	r0, [r1], -r0
    268c:	004f0101 	subeq	r0, pc, r1, lsl #2
    2690:	078c0000 	streq	r0, [ip, r0]
    2694:	07d4f000 	ldrbeq	pc, [r4, r0]
    2698:	5d01f000 	stcpl	0, cr15, [r1]
    269c:	130f0113 	movwne	r0, #61715	; 0xf113
    26a0:	2b010000 	blcs	426a8 <__standby_start+0x426a8>
    26a4:	004f0101 	subeq	r0, pc, r1, lsl #2
    26a8:	07d40000 	ldrbeq	r0, [r4, r0]
    26ac:	0834f000 	ldmdaeq	r4!, {ip, sp, lr, pc}
    26b0:	5d01f000 	stcpl	0, cr15, [r1]
    26b4:	00002233 	andeq	r2, r0, r3, lsr r2
    26b8:	00019314 	andeq	r9, r1, r4, lsl r3
    26bc:	012a0100 	teqeq	sl, r0, lsl #2
    26c0:	00002233 	andeq	r2, r0, r3, lsr r2
    26c4:	00000082 	andeq	r0, r0, r2, lsl #1
    26c8:	a3041500 	movwge	r1, #17664	; 0x4500
    26cc:	13000020 	movwne	r0, #32	; 0x20
    26d0:	000efe01 	andeq	pc, lr, r1, lsl #28
    26d4:	01450100 	cmpeq	r5, r0, lsl #2
    26d8:	00004f01 	andeq	r4, r0, r1, lsl #30
    26dc:	00083400 	andeq	r3, r8, r0, lsl #8
    26e0:	00088cf0 	strdeq	r8, [r8], -r0
    26e4:	665d01f0 	undefined
    26e8:	14000022 	strne	r0, [r0], #-34
    26ec:	00000193 	muleq	r0, r3, r1
    26f0:	33014401 	movwcc	r4, #5121	; 0x1401
    26f4:	95000022 	strls	r0, [r0, #-34]
    26f8:	00000000 	andeq	r0, r0, r0
    26fc:	0bfa0116 	bleq	ffe82b5c <__bss_end+0xfe80ad4>
    2700:	5f010000 	svcpl	0x00010000
    2704:	088c0101 	stmeq	ip, {r0, r8}
    2708:	08b8f000 	ldmeq	r8!, {ip, sp, lr, pc}
    270c:	5d01f000 	stcpl	0, cr15, [r1]
    2710:	0000228d 	andeq	r2, r0, sp, lsl #5
    2714:	000c5b17 	andeq	r5, ip, r7, lsl fp
    2718:	015e0100 	cmpeq	lr, r0, lsl #2
    271c:	00000033 	andeq	r0, r0, r3, lsr r0
    2720:	12005001 	andne	r5, r0, #1	; 0x1
    2724:	00060301 	andeq	r0, r6, r1, lsl #6
    2728:	01750100 	cmneq	r5, r0, lsl #2
    272c:	00004f01 	andeq	r4, r0, r1, lsl #30
    2730:	0008b800 	andeq	fp, r8, r0, lsl #16
    2734:	0008dcf0 	strdeq	sp, [r8], -r0
    2738:	125d01f0 	subsne	r0, sp, #60	; 0x3c
    273c:	000b5601 	andeq	r5, fp, r1, lsl #12
    2740:	01870100 	orreq	r0, r7, r0, lsl #2
    2744:	00004f01 	andeq	r4, r0, r1, lsl #30
    2748:	0008dc00 	andeq	sp, r8, r0, lsl #24
    274c:	0008fcf0 	strdeq	pc, [r8], -r0
    2750:	185d01f0 	ldmdane	sp, {r4, r5, r6, r7, r8}^
    2754:	00001101 	andeq	r1, r0, r1, lsl #2
    2758:	22ce1601 	sbccs	r1, lr, #1048576	; 0x100000
    275c:	03050000 	movweq	r0, #20480	; 0x5000
    2760:	f0001ff4 	undefined instruction 0xf0001ff4
    2764:	20970415 	addscs	r0, r7, r5, lsl r4
    2768:	5a0d0000 	bpl	342770 <__standby_start+0x342770>
    276c:	e4000000 	str	r0, [r0]
    2770:	0e000022 	cdpeq	0, 0, cr0, cr0, cr2, {1}
    2774:	00001fe9 	andeq	r1, r0, r9, ror #31
    2778:	78180006 	ldmdavc	r8, {r1, r2}
    277c:	01000012 	tsteq	r0, r2, lsl r0
    2780:	0022d417 	eoreq	sp, r2, r7, lsl r4
    2784:	f8030500 	undefined instruction 0xf8030500
    2788:	19f0001f 	ldmibne	r0!, {r0, r1, r2, r3, r4}^
    278c:	00000355 	andeq	r0, r0, r5, asr r3
    2790:	005a1801 	subseq	r1, sl, r1, lsl #16
    2794:	05010000 	streq	r0, [r1]
    2798:	00208403 	eoreq	r8, r0, r3, lsl #8
    279c:	04f500f0 	ldrbteq	r0, [r5], #240
    27a0:	00020000 	andeq	r0, r2, r0
    27a4:	0000037a 	andeq	r0, r0, sl, ror r3
    27a8:	00e50104 	rsceq	r0, r5, r4, lsl #2
    27ac:	77010000 	strvc	r0, [r1, -r0]
    27b0:	82000015 	andhi	r0, r0, #21	; 0x15
    27b4:	fc000000 	stc2	0, cr0, [r0], {0}
    27b8:	ccf00008 	ldclgt	0, cr0, [r0], #32
    27bc:	aef0000c 	cdpge	0, 15, cr0, cr0, cr12, {0}
    27c0:	02000003 	andeq	r0, r0, #3	; 0x3
    27c4:	016c0504 	cmneq	ip, r4, lsl #10
    27c8:	04030000 	streq	r0, [r3]
    27cc:	07040207 	streq	r0, [r4, -r7, lsl #4]
    27d0:	00000210 	andeq	r0, r0, r0, lsl r2
    27d4:	6d070202 	sfmvs	f0, 4, [r7, #-8]
    27d8:	02000002 	andeq	r0, r0, #2	; 0x2
    27dc:	02150704 	andseq	r0, r5, #1048576	; 0x100000
    27e0:	01020000 	tsteq	r2, r0
    27e4:	0001c008 	andeq	ip, r1, r8
    27e8:	08010200 	stmdaeq	r1, {r9}
    27ec:	000001b7 	strheq	r0, [r0], -r7
    27f0:	69050404 	stmdbvs	r5, {r2, sl}
    27f4:	0200746e 	andeq	r7, r0, #1845493760	; 0x6e000000
    27f8:	01b90601 	undefined instruction 0x01b90601
    27fc:	02020000 	andeq	r0, r2, #0	; 0x0
    2800:	0001c505 	andeq	ip, r1, r5, lsl #10
    2804:	0df90500 	cfldr64eq	mvdx0, [r9]
    2808:	19020000 	stmdbne	r2, {}
    280c:	00000052 	andeq	r0, r0, r2, asr r0
    2810:	00015005 	andeq	r5, r1, r5
    2814:	3d1a0200 	lfmcc	f0, 4, [sl]
    2818:	02000000 	andeq	r0, r0, #0	; 0x0
    281c:	01670508 	cmneq	r7, r8, lsl #10
    2820:	08020000 	stmdaeq	r2, {}
    2824:	00020b07 	andeq	r0, r2, r7, lsl #22
    2828:	f5010600 	undefined instruction 0xf5010600
    282c:	01000013 	tsteq	r0, r3, lsl r0
    2830:	08fc01a3 	ldmeq	ip!, {r0, r1, r5, r7, r8}^
    2834:	092cf000 	stmdbeq	ip!, {ip, sp, lr, pc}
    2838:	5d01f000 	stcpl	0, cr15, [r1]
    283c:	000000c9 	andeq	r0, r0, r9, asr #1
    2840:	0015b807 	andseq	fp, r5, r7, lsl #16
    2844:	72a20100 	adcvc	r0, r2, #0	; 0x0
    2848:	01000000 	tsteq	r0, r0
    284c:	6e6f0850 	mcrvs	8, 3, r0, cr15, cr0, {2}
    2850:	72a20100 	adcvc	r0, r2, #0	; 0x0
    2854:	01000000 	tsteq	r0, r0
    2858:	147e0951 	ldrbtne	r0, [lr], #-2385
    285c:	a4010000 	strge	r0, [r1]
    2860:	00000072 	andeq	r0, r0, r2, ror r0
    2864:	0a005301 	beq	17470 <__standby_start+0x17470>
    2868:	0015e001 	andseq	lr, r5, r1
    286c:	01bf0100 	undefined instruction 0x01bf0100
    2870:	00000072 	andeq	r0, r0, r2, ror r0
    2874:	f000092c 	undefined instruction 0xf000092c
    2878:	f000094c 	undefined instruction 0xf000094c
    287c:	01035d01 	tsteq	r3, r1, lsl #26
    2880:	b80b0000 	stmdalt	fp, {}
    2884:	01000015 	tsteq	r0, r5, lsl r0
    2888:	000072be 	strheq	r7, [r0], -lr
    288c:	0000a800 	andeq	sl, r0, r0, lsl #16
    2890:	147e0c00 	ldrbtne	r0, [lr], #-3072
    2894:	c0010000 	andgt	r0, r1, r0
    2898:	00000072 	andeq	r0, r0, r2, ror r0
    289c:	000000c6 	andeq	r0, r0, r6, asr #1
    28a0:	e9010d00 	stmdb	r1, {r8, sl, fp}
    28a4:	01000014 	tsteq	r0, r4, lsl r0
    28a8:	094c01dc 	stmdbeq	ip, {r2, r3, r4, r6, r7, r8}^
    28ac:	09a4f000 	stmibeq	r4!, {ip, sp, lr, pc}
    28b0:	00d9f000 	sbcseq	pc, r9, r0
    28b4:	01660000 	cmneq	r6, r0
    28b8:	b80b0000 	stmdalt	fp, {}
    28bc:	01000015 	tsteq	r0, r5, lsl r0
    28c0:	000072db 	ldrdeq	r7, [r0], -fp
    28c4:	0000f800 	andeq	pc, r0, r0, lsl #16
    28c8:	16050b00 	strne	r0, [r5], -r0, lsl #22
    28cc:	db010000 	blle	428d4 <__standby_start+0x428d4>
    28d0:	00000072 	andeq	r0, r0, r2, ror r0
    28d4:	0000010b 	andeq	r0, r0, fp, lsl #2
    28d8:	0014440b 	andseq	r4, r4, fp, lsl #8
    28dc:	72db0100 	sbcsvc	r0, fp, #0	; 0x0
    28e0:	29000000 	stmdbcs	r0, {}
    28e4:	0b000001 	bleq	28f0 <__standby_start+0x28f0>
    28e8:	0000159b 	muleq	r0, fp, r5
    28ec:	0072db01 	rsbseq	sp, r2, r1, lsl #22
    28f0:	013c0000 	teqeq	ip, r0
    28f4:	7e090000 	cdpvc	0, 0, cr0, cr9, cr0, {0}
    28f8:	01000014 	tsteq	r0, r4, lsl r0
    28fc:	000072dd 	ldrdeq	r7, [r0], -sp
    2900:	00530100 	subseq	r0, r3, r0, lsl #2
    2904:	1533010e 	ldrne	r0, [r3, #-270]!
    2908:	ae010000 	cdpge	0, 0, cr0, cr1, cr0, {0}
    290c:	09a40101 	stmibeq	r4!, {r0, r8}
    2910:	09a8f000 	stmibeq	r8!, {ip, sp, lr, pc}
    2914:	5d01f000 	stcpl	0, cr15, [r1]
    2918:	0000019e 	muleq	r0, lr, r1
    291c:	0015b80f 	andseq	fp, r5, pc, lsl #16
    2920:	01ad0100 	undefined instruction 0x01ad0100
    2924:	00000072 	andeq	r0, r0, r2, ror r0
    2928:	0000015a 	andeq	r0, r0, sl, asr r1
    292c:	006e6f10 	rsbeq	r6, lr, r0, lsl pc
    2930:	7201ad01 	andvc	sl, r1, #64	; 0x40
    2934:	6d000000 	stcvs	0, cr0, [r0]
    2938:	00000001 	andeq	r0, r0, r1
    293c:	15070111 	strne	r0, [r7, #-273]
    2940:	b4010000 	strlt	r0, [r1]
    2944:	00720101 	rsbseq	r0, r2, r1, lsl #2
    2948:	09a80000 	stmibeq	r8!, {}
    294c:	09acf000 	stmibeq	ip!, {ip, sp, lr, pc}
    2950:	5d01f000 	stcpl	0, cr15, [r1]
    2954:	000001cb 	andeq	r0, r0, fp, asr #3
    2958:	0015b80f 	andseq	fp, r5, pc, lsl #16
    295c:	01b30100 	undefined instruction 0x01b30100
    2960:	00000072 	andeq	r0, r0, r2, ror r0
    2964:	00000180 	andeq	r0, r0, r0, lsl #3
    2968:	86010e00 	strhi	r0, [r1], -r0, lsl #28
    296c:	01000014 	tsteq	r0, r4, lsl r0
    2970:	ac0101ba 	stfges	f0, [r1], {186}
    2974:	b0f00009 	rscslt	r0, r0, r9
    2978:	01f00009 	mvnseq	r0, r9
    297c:	0002245d 	andeq	r2, r2, sp, asr r4
    2980:	015a0f00 	cmpeq	sl, r0, lsl #30
    2984:	b9010000 	stmdblt	r1, {}
    2988:	00007201 	andeq	r7, r0, r1, lsl #4
    298c:	00019300 	andeq	r9, r1, r0, lsl #6
    2990:	13df0f00 	bicsne	r0, pc, #0	; 0x0
    2994:	b9010000 	stmdblt	r1, {}
    2998:	00007201 	andeq	r7, r0, r1, lsl #4
    299c:	0001a600 	andeq	sl, r1, r0, lsl #12
    29a0:	14490f00 	strbne	r0, [r9], #-3840
    29a4:	b9010000 	stmdblt	r1, {}
    29a8:	00007201 	andeq	r7, r0, r1, lsl #4
    29ac:	0001b900 	andeq	fp, r1, r0, lsl #18
    29b0:	159b0f00 	ldrne	r0, [fp, #3840]
    29b4:	b9010000 	stmdblt	r1, {}
    29b8:	00007201 	andeq	r7, r0, r1, lsl #4
    29bc:	0001cc00 	andeq	ip, r1, r0, lsl #24
    29c0:	01120000 	tsteq	r2, r0
    29c4:	000014ac 	andeq	r1, r0, ip, lsr #9
    29c8:	7201fd01 	andvc	pc, r1, #64	; 0x40
    29cc:	b0000000 	andlt	r0, r0, r0
    29d0:	e0f00009 	rscs	r0, r0, r9
    29d4:	dff00009 	svcle	0x00f00009
    29d8:	5a000001 	bpl	29e4 <__standby_start+0x29e4>
    29dc:	13000002 	movwne	r0, #2	; 0x2
    29e0:	fe010069 	cdp2	0, 0, cr0, cr1, cr9, {3}
    29e4:	00000072 	andeq	r0, r0, r2, ror r0
    29e8:	00147e0c 	andseq	r7, r4, ip, lsl #28
    29ec:	72ff0100 	rscsvc	r0, pc, #0	; 0x0
    29f0:	fe000000 	cdp2	0, 0, cr0, cr0, cr0, {0}
    29f4:	00000001 	andeq	r0, r0, r1
    29f8:	15c10106 	strbne	r0, [r1, #262]
    29fc:	80010000 	andhi	r0, r1, r0
    2a00:	0009e001 	andeq	lr, r9, r1
    2a04:	000a10f0 	strdeq	r1, [sl], -r0
    2a08:	8a5d01f0 	bhi	17431d0 <__standby_start+0x17431d0>
    2a0c:	13000002 	movwne	r0, #2	; 0x2
    2a10:	81010069 	tsthi	r1, r9, rrx
    2a14:	00000072 	andeq	r0, r0, r2, ror r0
    2a18:	00147e0c 	andseq	r7, r4, ip, lsl #28
    2a1c:	72820100 	addvc	r0, r2, #0	; 0x0
    2a20:	1c000000 	stcne	0, cr0, [r0], {0}
    2a24:	00000002 	andeq	r0, r0, r2
    2a28:	15610114 	strbne	r0, [r1, #-276]!
    2a2c:	a2010000 	andge	r0, r1, #0	; 0x0
    2a30:	0a100101 	beq	402e3c <__standby_start+0x402e3c>
    2a34:	0a14f000 	beq	53ea3c <__standby_start+0x53ea3c>
    2a38:	5d01f000 	stcpl	0, cr15, [r1]
    2a3c:	162b0106 	strtne	r0, [fp], -r6, lsl #2
    2a40:	48010000 	stmdami	r1, {}
    2a44:	000a1401 	andeq	r1, sl, r1, lsl #8
    2a48:	000a44f0 	strdeq	r4, [sl], -r0
    2a4c:	ce5d01f0 	mrcgt	1, 2, r0, cr13, cr0, {7}
    2a50:	13000002 	movwne	r0, #2	; 0x2
    2a54:	49010069 	stmdbmi	r1, {r0, r3, r5, r6}
    2a58:	00000072 	andeq	r0, r0, r2, ror r0
    2a5c:	00147e0c 	andseq	r7, r4, ip, lsl #28
    2a60:	724a0100 	subvc	r0, sl, #0	; 0x0
    2a64:	2f000000 	svccs	0x00000000
    2a68:	00000002 	andeq	r0, r0, r2
    2a6c:	14bb0115 	ldrtne	r0, [fp], #277
    2a70:	8f010000 	svchi	0x00010000
    2a74:	000a4401 	andeq	r4, sl, r1, lsl #8
    2a78:	000a48f0 	strdeq	r4, [sl], -r0
    2a7c:	145d01f0 	ldrbne	r0, [sp], #-496
    2a80:	0015a301 	andseq	sl, r5, r1, lsl #6
    2a84:	01a80100 	undefined instruction 0x01a80100
    2a88:	000a4801 	andeq	r4, sl, r1, lsl #16
    2a8c:	000a4cf0 	strdeq	r4, [sl], -r0
    2a90:	0d5d01f0 	ldfeqe	f0, [sp, #-960]
    2a94:	00145401 	andseq	r5, r4, r1, lsl #8
    2a98:	01570100 	cmpeq	r7, r0, lsl #2
    2a9c:	f0000a4c 	undefined instruction 0xf0000a4c
    2aa0:	f0000ab0 	undefined instruction 0xf0000ab0
    2aa4:	00000242 	andeq	r0, r0, r2, asr #4
    2aa8:	00000329 	andeq	r0, r0, r9, lsr #6
    2aac:	01006916 	tsteq	r0, r6, lsl r9
    2ab0:	00007258 	andeq	r7, r0, r8, asr r2
    2ab4:	0c540100 	ldfeqe	f0, [r4], {0}
    2ab8:	0000147e 	andeq	r1, r0, lr, ror r4
    2abc:	00725901 	rsbseq	r5, r2, r1, lsl #18
    2ac0:	02610000 	rsbeq	r0, r1, #0	; 0x0
    2ac4:	14000000 	strne	r0, [r0]
    2ac8:	00163a01 	andseq	r3, r6, r1, lsl #20
    2acc:	019c0100 	orrseq	r0, ip, r0, lsl #2
    2ad0:	000ab001 	andeq	fp, sl, r1
    2ad4:	000ab4f0 	strdeq	fp, [sl], -r0
    2ad8:	065d01f0 	undefined
    2adc:	00143101 	andseq	r3, r4, r1, lsl #2
    2ae0:	011e0100 	tsteq	lr, r0, lsl #2
    2ae4:	f0000ab4 	undefined instruction 0xf0000ab4
    2ae8:	f0000ae4 	undefined instruction 0xf0000ae4
    2aec:	036d5d01 	cmneq	sp, #64	; 0x40
    2af0:	69130000 	ldmdbvs	r3, {}
    2af4:	721f0100 	andsvc	r0, pc, #0	; 0x0
    2af8:	0c000000 	stceq	0, cr0, [r0], {0}
    2afc:	0000147e 	andeq	r1, r0, lr, ror r4
    2b00:	00722001 	rsbseq	r2, r2, r1
    2b04:	027f0000 	rsbseq	r0, pc, #0	; 0x0
    2b08:	0d000000 	stceq	0, cr0, [r0]
    2b0c:	00158301 	andseq	r8, r5, r1, lsl #6
    2b10:	012d0100 	teqeq	sp, r0, lsl #2
    2b14:	f0000ae4 	undefined instruction 0xf0000ae4
    2b18:	f0000b48 	undefined instruction 0xf0000b48
    2b1c:	00000292 	muleq	r0, r2, r2
    2b20:	000003a3 	andeq	r0, r0, r3, lsr #7
    2b24:	01006917 	tsteq	r0, r7, lsl r9
    2b28:	0000722e 	andeq	r7, r0, lr, lsr #4
    2b2c:	0002b100 	andeq	fp, r2, r0, lsl #2
    2b30:	147e0c00 	ldrbtne	r0, [lr], #-3072
    2b34:	2f010000 	svccs	0x00010000
    2b38:	00000072 	andeq	r0, r0, r2, ror r0
    2b3c:	000002c4 	andeq	r0, r0, r4, asr #5
    2b40:	14011400 	strne	r1, [r1], #-1024
    2b44:	01000016 	tsteq	r0, r6, lsl r0
    2b48:	48010196 	stmdami	r1, {r1, r2, r4, r7, r8}
    2b4c:	4cf0000b 	ldclmi	0, cr0, [r0], #44
    2b50:	01f0000b 	mvnseq	r0, fp
    2b54:	d101185d 	tstle	r1, sp, asr r8
    2b58:	01000014 	tsteq	r0, r4, lsl r0
    2b5c:	4c010166 	stfmis	f0, [r1], {102}
    2b60:	68f0000b 	ldmvs	r0!, {r0, r1, r3}^
    2b64:	e2f0000b 	rscs	r0, r0, #11	; 0xb
    2b68:	de000002 	cdple	0, 0, cr0, cr0, cr2, {0}
    2b6c:	19000003 	stmdbne	r0, {r0, r1}
    2b70:	0000147e 	andeq	r1, r0, lr, ror r4
    2b74:	72016701 	andvc	r6, r1, #262144	; 0x40000
    2b78:	00000000 	andeq	r0, r0, r0
    2b7c:	13e4011a 	mvnne	r0, #-2147483642	; 0x80000006
    2b80:	0c010000 	stceq	0, cr0, [r1], {0}
    2b84:	00670101 	rsbeq	r0, r7, r1, lsl #2
    2b88:	0b680000 	bleq	1a02b90 <__standby_start+0x1a02b90>
    2b8c:	0c8cf000 	stceq	0, cr15, [ip], {0}
    2b90:	0301f000 	movweq	pc, #4096	; 0x1000
    2b94:	04c50000 	strbeq	r0, [r5]
    2b98:	691b0000 	ldmdbvs	fp, {}
    2b9c:	010d0100 	tsteq	sp, r0, lsl #2
    2ba0:	00000072 	andeq	r0, r0, r2, ror r0
    2ba4:	00147e1c 	andseq	r7, r4, ip, lsl lr
    2ba8:	010e0100 	tsteq	lr, r0, lsl #2
    2bac:	00000072 	andeq	r0, r0, r2, ror r0
    2bb0:	0000032c 	andeq	r0, r0, ip, lsr #6
    2bb4:	00152b19 	andseq	r2, r5, r9, lsl fp
    2bb8:	010f0100 	tsteq	pc, r0, lsl #2
    2bbc:	00000072 	andeq	r0, r0, r2, ror r0
    2bc0:	0014291c 	andseq	r2, r4, ip, lsl r9
    2bc4:	01100100 	tsteq	r0, r0, lsl #2
    2bc8:	00000072 	andeq	r0, r0, r2, ror r0
    2bcc:	0000033f 	andeq	r0, r0, pc, lsr r3
    2bd0:	00140b1c 	andseq	r0, r4, ip, lsl fp
    2bd4:	01100100 	tsteq	r0, r0, lsl #2
    2bd8:	00000072 	andeq	r0, r0, r2, ror r0
    2bdc:	0000035f 	andeq	r0, r0, pc, asr r3
    2be0:	0014751c 	andseq	r7, r4, ip, lsl r5
    2be4:	01100100 	tsteq	r0, r0, lsl #2
    2be8:	00000072 	andeq	r0, r0, r2, ror r0
    2bec:	0000037f 	andeq	r0, r0, pc, ror r3
    2bf0:	0015481c 	andseq	r4, r5, ip, lsl r8
    2bf4:	01100100 	tsteq	r0, r0, lsl #2
    2bf8:	00000072 	andeq	r0, r0, r2, ror r0
    2bfc:	0000039f 	muleq	r0, pc, r3
    2c00:	0015511d 	andseq	r5, r5, sp, lsl r1
    2c04:	01100100 	tsteq	r0, r0, lsl #2
    2c08:	00000072 	andeq	r0, r0, r2, ror r0
    2c0c:	5a1d5b01 	bpl	759818 <__standby_start+0x759818>
    2c10:	01000015 	tsteq	r0, r5, lsl r0
    2c14:	00720110 	rsbseq	r0, r2, r0, lsl r1
    2c18:	59010000 	stmdbpl	r1, {}
    2c1c:	0015d81d 	andseq	sp, r5, sp, lsl r8
    2c20:	01100100 	tsteq	r0, r0, lsl #2
    2c24:	00000072 	andeq	r0, r0, r2, ror r0
    2c28:	9a1d5a01 	bls	759434 <__standby_start+0x759434>
    2c2c:	01000014 	tsteq	r0, r4, lsl r0
    2c30:	00720110 	rsbseq	r0, r2, r0, lsl r1
    2c34:	58010000 	stmdapl	r1, {}
    2c38:	0014a31d 	andseq	sl, r4, sp, lsl r3
    2c3c:	01100100 	tsteq	r0, r0, lsl #2
    2c40:	00000072 	andeq	r0, r0, r2, ror r0
    2c44:	6b1d5701 	blvs	758850 <__standby_start+0x758850>
    2c48:	01000014 	tsteq	r0, r4, lsl r0
    2c4c:	00720111 	rsbseq	r0, r2, r1, lsl r1
    2c50:	56010000 	strpl	r0, [r1], -r0
    2c54:	0014fe1d 	andseq	pc, r4, sp, lsl lr
    2c58:	01110100 	tsteq	r1, r0, lsl #2
    2c5c:	00000072 	andeq	r0, r0, r2, ror r0
    2c60:	1e005501 	cfsh32ne	mvfx5, mvfx0, #1
    2c64:	00141301 	andseq	r1, r4, r1, lsl #6
    2c68:	01760100 	cmneq	r6, r0, lsl #2
    2c6c:	00007201 	andeq	r7, r0, r1, lsl #4
    2c70:	000c8c00 	andeq	r8, ip, r0, lsl #24
    2c74:	000cccf0 	strdeq	ip, [ip], -r0
    2c78:	0003bff0 	strdeq	fp, [r3], -r0
    2c7c:	00691b00 	rsbeq	r1, r9, r0, lsl #22
    2c80:	72017701 	andvc	r7, r1, #262144	; 0x40000
    2c84:	1d000000 	stcne	0, cr0, [r0]
    2c88:	0000152b 	andeq	r1, r0, fp, lsr #10
    2c8c:	67017801 	strvs	r7, [r1, -r1, lsl #16]
    2c90:	01000000 	tsteq	r0, r0
    2c94:	1e000054 	mcrne	0, 0, r0, cr0, cr4, {2}
    2c98:	02000006 	andeq	r0, r0, #6	; 0x6
    2c9c:	00058700 	andeq	r8, r5, r0, lsl #14
    2ca0:	e5010400 	str	r0, [r1, #-1024]
    2ca4:	01000000 	tsteq	r0, r0
    2ca8:	00001845 	andeq	r1, r0, r5, asr #16
    2cac:	00000082 	andeq	r0, r0, r2, lsl #1
    2cb0:	f0000ccc 	undefined instruction 0xf0000ccc
    2cb4:	f0001370 	undefined instruction 0xf0001370
    2cb8:	0000050b 	andeq	r0, r0, fp, lsl #10
    2cbc:	6c050402 	cfstrsvs	mvf0, [r5], {2}
    2cc0:	03000001 	movweq	r0, #1	; 0x1
    2cc4:	04020704 	streq	r0, [r2], #-1796
    2cc8:	00021007 	andeq	r1, r2, r7
    2ccc:	07020200 	streq	r0, [r2, -r0, lsl #4]
    2cd0:	0000026d 	andeq	r0, r0, sp, ror #4
    2cd4:	15070402 	strne	r0, [r7, #-1026]
    2cd8:	02000002 	andeq	r0, r0, #2	; 0x2
    2cdc:	01c00801 	biceq	r0, r0, r1, lsl #16
    2ce0:	cb040000 	blgt	102ce8 <__standby_start+0x102ce8>
    2ce4:	50000016 	andpl	r0, r0, r6, lsl r0
    2ce8:	01701903 	cmneq	r0, r3, lsl #18
    2cec:	37050000 	strcc	r0, [r5, -r0]
    2cf0:	03000018 	movweq	r0, #24	; 0x18
    2cf4:	00003d1a 	andeq	r3, r0, sl, lsl sp
    2cf8:	00230200 	eoreq	r0, r3, r0, lsl #4
    2cfc:	0018b405 	andseq	fp, r8, r5, lsl #8
    2d00:	3d1b0300 	ldccc	3, cr0, [fp]
    2d04:	02000000 	andeq	r0, r0, #0	; 0x0
    2d08:	01050423 	tsteq	r5, r3, lsr #8
    2d0c:	03000019 	movweq	r0, #25	; 0x19
    2d10:	00003d1c 	andeq	r3, r0, ip, lsl sp
    2d14:	08230200 	stmdaeq	r3!, {r9}
    2d18:	00182905 	andseq	r2, r8, r5, lsl #18
    2d1c:	3d1d0300 	ldccc	3, cr0, [sp]
    2d20:	02000000 	andeq	r0, r0, #0	; 0x0
    2d24:	7f050c23 	svcvc	0x00050c23
    2d28:	03000017 	movweq	r0, #23	; 0x17
    2d2c:	00003d1e 	andeq	r3, r0, lr, lsl sp
    2d30:	10230200 	eorne	r0, r3, r0, lsl #4
    2d34:	0018f305 	andseq	pc, r8, r5, lsl #6
    2d38:	3d1f0300 	ldccc	3, cr0, [pc]
    2d3c:	02000000 	andeq	r0, r0, #0	; 0x0
    2d40:	fe051423 	cdp2	4, 0, cr1, cr5, cr3, {1}
    2d44:	03000017 	movweq	r0, #23	; 0x17
    2d48:	00003d20 	andeq	r3, r0, r0, lsr #26
    2d4c:	18230200 	stmdane	r3!, {r9}
    2d50:	00190b05 	andseq	r0, r9, r5, lsl #22
    2d54:	3d210300 	stccc	3, cr0, [r1]
    2d58:	02000000 	andeq	r0, r0, #0	; 0x0
    2d5c:	6f051c23 	svcvs	0x00051c23
    2d60:	03000018 	movweq	r0, #24	; 0x18
    2d64:	00003d22 	andeq	r3, r0, r2, lsr #26
    2d68:	20230200 	eorcs	r0, r3, r0, lsl #4
    2d6c:	0017b605 	andseq	fp, r7, r5, lsl #12
    2d70:	3d230300 	stccc	3, cr0, [r3]
    2d74:	02000000 	andeq	r0, r0, #0	; 0x0
    2d78:	b0052423 	andlt	r2, r5, r3, lsr #8
    2d7c:	03000016 	movweq	r0, #22	; 0x16
    2d80:	00003d24 	andeq	r3, r0, r4, lsr #26
    2d84:	28230200 	stmdacs	r3!, {r9}
    2d88:	00170905 	andseq	r0, r7, r5, lsl #18
    2d8c:	3d250300 	stccc	3, cr0, [r5]
    2d90:	02000000 	andeq	r0, r0, #0	; 0x0
    2d94:	13052c23 	movwne	r2, #23587	; 0x5c23
    2d98:	03000017 	movweq	r0, #23	; 0x17
    2d9c:	00003d26 	andeq	r3, r0, r6, lsr #26
    2da0:	30230200 	eorcc	r0, r3, r0, lsl #4
    2da4:	00171d05 	andseq	r1, r7, r5, lsl #26
    2da8:	3d270300 	stccc	3, cr0, [r7]
    2dac:	02000000 	andeq	r0, r0, #0	; 0x0
    2db0:	27053423 	strcs	r3, [r5, -r3, lsr #8]
    2db4:	03000017 	movweq	r0, #23	; 0x17
    2db8:	00003d28 	andeq	r3, r0, r8, lsr #26
    2dbc:	38230200 	stmdacc	r3!, {r9}
    2dc0:	00173105 	andseq	r3, r7, r5, lsl #2
    2dc4:	3d290300 	stccc	3, cr0, [r9]
    2dc8:	02000000 	andeq	r0, r0, #0	; 0x0
    2dcc:	3b053c23 	blcc	151e60 <__standby_start+0x151e60>
    2dd0:	03000017 	movweq	r0, #23	; 0x17
    2dd4:	00003d2a 	andeq	r3, r0, sl, lsr #26
    2dd8:	40230200 	eormi	r0, r3, r0, lsl #4
    2ddc:	00175805 	andseq	r5, r7, r5, lsl #16
    2de0:	3d2b0300 	stccc	3, cr0, [fp]
    2de4:	02000000 	andeq	r0, r0, #0	; 0x0
    2de8:	77054423 	strvc	r4, [r5, -r3, lsr #8]
    2dec:	03000018 	movweq	r0, #24	; 0x18
    2df0:	00003d2c 	andeq	r3, r0, ip, lsr #26
    2df4:	48230200 	stmdami	r3!, {r9}
    2df8:	00188105 	andseq	r8, r8, r5, lsl #2
    2dfc:	3d2d0300 	stccc	3, cr0, [sp]
    2e00:	02000000 	andeq	r0, r0, #0	; 0x0
    2e04:	02004c23 	andeq	r4, r0, #8960	; 0x2300
    2e08:	01b70801 	undefined instruction 0x01b70801
    2e0c:	04060000 	streq	r0, [r6]
    2e10:	746e6905 	strbtvc	r6, [lr], #-2309
    2e14:	06010200 	streq	r0, [r1], -r0, lsl #4
    2e18:	000001b9 	strheq	r0, [r0], -r9
    2e1c:	c5050202 	strgt	r0, [r5, #-514]
    2e20:	07000001 	streq	r0, [r0, -r1]
    2e24:	00000df9 	strdeq	r0, [r0], -r9
    2e28:	01771902 	cmneq	r7, r2, lsl #18
    2e2c:	50070000 	andpl	r0, r7, r0
    2e30:	02000001 	andeq	r0, r0, #1	; 0x1
    2e34:	00003d1a 	andeq	r3, r0, sl, lsl sp
    2e38:	05080200 	streq	r0, [r8, #-512]
    2e3c:	00000167 	andeq	r0, r0, r7, ror #2
    2e40:	00168607 	andseq	r8, r6, r7, lsl #12
    2e44:	b41c0200 	ldrlt	r0, [ip], #-512
    2e48:	02000001 	andeq	r0, r0, #1	; 0x1
    2e4c:	020b0708 	andeq	r0, fp, #2097152	; 0x200000
    2e50:	c9070000 	stmdbgt	r7, {}
    2e54:	01000016 	tsteq	r0, r6, lsl r0
    2e58:	00004b18 	andeq	r4, r0, r8, lsl fp
    2e5c:	c2010800 	andgt	r0, r1, #0	; 0x0
    2e60:	01000017 	tsteq	r0, r7, lsl r0
    2e64:	8c010180 	stfhis	f0, [r1], {128}
    2e68:	01000001 	tsteq	r0, r1
    2e6c:	188b0109 	stmne	fp, {r0, r3, r8}
    2e70:	49010000 	stmdbmi	r1, {}
    2e74:	000ccc01 	andeq	ip, ip, r1, lsl #24
    2e78:	000cecf0 	strdeq	lr, [ip], -r0
    2e7c:	fa5d01f0 	blx	1743644 <__standby_start+0x1743644>
    2e80:	0a000001 	beq	2e8c <__standby_start+0x2e8c>
    2e84:	0000147e 	andeq	r1, r0, lr, ror r4
    2e88:	01974a01 	orrseq	r4, r7, r1, lsl #20
    2e8c:	53010000 	movwpl	r0, #4096	; 0x1000
    2e90:	56010900 	strpl	r0, [r1], -r0, lsl #18
    2e94:	01000018 	tsteq	r0, r8, lsl r0
    2e98:	0cec0154 	stfeqe	f0, [ip], #336
    2e9c:	0d04f000 	stceq	0, cr15, [r4]
    2ea0:	5d01f000 	stcpl	0, cr15, [r1]
    2ea4:	0000021f 	andeq	r0, r0, pc, lsl r2
    2ea8:	00147e0a 	andseq	r7, r4, sl, lsl #28
    2eac:	97550100 	ldrbls	r0, [r5, -r0, lsl #2]
    2eb0:	01000001 	tsteq	r0, r1
    2eb4:	01090053 	qaddeq	r0, r3, r9
    2eb8:	000018bd 	strheq	r1, [r0], -sp
    2ebc:	04015d01 	streq	r5, [r1], #-3329
    2ec0:	1cf0000d 	ldclne	0, cr0, [r0], #52
    2ec4:	01f0000d 	mvnseq	r0, sp
    2ec8:	0002445d 	andeq	r4, r2, sp, asr r4
    2ecc:	147e0a00 	ldrbtne	r0, [lr], #-2560
    2ed0:	5e010000 	cdppl	0, 0, cr0, cr1, cr0, {0}
    2ed4:	00000197 	muleq	r0, r7, r1
    2ed8:	09005301 	stmdbeq	r0, {r0, r8, r9, ip, lr}
    2edc:	00179c01 	andseq	r9, r7, r1, lsl #24
    2ee0:	018d0100 	orreq	r0, sp, r0, lsl #2
    2ee4:	f0000d1c 	undefined instruction 0xf0000d1c
    2ee8:	f0000d78 	undefined instruction 0xf0000d78
    2eec:	02695d01 	rsbeq	r5, r9, #64	; 0x40
    2ef0:	7e0a0000 	cdpvc	0, 0, cr0, cr10, cr0, {0}
    2ef4:	01000014 	tsteq	r0, r4, lsl r0
    2ef8:	0001978e 	andeq	r9, r1, lr, lsl #15
    2efc:	00530100 	subseq	r0, r3, r0, lsl #2
    2f00:	166e0109 	strbtne	r0, [lr], -r9, lsl #2
    2f04:	b6010000 	strlt	r0, [r1], -r0
    2f08:	000d7801 	andeq	r7, sp, r1, lsl #16
    2f0c:	000dacf0 	strdeq	sl, [sp], -r0
    2f10:	8c5d01f0 	ldfhie	f0, [sp], {240}
    2f14:	0b000002 	bleq	2f24 <__standby_start+0x2f24>
    2f18:	b7010069 	strlt	r0, [r1, -r9, rrx]
    2f1c:	00000197 	muleq	r0, r7, r1
    2f20:	0c005001 	stceq	0, cr5, [r0], {1}
    2f24:	000001c6 	andeq	r0, r0, r6, asr #3
    2f28:	f0000dac 	undefined instruction 0xf0000dac
    2f2c:	f0000db4 	undefined instruction 0xf0000db4
    2f30:	010d5d01 	tsteq	sp, r1, lsl #26
    2f34:	000018df 	ldrdeq	r1, [r0], -pc
    2f38:	01019201 	tsteq	r1, r1, lsl #4
    2f3c:	0000018c 	andeq	r0, r0, ip, lsl #3
    2f40:	f0000db4 	undefined instruction 0xf0000db4
    2f44:	f0000de8 	undefined instruction 0xf0000de8
    2f48:	02c85d01 	sbceq	r5, r8, #64	; 0x40
    2f4c:	7e0e0000 	cdpvc	0, 0, cr0, cr14, cr0, {0}
    2f50:	01000014 	tsteq	r0, r4, lsl r0
    2f54:	01970193 	ldrbeq	r0, [r7, r3]
    2f58:	03de0000 	bicseq	r0, lr, #0	; 0x0
    2f5c:	0f000000 	svceq	0x00000000
    2f60:	0017e801 	andseq	lr, r7, r1, lsl #16
    2f64:	01c50100 	biceq	r0, r5, r0, lsl #2
    2f68:	000de801 	andeq	lr, sp, r1, lsl #16
    2f6c:	000e0cf0 	strdeq	r0, [lr], -r0
    2f70:	fe5d01f0 	mrc2	1, 2, r0, cr13, cr0, {7}
    2f74:	10000002 	andne	r0, r0, r2
    2f78:	01006e6f 	tsteq	r0, pc, ror #28
    2f7c:	019701c4 	orrseq	r0, r7, r4, asr #3
    2f80:	50010000 	andpl	r0, r1, r0
    2f84:	00147e0e 	andseq	r7, r4, lr, lsl #28
    2f88:	01c60100 	biceq	r0, r6, r0, lsl #2
    2f8c:	00000197 	muleq	r0, r7, r1
    2f90:	000003fc 	strdeq	r0, [r0], -ip
    2f94:	0d010f00 	stceq	15, cr0, [r1]
    2f98:	01000018 	tsteq	r0, r8, lsl r0
    2f9c:	0c0101dd 	stfeqs	f0, [r1], {221}
    2fa0:	6cf0000e 	ldclvs	0, cr0, [r0], #56
    2fa4:	01f0000e 	mvnseq	r0, lr
    2fa8:	0003515d 	andeq	r5, r3, sp, asr r1
    2fac:	6c631000 	stclvs	0, cr1, [r3]
    2fb0:	dc01006b 	stcle	0, cr0, [r1], {107}
    2fb4:	00019701 	andeq	r9, r1, r1, lsl #14
    2fb8:	11500100 	cmpne	r0, r0, lsl #2
    2fbc:	0000147e 	andeq	r1, r0, lr, ror r4
    2fc0:	9701de01 	strls	sp, [r1, -r1, lsl #28]
    2fc4:	01000001 	tsteq	r0, r1
    2fc8:	16b00e52 	ssatne	r0, #17, r2, asr #28
    2fcc:	df010000 	svcle	0x00010000
    2fd0:	00019701 	andeq	r9, r1, r1, lsl #14
    2fd4:	00041a00 	andeq	r1, r4, r0, lsl #20
    2fd8:	18671100 	stmdane	r7!, {r8, ip}^
    2fdc:	e0010000 	and	r0, r1, r0
    2fe0:	00019701 	andeq	r9, r1, r1, lsl #14
    2fe4:	00510100 	subseq	r0, r1, r0, lsl #2
    2fe8:	16a6010d 	strtne	r0, [r6], sp, lsl #2
    2fec:	09010000 	stmdbeq	r1, {}
    2ff0:	01970102 	orrseq	r0, r7, r2, lsl #2
    2ff4:	0e6c0000 	cdpeq	0, 6, cr0, cr12, cr0, {0}
    2ff8:	0ee0f000 	cdpeq	0, 14, cr15, cr0, cr0, {0}
    2ffc:	5d01f000 	stcpl	0, cr15, [r1]
    3000:	0000039c 	muleq	r0, ip, r3
    3004:	00147e11 	andseq	r7, r4, r1, lsl lr
    3008:	020a0100 	andeq	r0, sl, #0	; 0x0
    300c:	00000197 	muleq	r0, r7, r1
    3010:	b00e5201 	andlt	r5, lr, r1, lsl #4
    3014:	01000016 	tsteq	r0, r6, lsl r0
    3018:	0197020b 	orrseq	r0, r7, fp, lsl #4
    301c:	04380000 	ldrteq	r0, [r8]
    3020:	8c0e0000 	stchi	0, cr0, [lr], {0}
    3024:	01000016 	tsteq	r0, r6, lsl r0
    3028:	0197020c 	orrseq	r0, r7, ip, lsl #4
    302c:	044b0000 	strbeq	r0, [fp]
    3030:	12000000 	andne	r0, r0, #0	; 0x0
    3034:	0017cd01 	andseq	ip, r7, r1, lsl #26
    3038:	02290100 	eoreq	r0, r9, #0	; 0x0
    303c:	00018c01 	andeq	r8, r1, r1, lsl #24
    3040:	000ee000 	andeq	lr, lr, r0
    3044:	000ee8f0 	strdeq	lr, [lr], -r0
    3048:	125d01f0 	subsne	r0, sp, #60	; 0x3c
    304c:	00189a01 	andseq	r9, r8, r1, lsl #20
    3050:	022f0100 	eoreq	r0, pc, #0	; 0x0
    3054:	00018c01 	andeq	r8, r1, r1, lsl #24
    3058:	000ee800 	andeq	lr, lr, r0, lsl #16
    305c:	000ef0f0 	strdeq	pc, [lr], -r0
    3060:	125d01f0 	subsne	r0, sp, #60	; 0x3c
    3064:	00177101 	andseq	r7, r7, r1, lsl #2
    3068:	02340100 	eorseq	r0, r4, #0	; 0x0
    306c:	00018c01 	andeq	r8, r1, r1, lsl #24
    3070:	000ef000 	andeq	pc, lr, r0
    3074:	000ef4f0 	strdeq	pc, [lr], -r0
    3078:	135d01f0 	cmpne	sp, #60	; 0x3c
    307c:	00176201 	andseq	r6, r7, r1, lsl #4
    3080:	023e0100 	eorseq	r0, lr, #0	; 0x0
    3084:	000ef401 	andeq	pc, lr, r1, lsl #8
    3088:	000ef8f0 	strdeq	pc, [lr], -r0
    308c:	0f5d01f0 	svceq	0x005d01f0
    3090:	0016d701 	andseq	sp, r6, r1, lsl #14
    3094:	02430100 	subeq	r0, r3, #0	; 0x0
    3098:	000ef801 	andeq	pc, lr, r1, lsl #16
    309c:	000efcf0 	strdeq	pc, [lr], -r0
    30a0:	215d01f0 	ldrshcs	r0, [sp, #-16]
    30a4:	14000004 	strne	r0, [r0], #-4
    30a8:	006b6c63 	rsbeq	r6, fp, r3, ror #24
    30ac:	97024201 	strls	r4, [r2, -r1, lsl #4]
    30b0:	8a000001 	bhi	30bc <__standby_start+0x30bc>
    30b4:	00000004 	andeq	r0, r0, r4
    30b8:	17450112 	smlaldne	r0, r5, r2, r1
    30bc:	48010000 	stmdami	r1, {}
    30c0:	018c0102 	orreq	r0, ip, r2, lsl #2
    30c4:	0efc0000 	cdpeq	0, 15, cr0, cr12, cr0, {0}
    30c8:	0f00f000 	svceq	0x0000f000
    30cc:	5d01f000 	stcpl	0, cr15, [r1]
    30d0:	0016fb15 	andseq	pc, r6, r5, lsl fp
    30d4:	01200200 	teqeq	r0, r0, lsl #4
    30d8:	000001a9 	andeq	r0, r0, r9, lsr #3
    30dc:	00048203 	andeq	r8, r4, r3, lsl #4
    30e0:	17ad1600 	strne	r1, [sp, r0, lsl #12]!
    30e4:	1f020000 	svcne	0x00020000
    30e8:	000001a9 	andeq	r0, r0, r9, lsr #3
    30ec:	0016f216 	andseq	pc, r6, r6, lsl r2
    30f0:	971f0200 	ldrls	r0, [pc, -r0, lsl #4]
    30f4:	17000001 	strne	r0, [r0, -r1]
    30f8:	000018cd 	andeq	r1, r0, sp, asr #17
    30fc:	01a92102 	undefined instruction 0x01a92102
    3100:	66170000 	ldrvs	r0, [r7], -r0
    3104:	02000016 	andeq	r0, r0, #22	; 0x16
    3108:	0001a922 	andeq	sl, r1, r2, lsr #18
    310c:	1bbc1700 	blne	fef08d14 <__bss_end+0xef06c8c>
    3110:	23020000 	movwcs	r0, #8192	; 0x2000
    3114:	0000018c 	andeq	r0, r0, ip, lsl #3
    3118:	50011800 	andpl	r1, r1, r0, lsl #16
    311c:	01000016 	tsteq	r0, r6, lsl r0
    3120:	0f0001c0 	svceq	0x000001c0
    3124:	102cf000 	eorne	pc, ip, r0
    3128:	049df000 	ldreq	pc, [sp]
    312c:	05040000 	streq	r0, [r4]
    3130:	63190000 	tstvs	r9, #0	; 0x0
    3134:	01006b6c 	tsteq	r0, ip, ror #22
    3138:	000197bf 	strheq	r9, [r1], -pc
    313c:	0004bc00 	andeq	fp, r4, r0, lsl #24
    3140:	00691a00 	rsbeq	r1, r9, r0, lsl #20
    3144:	0197c101 	orrseq	ip, r7, r1, lsl #2
    3148:	7e1b0000 	wxorvc	wr0, wr11, wr0
    314c:	01000014 	tsteq	r0, r4, lsl r0
    3150:	000197c2 	andeq	r9, r1, r2, asr #15
    3154:	0004da00 	andeq	sp, r4, r0, lsl #20
    3158:	04391c00 	ldrteq	r1, [r9], #-3072
    315c:	00000000 	andeq	r0, r0, r0
    3160:	cb010000 	blgt	43168 <__standby_start+0x43168>
    3164:	0004551d 	andeq	r5, r4, sp, lsl r5
    3168:	044a1e00 	strbeq	r1, [sl], #-3584
    316c:	58060000 	stmdapl	r6, {}
    3170:	93590493 	cmpls	r9, #-1828716544	; 0x93000000
    3174:	00181f04 	andseq	r1, r8, r4, lsl #30
    3178:	60200000 	eorvs	r0, r0, r0
    317c:	06000004 	streq	r0, [r0], -r4
    3180:	57049356 	smlsdpl	r4, r6, r3, r9
    3184:	6b210493 	blvs	8443d8 <__standby_start+0x8443d8>
    3188:	19000004 	stmdbne	r0, {r2}
    318c:	21000005 	tstcs	r0, r5
    3190:	00000476 	andeq	r0, r0, r6, ror r4
    3194:	00000541 	andeq	r0, r0, r1, asr #10
    3198:	0f000000 	svceq	0x00000000
    319c:	0016ba01 	andseq	fp, r6, r1, lsl #20
    31a0:	02390100 	eorseq	r0, r9, #0	; 0x0
    31a4:	00102c01 	andseq	r2, r0, r1, lsl #24
    31a8:	001030f0 	ldrsheq	r3, [r0], -r0
    31ac:	2d5d01f0 	ldfcse	f0, [sp, #-960]
    31b0:	14000005 	strne	r0, [r0], #-5
    31b4:	006b6c63 	rsbeq	r6, fp, r3, ror #24
    31b8:	77023801 	strvc	r3, [r2, -r1, lsl #16]
    31bc:	54000001 	strpl	r0, [r0], #-1
    31c0:	00000005 	andeq	r0, r0, r5
    31c4:	16950118 	undefined
    31c8:	74010000 	strvc	r0, [r1]
    31cc:	00103001 	andseq	r3, r0, r1
    31d0:	0010d4f0 	ldrsheq	sp, [r0], -r0
    31d4:	000567f0 	strdeq	r6, [r5], -r0
    31d8:	00055400 	andeq	r5, r5, r0, lsl #8
    31dc:	00692200 	rsbeq	r2, r9, r0, lsl #4
    31e0:	01977501 	orrseq	r7, r7, r1, lsl #10
    31e4:	05860000 	streq	r0, [r6]
    31e8:	18000000 	stmdane	r0, {}
    31ec:	0017d701 	andseq	sp, r7, r1, lsl #14
    31f0:	01660100 	cmneq	r6, r0, lsl #2
    31f4:	f00010d4 	undefined instruction 0xf00010d4
    31f8:	f0001128 	undefined instruction 0xf0001128
    31fc:	000005af 	andeq	r0, r0, pc, lsr #11
    3200:	00000577 	andeq	r0, r0, r7, ror r5
    3204:	0100691a 	tsteq	r0, sl, lsl r9
    3208:	00019767 	andeq	r9, r1, r7, ror #14
    320c:	01180000 	tsteq	r8, r0
    3210:	000018a4 	andeq	r1, r0, r4, lsr #17
    3214:	28012a01 	stmdacs	r1, {r0, r9, fp, sp}
    3218:	98f00011 	ldmls	r0!, {r0, r4}^
    321c:	cef00011 	mrcgt	0, 7, r0, cr0, cr1, {0}
    3220:	a9000005 	stmdbge	r0, {r0, r2}
    3224:	1b000005 	blne	3240 <__standby_start+0x3240>
    3228:	0000147e 	andeq	r1, r0, lr, ror r4
    322c:	01972b01 	orrseq	r2, r7, r1, lsl #22
    3230:	05ed0000 	strbeq	r0, [sp]!
    3234:	691a0000 	ldmdbvs	sl, {}
    3238:	972c0100 	strls	r0, [ip, -r0, lsl #2]!
    323c:	00000001 	andeq	r0, r0, r1
    3240:	17910123 	ldrne	r0, [r1, r3, lsr #2]
    3244:	f0010000 	undefined instruction 0xf0010000
    3248:	00018c01 	andeq	r8, r1, r1, lsl #24
    324c:	00119800 	andseq	r9, r1, r0, lsl #16
    3250:	001370f0 	ldrsheq	r7, [r3], -r0
    3254:	000616f0 	strdeq	r1, [r6], -r0
    3258:	0005f900 	andeq	pc, r5, r0, lsl #18
    325c:	02f02400 	rscseq	r2, r0, #0	; 0x0
    3260:	ef010000 	svc	0x00010000
    3264:	000005f9 	strdeq	r0, [r0], -r9
    3268:	00000635 	andeq	r0, r0, r5, lsr r6
    326c:	0100691a 	tsteq	r0, sl, lsl r9
    3270:	000197f1 	strdeq	r9, [r1], -r1
    3274:	147e1b00 	ldrbtne	r1, [lr], #-2816
    3278:	f2010000 	vhadd.s8	d0, d1, d0
    327c:	00000197 	muleq	r0, r7, r1
    3280:	00000653 	andeq	r0, r0, r3, asr r6
    3284:	00152b17 	andseq	r2, r5, r7, lsl fp
    3288:	8cf30100 	ldfhie	f0, [r3]
    328c:	00000001 	andeq	r0, r0, r1
    3290:	01bb0425 	undefined instruction 0x01bb0425
    3294:	97260000 	strls	r0, [r6, -r0]!
    3298:	0f000001 	svceq	0x00000001
    329c:	27000006 	strcs	r0, [r0, -r6]
    32a0:	0000002c 	andeq	r0, r0, ip, lsr #32
    32a4:	d428001f 	strtle	r0, [r8], #-31
    32a8:	01000018 	tsteq	r0, r8, lsl r0
    32ac:	0005ffaa 	andeq	pc, r5, sl, lsr #31
    32b0:	03050100 	movweq	r0, #20736	; 0x5100
    32b4:	f0001e78 	undefined instruction 0xf0001e78
    32b8:	00034c00 	andeq	r4, r3, r0, lsl #24
    32bc:	da000200 	ble	3ac4 <__standby_start+0x3ac4>
    32c0:	04000007 	streq	r0, [r0], #-7
    32c4:	0000e501 	andeq	lr, r0, r1, lsl #10
    32c8:	19f90100 	ldmibne	r9!, {r8}^
    32cc:	00820000 	addeq	r0, r2, r0
    32d0:	13700000 	cmnne	r0, #0	; 0x0
    32d4:	14d8f000 	ldrbne	pc, [r8]
    32d8:	0749f000 	strbeq	pc, [r9, -r0]
    32dc:	04020000 	streq	r0, [r2]
    32e0:	00021507 	andeq	r1, r2, r7, lsl #10
    32e4:	08010200 	stmdaeq	r1, {r9}
    32e8:	000001b7 	strheq	r0, [r0], -r7
    32ec:	69050403 	stmdbvs	r5, {r0, r1, sl}
    32f0:	0200746e 	andeq	r7, r0, #1845493760	; 0x6e000000
    32f4:	01b90601 	undefined instruction 0x01b90601
    32f8:	02020000 	andeq	r0, r2, #0	; 0x0
    32fc:	0001c505 	andeq	ip, r1, r5, lsl #10
    3300:	07020200 	streq	r0, [r2, -r0, lsl #4]
    3304:	0000026d 	andeq	r0, r0, sp, ror #4
    3308:	000df904 	andeq	pc, sp, r4, lsl #18
    330c:	33190200 	tstcc	r9, #0	; 0x0
    3310:	04000000 	streq	r0, [r0]
    3314:	00000150 	andeq	r0, r0, r0, asr r1
    3318:	00251a02 	eoreq	r1, r5, r2, lsl #20
    331c:	08020000 	stmdaeq	r2, {}
    3320:	00016705 	andeq	r6, r1, r5, lsl #14
    3324:	07080200 	streq	r0, [r8, -r0, lsl #4]
    3328:	0000020b 	andeq	r0, r0, fp, lsl #4
    332c:	00005a05 	andeq	r5, r0, r5, lsl #20
    3330:	07040600 	streq	r0, [r4, -r0, lsl #12]
    3334:	00005a07 	andeq	r5, r0, r7, lsl #20
    3338:	00008b00 	andeq	r8, r0, r0, lsl #22
    333c:	00780800 	rsbseq	r0, r8, r0, lsl #16
    3340:	00040000 	andeq	r0, r4, r0
    3344:	00010d09 	andeq	r0, r1, r9, lsl #26
    3348:	19030400 	stmdbne	r3, {sl}
    334c:	000000ee 	andeq	r0, r0, lr, ror #1
    3350:	00025b0a 	andeq	r5, r2, sl, lsl #22
    3354:	010a0000 	tsteq	sl, r0
    3358:	05000003 	streq	r0, [r0, #-3]
    335c:	0003100a 	andeq	r1, r3, sl
    3360:	d30a0600 	movwle	r0, #42496	; 0xa600
    3364:	15000002 	strne	r0, [r0, #-2]
    3368:	0002af0a 	andeq	sl, r2, sl, lsl #30
    336c:	c10a1600 	tstgt	sl, r0, lsl #12
    3370:	17000002 	strne	r0, [r0, -r2]
    3374:	00031f0a 	andeq	r1, r3, sl, lsl #30
    3378:	f90a1800 	undefined instruction 0xf90a1800
    337c:	1d000000 	stcne	0, cr0, [r0]
    3380:	00028e0a 	andeq	r8, r2, sl, lsl #28
    3384:	080a1f00 	stmdaeq	sl, {r8, r9, sl, fp, ip}
    3388:	26000000 	strcs	r0, [r0], -r0
    338c:	0000180a 	andeq	r1, r0, sl, lsl #16
    3390:	680a2700 	stmdavs	sl, {r8, r9, sl, sp}
    3394:	28000000 	stmdacs	r0, {}
    3398:	00003f0a 	andeq	r3, r0, sl, lsl #30
    339c:	0a00c000 	beq	333a4 <__standby_start+0x333a4>
    33a0:	0000004f 	andeq	r0, r0, pc, asr #32
    33a4:	0b0000c1 	bleq	36b0 <__standby_start+0x36b0>
    33a8:	000019c3 	andeq	r1, r0, r3, asr #19
    33ac:	062d0394 	undefined
    33b0:	0c000002 	stceq	0, cr0, [r0], {2}
    33b4:	000019ab 	andeq	r1, r0, fp, lsr #19
    33b8:	00732f03 	rsbseq	r2, r3, r3, lsl #30
    33bc:	23020000 	movwcs	r0, #8192	; 0x2000
    33c0:	19b20c00 	ldmibne	r2!, {sl, fp}
    33c4:	30030000 	andcc	r0, r3, r0
    33c8:	00000073 	andeq	r0, r0, r3, ror r0
    33cc:	0c042302 	stceq	3, cr2, [r4], {2}
    33d0:	00000fc3 	andeq	r0, r0, r3, asr #31
    33d4:	00733103 	rsbseq	r3, r3, r3, lsl #2
    33d8:	23020000 	movwcs	r0, #8192	; 0x2000
    33dc:	199c0c08 	ldmibne	ip, {r3, sl, fp}
    33e0:	32030000 	andcc	r0, r3, #0	; 0x0
    33e4:	00000073 	andeq	r0, r0, r3, ror r0
    33e8:	0c0c2302 	stceq	3, cr2, [ip], {2}
    33ec:	00001924 	andeq	r1, r0, r4, lsr #18
    33f0:	02163403 	andseq	r3, r6, #50331648	; 0x3000000
    33f4:	23020000 	movwcs	r0, #8192	; 0x2000
    33f8:	0fcd0c10 	svceq	0x00cd0c10
    33fc:	35030000 	strcc	r0, [r3]
    3400:	00000073 	andeq	r0, r0, r3, ror r0
    3404:	0c1c2302 	ldceq	3, cr2, [ip], {2}
    3408:	00001914 	andeq	r1, r0, r4, lsl r9
    340c:	021b3703 	andseq	r3, fp, #786432	; 0xc0000
    3410:	23020000 	movwcs	r0, #8192	; 0x2000
    3414:	0fd70c20 	svceq	0x00d70c20
    3418:	38030000 	stmdacc	r3, {}
    341c:	00000073 	andeq	r0, r0, r3, ror r0
    3420:	0c2c2302 	stceq	3, cr2, [ip], #-8
    3424:	0000197c 	andeq	r1, r0, ip, ror r9
    3428:	02203a03 	eoreq	r3, r0, #12288	; 0x3000
    342c:	23020000 	movwcs	r0, #8192	; 0x2000
    3430:	0fe10c30 	svceq	0x00e10c30
    3434:	3b030000 	blcc	c343c <__standby_start+0xc343c>
    3438:	00000073 	andeq	r0, r0, r3, ror r0
    343c:	0c3c2302 	ldceq	3, cr2, [ip], #-8
    3440:	00001c91 	muleq	r0, r1, ip
    3444:	02253d03 	eoreq	r3, r5, #192	; 0xc0
    3448:	23020000 	movwcs	r0, #8192	; 0x2000
    344c:	0feb0c40 	svceq	0x00eb0c40
    3450:	3e030000 	cdpcc	0, 0, cr0, cr3, cr0, {0}
    3454:	00000073 	andeq	r0, r0, r3, ror r0
    3458:	0c4c2302 	mcrreq	3, 0, r2, ip, cr2
    345c:	000019bb 	strheq	r1, [r0], -fp
    3460:	022a4003 	eoreq	r4, sl, #3	; 0x3
    3464:	23020000 	movwcs	r0, #8192	; 0x2000
    3468:	1a070c50 	bne	1c65b0 <__standby_start+0x1c65b0>
    346c:	41030000 	tstmi	r3, r0
    3470:	00000073 	andeq	r0, r0, r3, ror r0
    3474:	0c5c2302 	mrrceq	3, 0, r2, ip, cr2
    3478:	0000194f 	andeq	r1, r0, pc, asr #18
    347c:	022f4303 	eoreq	r4, pc, #201326592	; 0xc000000
    3480:	23020000 	movwcs	r0, #8192	; 0x2000
    3484:	1a110c60 	bne	44660c <__standby_start+0x44660c>
    3488:	44030000 	strmi	r0, [r3]
    348c:	00000073 	andeq	r0, r0, r3, ror r0
    3490:	0c6c2302 	stcleq	3, cr2, [ip], #-8
    3494:	0000192c 	andeq	r1, r0, ip, lsr #18
    3498:	02344603 	eorseq	r4, r4, #3145728	; 0x300000
    349c:	23020000 	movwcs	r0, #8192	; 0x2000
    34a0:	1a1b0c70 	bne	6c6668 <__standby_start+0x6c6668>
    34a4:	47030000 	strmi	r0, [r3, -r0]
    34a8:	00000073 	andeq	r0, r0, r3, ror r0
    34ac:	0c7c2302 	ldcleq	3, cr2, [ip], #-8
    34b0:	0000191c 	andeq	r1, r0, ip, lsl r9
    34b4:	02394903 	eorseq	r4, r9, #49152	; 0xc000
    34b8:	23030000 	movwcs	r0, #12288	; 0x3000
    34bc:	07000180 	streq	r0, [r0, -r0, lsl #3]
    34c0:	0000005a 	andeq	r0, r0, sl, asr r0
    34c4:	00000216 	andeq	r0, r0, r6, lsl r2
    34c8:	00007808 	andeq	r7, r0, r8, lsl #16
    34cc:	05000200 	streq	r0, [r0, #-512]
    34d0:	00000206 	andeq	r0, r0, r6, lsl #4
    34d4:	00020605 	andeq	r0, r2, r5, lsl #12
    34d8:	02060500 	andeq	r0, r6, #0	; 0x0
    34dc:	06050000 	streq	r0, [r5], -r0
    34e0:	05000002 	streq	r0, [r0, #-2]
    34e4:	00000206 	andeq	r0, r0, r6, lsl #4
    34e8:	00020605 	andeq	r0, r2, r5, lsl #12
    34ec:	02060500 	andeq	r0, r6, #0	; 0x0
    34f0:	7b050000 	blvc	1434f8 <__standby_start+0x1434f8>
    34f4:	0d000000 	stceq	0, cr0, [r0]
    34f8:	00198401 	andseq	r8, r9, r1, lsl #8
    34fc:	01260100 	teqeq	r6, r0, lsl #2
    3500:	0000004f 	andeq	r0, r0, pc, asr #32
    3504:	f0001370 	undefined instruction 0xf0001370
    3508:	f0001408 	undefined instruction 0xf0001408
    350c:	0000069d 	muleq	r0, sp, r6
    3510:	193e010e 	ldmdbne	lr!, {r1, r2, r3, r8}
    3514:	52010000 	andpl	r0, r1, #0	; 0x0
    3518:	00004f01 	andeq	r4, r0, r1, lsl #30
    351c:	00140800 	andseq	r0, r4, r0, lsl #16
    3520:	001460f0 	ldrsheq	r6, [r4], -r0
    3524:	0f5d01f0 	svceq	0x005d01f0
    3528:	00196901 	andseq	r6, r9, r1, lsl #18
    352c:	016e0100 	cmneq	lr, r0, lsl #2
    3530:	0000004f 	andeq	r0, r0, pc, asr #32
    3534:	f0001460 	undefined instruction 0xf0001460
    3538:	f00014a8 	undefined instruction 0xf00014a8
    353c:	000006bc 	strheq	r0, [r0], -ip
    3540:	000002b5 	strheq	r0, [r0], -r5
    3544:	63727310 	cmnvs	r2, #1073741824	; 0x40000000
    3548:	8b6d0100 	blhi	1b43950 <__standby_start+0x1b43950>
    354c:	db000000 	blle	3554 <__standby_start+0x3554>
    3550:	11000006 	tstne	r0, r6
    3554:	000019d5 	ldrdeq	r1, [r0], -r5
    3558:	005a6f01 	subseq	r6, sl, r1, lsl #30
    355c:	06ee0000 	strbteq	r0, [lr], r0
    3560:	95120000 	ldrls	r0, [r2]
    3564:	01000019 	tsteq	r0, r9, lsl r0
    3568:	00005a70 	andeq	r5, r0, r0, ror sl
    356c:	01130000 	tsteq	r3, r0
    3570:	00001957 	andeq	r1, r0, r7, asr r9
    3574:	4f018601 	svcmi	0x00018601
    3578:	a8000000 	stmdage	r0, {}
    357c:	d8f00014 	ldmle	r0!, {r2, r4}^
    3580:	01f00014 	mvnseq	r0, r4, lsl r0
    3584:	0003055d 	andeq	r0, r3, sp, asr r5
    3588:	72731000 	rsbsvc	r1, r3, #0	; 0x0
    358c:	85010063 	strhi	r0, [r1, #-99]
    3590:	0000008b 	andeq	r0, r0, fp, lsl #1
    3594:	00000701 	andeq	r0, r0, r1, lsl #14
    3598:	0019a412 	andseq	sl, r9, r2, lsl r4
    359c:	4f870100 	svcmi	0x00870100
    35a0:	11000000 	tstne	r0, r0
    35a4:	000019d5 	ldrdeq	r1, [r0], -r5
    35a8:	005a8801 	subseq	r8, sl, r1, lsl #16
    35ac:	07140000 	ldreq	r0, [r4, -r0]
    35b0:	95120000 	ldrls	r0, [r2]
    35b4:	01000019 	tsteq	r0, r9, lsl r0
    35b8:	00005a89 	andeq	r5, r0, r9, lsl #21
    35bc:	35140000 	ldrcc	r0, [r4]
    35c0:	01000019 	tsteq	r0, r9, lsl r0
    35c4:	00020614 	andeq	r0, r2, r4, lsl r6
    35c8:	18030500 	stmdane	r3, {r8, sl}
    35cc:	14f00020 	ldrbtne	r0, [r0], #32
    35d0:	000019dc 	ldrdeq	r1, [r0], -ip
    35d4:	02061401 	andeq	r1, r6, #16777216	; 0x1000000
    35d8:	03050000 	movweq	r0, #20480	; 0x5000
    35dc:	f0002024 	undefined instruction 0xf0002024
    35e0:	0019ef14 	andseq	lr, r9, r4, lsl pc
    35e4:	06140100 	ldreq	r0, [r4], -r0, lsl #2
    35e8:	05000002 	streq	r0, [r0, #-2]
    35ec:	00203003 	eoreq	r3, r0, r3
    35f0:	19e714f0 	stmibne	r7!, {r4, r5, r6, r7, sl, ip}^
    35f4:	15010000 	strne	r0, [r1]
    35f8:	00000349 	andeq	r0, r0, r9, asr #6
    35fc:	20140305 	andscs	r0, r4, r5, lsl #6
    3600:	0415f000 	ldreq	pc, [r5]
    3604:	000000ee 	andeq	r0, r0, lr, ror #1
    3608:	0000c400 	andeq	ip, r0, r0, lsl #8
    360c:	0c000200 	.word	0x0c000200
    3610:	04000009 	.word	0x04000009
    3614:	0000e501 	.word	0x0000e501
    3618:	1a250100 	.word	0x1a250100
    361c:	00820000 	.word	0x00820000
    3620:	14d80000 	.word	0x14d80000
    3624:	14f8f000 	.word	0x14f8f000
    3628:	0809f000 	.word	0x0809f000
    362c:	04020000 	.word	0x04020000
    3630:	00021507 	.word	0x00021507
    3634:	08010200 	.word	0x08010200
    3638:	000001b7 	.word	0x000001b7
    363c:	69050403 	.word	0x69050403
    3640:	0200746e 	.word	0x0200746e
    3644:	01b90601 	.word	0x01b90601
    3648:	02020000 	.word	0x02020000
    364c:	0001c505 	.word	0x0001c505
    3650:	07020200 	.word	0x07020200
    3654:	0000026d 	.word	0x0000026d
    3658:	000df904 	.word	0x000df904
    365c:	33190200 	.word	0x33190200
    3660:	02000000 	.word	0x02000000
    3664:	01670508 	.word	0x01670508
    3668:	08020000 	.word	0x08020000
    366c:	00020b07 	.word	0x00020b07
    3670:	07040500 	.word	0x07040500
    3674:	1a540106 	.word	0x1a540106
    3678:	24010000 	.word	0x24010000
    367c:	00004f01 	.word	0x00004f01
    3680:	0014d800 	.word	0x0014d800
    3684:	0014e0f0 	.word	0x0014e0f0
    3688:	065d01f0 	.word	0x065d01f0
    368c:	001a3201 	.word	0x001a3201
    3690:	01370100 	.word	0x01370100
    3694:	0000004f 	.word	0x0000004f
    3698:	f00014e0 	.word	0xf00014e0
    369c:	f00014e8 	.word	0xf00014e8
    36a0:	01065d01 	.word	0x01065d01
    36a4:	00001a64 	.word	0x00001a64
    36a8:	4f014a01 	.word	0x4f014a01
    36ac:	e8000000 	.word	0xe8000000
    36b0:	f0f00014 	.word	0xf0f00014
    36b4:	01f00014 	.word	0x01f00014
    36b8:	4201065d 	.word	0x4201065d
    36bc:	0100001a 	.word	0x0100001a
    36c0:	004f015c 	.word	0x004f015c
    36c4:	14f00000 	.word	0x14f00000
    36c8:	14f8f000 	.word	0x14f8f000
    36cc:	5d01f000 	.word	0x5d01f000
    36d0:	00017700 	.word	0x00017700
    36d4:	63000200 	.word	0x63000200
    36d8:	04000009 	.word	0x04000009
    36dc:	0000e501 	.word	0x0000e501
    36e0:	1a9d0100 	.word	0x1a9d0100
    36e4:	00820000 	.word	0x00820000
    36e8:	14f80000 	.word	0x14f80000
    36ec:	1598f000 	.word	0x1598f000
    36f0:	085ef000 	.word	0x085ef000
    36f4:	04020000 	.word	0x04020000
    36f8:	00021507 	.word	0x00021507
    36fc:	08010200 	.word	0x08010200
    3700:	000001b7 	.word	0x000001b7
    3704:	69050403 	.word	0x69050403
    3708:	0200746e 	.word	0x0200746e
    370c:	01b90601 	.word	0x01b90601
    3710:	02020000 	.word	0x02020000
    3714:	0001c505 	.word	0x0001c505
    3718:	07020200 	.word	0x07020200
    371c:	0000026d 	.word	0x0000026d
    3720:	000df904 	.word	0x000df904
    3724:	33190200 	.word	0x33190200
    3728:	04000000 	.word	0x04000000
    372c:	00000150 	.word	0x00000150
    3730:	00251a02 	.word	0x00251a02
    3734:	08020000 	.word	0x08020000
    3738:	00016705 	.word	0x00016705
    373c:	07080200 	.word	0x07080200
    3740:	0000020b 	.word	0x0000020b
    3744:	00005a05 	.word	0x00005a05
    3748:	07040600 	.word	0x07040600
    374c:	001b2207 	.word	0x001b2207
    3750:	18031400 	.word	0x18031400
    3754:	000000ce 	.word	0x000000ce
    3758:	001ae008 	.word	0x001ae008
    375c:	731a0300 	.word	0x731a0300
    3760:	02000000 	.word	0x02000000
    3764:	b2080023 	.word	0xb2080023
    3768:	0300001a 	.word	0x0300001a
    376c:	0000731b 	.word	0x0000731b
    3770:	04230200 	.word	0x04230200
    3774:	001a7608 	.word	0x001a7608
    3778:	731c0300 	.word	0x731c0300
    377c:	02000000 	.word	0x02000000
    3780:	34080823 	.word	0x34080823
    3784:	0300001b 	.word	0x0300001b
    3788:	0000731d 	.word	0x0000731d
    378c:	0c230200 	.word	0x0c230200
    3790:	001aeb08 	.word	0x001aeb08
    3794:	731e0300 	.word	0x731e0300
    3798:	02000000 	.word	0x02000000
    379c:	04001023 	.word	0x04001023
    37a0:	00001a81 	.word	0x00001a81
    37a4:	007b1f03 	.word	0x007b1f03
    37a8:	01090000 	.word	0x01090000
    37ac:	00001abd 	.word	0x00001abd
    37b0:	4f014501 	.word	0x4f014501
    37b4:	f8000000 	.word	0xf8000000
    37b8:	18f00014 	.word	0x18f00014
    37bc:	01f00015 	.word	0x01f00015
    37c0:	1001095d 	.word	0x1001095d
    37c4:	0100001b 	.word	0x0100001b
    37c8:	004f0158 	.word	0x004f0158
    37cc:	15180000 	.word	0x15180000
    37d0:	1540f000 	.word	0x1540f000
    37d4:	5d01f000 	.word	0x5d01f000
    37d8:	1af7010a 	.word	0x1af7010a
    37dc:	28010000 	.word	0x28010000
    37e0:	00004f01 	.word	0x00004f01
    37e4:	00154000 	.word	0x00154000
    37e8:	001598f0 	.word	0x001598f0
    37ec:	000727f0 	.word	0x000727f0
    37f0:	1aab0b00 	.word	0x1aab0b00
    37f4:	14010000 	.word	0x14010000
    37f8:	00000131 	.word	0x00000131
    37fc:	203c0305 	.word	0x203c0305
    3800:	040cf000 	.word	0x040cf000
    3804:	000000ce 	.word	0x000000ce
    3808:	001b400b 	.word	0x001b400b
    380c:	5a150100 	.word	0x5a150100
    3810:	05000000 	.word	0x05000000
    3814:	00204003 	.word	0x00204003
    3818:	1b080bf0 	.word	0x1b080bf0
    381c:	15010000 	.word	0x15010000
    3820:	0000005a 	.word	0x0000005a
    3824:	20440305 	.word	0x20440305
    3828:	950df000 	.word	0x950df000
    382c:	0100001a 	.word	0x0100001a
    3830:	00005a15 	.word	0x00005a15
    3834:	1ace0d00 	.word	0x1ace0d00
    3838:	15010000 	.word	0x15010000
    383c:	0000005a 	.word	0x0000005a
    3840:	001ad70d 	.word	0x001ad70d
    3844:	5a150100 	.word	0x5a150100
    3848:	00000000 	.word	0x00000000
    384c:	000003b9 	.word	0x000003b9
    3850:	0a1b0002 	.word	0x0a1b0002
    3854:	01040000 	.word	0x01040000
    3858:	000000e5 	.word	0x000000e5
    385c:	001b6d01 	.word	0x001b6d01
    3860:	00008200 	.word	0x00008200
    3864:	00159800 	.word	0x00159800
    3868:	0018e0f0 	.word	0x0018e0f0
    386c:	0008e0f0 	.word	0x0008e0f0
    3870:	07040200 	.word	0x07040200
    3874:	00000215 	.word	0x00000215
    3878:	b7080102 	.word	0xb7080102
    387c:	03000001 	.word	0x03000001
    3880:	6e690504 	.word	0x6e690504
    3884:	01020074 	.word	0x01020074
    3888:	0001b906 	.word	0x0001b906
    388c:	1bf60400 	.word	0x1bf60400
    3890:	16030000 	.word	0x16030000
    3894:	0000002c 	.word	0x0000002c
    3898:	c5050202 	.word	0xc5050202
    389c:	02000001 	.word	0x02000001
    38a0:	026d0702 	.word	0x026d0702
    38a4:	f9040000 	.word	0xf9040000
    38a8:	0300000d 	.word	0x0300000d
    38ac:	00003319 	.word	0x00003319
    38b0:	01500400 	.word	0x01500400
    38b4:	1a030000 	.word	0x1a030000
    38b8:	00000025 	.word	0x00000025
    38bc:	67050802 	.word	0x67050802
    38c0:	02000001 	.word	0x02000001
    38c4:	020b0708 	.word	0x020b0708
    38c8:	04050000 	.word	0x04050000
    38cc:	02400607 	.word	0x02400607
    38d0:	04040000 	.word	0x04040000
    38d4:	0000b817 	.word	0x0000b817
    38d8:	01200700 	.word	0x01200700
    38dc:	07000000 	.word	0x07000000
    38e0:	00000130 	.word	0x00000130
    38e4:	01400701 	.word	0x01400701
    38e8:	07020000 	.word	0x07020000
    38ec:	000001cf 	.word	0x000001cf
    38f0:	01de0703 	.word	0x01de0703
    38f4:	07040000 	.word	0x07040000
    38f8:	000001ed 	.word	0x000001ed
    38fc:	01fc0705 	.word	0x01fc0705
    3900:	00060000 	.word	0x00060000
    3904:	001bcd08 	.word	0x001bcd08
    3908:	46041c00 	.word	0x46041c00
    390c:	00000126 	.word	0x00000126
    3910:	00646909 	.word	0x00646909
    3914:	00814704 	.word	0x00814704
    3918:	23020000 	.word	0x23020000
    391c:	1c240a00 	.word	0x1c240a00
    3920:	48040000 	.word	0x48040000
    3924:	00000033 	.word	0x00000033
    3928:	0a042302 	.word	0x0a042302
    392c:	00001b66 	.word	0x00001b66
    3930:	00334904 	.word	0x00334904
    3934:	23020000 	.word	0x23020000
    3938:	1bee0a08 	.word	0x1bee0a08
    393c:	4a040000 	.word	0x4a040000
    3940:	00000033 	.word	0x00000033
    3944:	0a0c2302 	.word	0x0a0c2302
    3948:	00001c10 	.word	0x00001c10
    394c:	00334b04 	.word	0x00334b04
    3950:	23020000 	.word	0x23020000
    3954:	1bb80a10 	.word	0x1bb80a10
    3958:	4c040000 	.word	0x4c040000
    395c:	00000033 	.word	0x00000033
    3960:	0a142302 	.word	0x0a142302
    3964:	00001b9a 	.word	0x00001b9a
    3968:	00334d04 	.word	0x00334d04
    396c:	23020000 	.word	0x23020000
    3970:	e0060018 	.word	0xe0060018
    3974:	0400001b 	.word	0x0400001b
    3978:	013f2905 	.word	0x013f2905
    397c:	d6070000 	.word	0xd6070000
    3980:	0000001b 	.word	0x0000001b
    3984:	001b9007 	.word	0x001b9007
    3988:	0b000100 	.word	0x0b000100
    398c:	00001c3e 	.word	0x00001c3e
    3990:	65012701 	.word	0x65012701
    3994:	98000000 	.word	0x98000000
    3998:	ecf00015 	.word	0xecf00015
    399c:	01f00015 	.word	0x01f00015
    39a0:	0001a35d 	.word	0x0001a35d
    39a4:	17ad0c00 	.word	0x17ad0c00
    39a8:	26010000 	.word	0x26010000
    39ac:	00000065 	.word	0x00000065
    39b0:	00000746 	.word	0x00000746
    39b4:	0016f20c 	.word	0x0016f20c
    39b8:	65260100 	.word	0x65260100
    39bc:	64000000 	.word	0x64000000
    39c0:	0d000007 	.word	0x0d000007
    39c4:	000018cd 	.word	0x000018cd
    39c8:	00652801 	.word	0x00652801
    39cc:	078d0000 	.word	0x078d0000
    39d0:	660d0000 	.word	0x660d0000
    39d4:	01000016 	.word	0x01000016
    39d8:	00006529 	.word	0x00006529
    39dc:	0007a000 	.word	0x0007a000
    39e0:	1bbc0e00 	.word	0x1bbc0e00
    39e4:	2a010000 	.word	0x2a010000
    39e8:	0000005a 	.word	0x0000005a
    39ec:	0b005201 	.word	0x0b005201
    39f0:	00001b5c 	.word	0x00001b5c
    39f4:	e3017b02 	.word	0xe3017b02
    39f8:	ec000001 	.word	0xec000001
    39fc:	24f00015 	.word	0x24f00015
    3a00:	01f00016 	.word	0x01f00016
    3a04:	0001e35d 	.word	0x0001e35d
    3a08:	64690f00 	.word	0x64690f00
    3a0c:	337a0200 	.word	0x337a0200
    3a10:	d4000000 	.word	0xd4000000
    3a14:	10000007 	.word	0x10000007
    3a18:	02006972 	.word	0x02006972
    3a1c:	0001e37c 	.word	0x0001e37c
    3a20:	0007f200 	.word	0x0007f200
    3a24:	00691100 	.word	0x00691100
    3a28:	00337d02 	.word	0x00337d02
    3a2c:	12000000 	.word	0x12000000
    3a30:	0000b804 	.word	0x0000b804
    3a34:	48011300 	.word	0x48011300
    3a38:	0200001b 	.word	0x0200001b
    3a3c:	006501d8 	.word	0x006501d8
    3a40:	16240000 	.word	0x16240000
    3a44:	1698f000 	.word	0x1698f000
    3a48:	0805f000 	.word	0x0805f000
    3a4c:	02480000 	.word	0x02480000
    3a50:	060c0000 	.word	0x060c0000
    3a54:	02000019 	.word	0x02000019
    3a58:	000081d7 	.word	0x000081d7
    3a5c:	00082400 	.word	0x00082400
    3a60:	1bc80e00 	.word	0x1bc80e00
    3a64:	d9020000 	.word	0xd9020000
    3a68:	000001e3 	.word	0x000001e3
    3a6c:	76105401 	.word	0x76105401
    3a70:	02006c61 	.word	0x02006c61
    3a74:	000041da 	.word	0x000041da
    3a78:	00084d00 	.word	0x00084d00
    3a7c:	1c0b1400 	.word	0x1c0b1400
    3a80:	da020000 	.word	0xda020000
    3a84:	00000041 	.word	0x00000041
    3a88:	74657211 	.word	0x74657211
    3a8c:	33db0200 	.word	0x33db0200
    3a90:	00000000 	.word	0x00000000
    3a94:	001c1815 	.word	0x001c1815
    3a98:	01640200 	.word	0x01640200
    3a9c:	00000033 	.word	0x00000033
    3aa0:	00027003 	.word	0x00027003
    3aa4:	1bc81600 	.word	0x1bc81600
    3aa8:	63020000 	.word	0x63020000
    3aac:	000001e3 	.word	0x000001e3
    3ab0:	001b5416 	.word	0x001b5416
    3ab4:	5a630200 	.word	0x5a630200
    3ab8:	00000000 	.word	0x00000000
    3abc:	1ba40117 	.word	0x1ba40117
    3ac0:	97020000 	.word	0x97020000
    3ac4:	00169801 	.word	0x00169801
    3ac8:	0017c8f0 	.word	0x0017c8f0
    3acc:	00086cf0 	.word	0x00086cf0
    3ad0:	0002fc00 	.word	0x0002fc00
    3ad4:	19060c00 	.word	0x19060c00
    3ad8:	96020000 	.word	0x96020000
    3adc:	00000081 	.word	0x00000081
    3ae0:	0000088b 	.word	0x0000088b
    3ae4:	001b540c 	.word	0x001b540c
    3ae8:	5a960200 	.word	0x5a960200
    3aec:	bf000000 	.word	0xbf000000
    3af0:	0e000008 	.word	0x0e000008
    3af4:	00001bc8 	.word	0x00001bc8
    3af8:	01e39802 	.word	0x01e39802
    3afc:	55010000 	.word	0x55010000
    3b00:	6c617610 	.word	0x6c617610
    3b04:	41990200 	.word	0x41990200
    3b08:	f3000000 	.word	0xf3000000
    3b0c:	0d000008 	.word	0x0d000008
    3b10:	00001c0b 	.word	0x00001c0b
    3b14:	00419902 	.word	0x00419902
    3b18:	09320000 	.word	0x09320000
    3b1c:	7e0d0000 	.word	0x7e0d0000
    3b20:	02000014 	.word	0x02000014
    3b24:	00004199 	.word	0x00004199
    3b28:	00095000 	.word	0x00095000
    3b2c:	02481800 	.word	0x02481800
    3b30:	16b00000 	.word	0x16b00000
    3b34:	16ccf000 	.word	0x16ccf000
    3b38:	a002f000 	.word	0xa002f000
    3b3c:	00026419 	.word	0x00026419
    3b40:	02591900 	.word	0x02591900
    3b44:	00000000 	.word	0x00000000
    3b48:	1c2b0113 	.word	0x1c2b0113
    3b4c:	4d020000 	.word	0x4d020000
    3b50:	00005a01 	.word	0x00005a01
    3b54:	0017c800 	.word	0x0017c800
    3b58:	001844f0 	.word	0x001844f0
    3b5c:	00097cf0 	.word	0x00097cf0
    3b60:	00032900 	.word	0x00032900
    3b64:	147e0d00 	.word	0x147e0d00
    3b68:	4e020000 	.word	0x4e020000
    3b6c:	00000041 	.word	0x00000041
    3b70:	0000099b 	.word	0x0000099b
    3b74:	7d011300 	.word	0x7d011300
    3b78:	0200001b 	.word	0x0200001b
    3b7c:	005a0126 	.word	0x005a0126
    3b80:	18440000 	.word	0x18440000
    3b84:	18e0f000 	.word	0x18e0f000
    3b88:	09d2f000 	.word	0x09d2f000
    3b8c:	03750000 	.word	0x03750000
    3b90:	76110000 	.word	0x76110000
    3b94:	02006c61 	.word	0x02006c61
    3b98:	00004127 	.word	0x00004127
    3b9c:	1c0b1400 	.word	0x1c0b1400
    3ba0:	27020000 	.word	0x27020000
    3ba4:	00000041 	.word	0x00000041
    3ba8:	00147e0d 	.word	0x00147e0d
    3bac:	41270200 	.word	0x41270200
    3bb0:	f1000000 	.word	0xf1000000
    3bb4:	11000009 	.word	0x11000009
    3bb8:	28020069 	.word	0x28020069
    3bbc:	0000005a 	.word	0x0000005a
    3bc0:	00331a00 	.word	0x00331a00
    3bc4:	03850000 	.word	0x03850000
    3bc8:	7e1b0000 	.word	0x7e1b0000
    3bcc:	0f000000 	.word	0x0f000000
    3bd0:	1bfb0e00 	.word	0x1bfb0e00
    3bd4:	6b020000 	.word	0x6b020000
    3bd8:	00000396 	.word	0x00000396
    3bdc:	1e2c0305 	.word	0x1e2c0305
    3be0:	751cf000 	.word	0x751cf000
    3be4:	1a000003 	.word	0x1a000003
    3be8:	000000b8 	.word	0x000000b8
    3bec:	000003ab 	.word	0x000003ab
    3bf0:	00007e1b 	.word	0x00007e1b
    3bf4:	0e000500 	.word	0x0e000500
    3bf8:	00001bc2 	.word	0x00001bc2
    3bfc:	039b7102 	.word	0x039b7102
    3c00:	03050000 	.word	0x03050000
    3c04:	f0001ef8 	.word	0xf0001ef8
    3c08:	00053600 	.word	0x00053600
    3c0c:	a4000200 	.word	0xa4000200
    3c10:	0400000b 	.word	0x0400000b
    3c14:	0000e501 	.word	0x0000e501
    3c18:	1e290100 	.word	0x1e290100
    3c1c:	00820000 	.word	0x00820000
    3c20:	18e00000 	.word	0x18e00000
    3c24:	1ad0f000 	.word	0x1ad0f000
    3c28:	09dff000 	.word	0x09dff000
    3c2c:	04020000 	.word	0x04020000
    3c30:	00021507 	.word	0x00021507
    3c34:	08010200 	.word	0x08010200
    3c38:	000001b7 	.word	0x000001b7
    3c3c:	69050403 	.word	0x69050403
    3c40:	0200746e 	.word	0x0200746e
    3c44:	01b90601 	.word	0x01b90601
    3c48:	02020000 	.word	0x02020000
    3c4c:	0001c505 	.word	0x0001c505
    3c50:	07020200 	.word	0x07020200
    3c54:	0000026d 	.word	0x0000026d
    3c58:	000df904 	.word	0x000df904
    3c5c:	33190200 	.word	0x33190200
    3c60:	04000000 	.word	0x04000000
    3c64:	00000150 	.word	0x00000150
    3c68:	00251a02 	.word	0x00251a02
    3c6c:	08020000 	.word	0x08020000
    3c70:	00016705 	.word	0x00016705
    3c74:	07080200 	.word	0x07080200
    3c78:	0000020b 	.word	0x0000020b
    3c7c:	00005a05 	.word	0x00005a05
    3c80:	005a0600 	.word	0x005a0600
    3c84:	00880000 	.word	0x00880000
    3c88:	88070000 	.word	0x88070000
    3c8c:	03000000 	.word	0x03000000
    3c90:	07040800 	.word	0x07040800
    3c94:	001cff09 	.word	0x001cff09
    3c98:	03013000 	.word	0x03013000
    3c9c:	0003311a 	.word	0x0003311a
    3ca0:	1e060a00 	.word	0x1e060a00
    3ca4:	1c030000 	.word	0x1c030000
    3ca8:	00000073 	.word	0x00000073
    3cac:	0a002302 	.word	0x0a002302
    3cb0:	00001dd6 	.word	0x00001dd6
    3cb4:	00731d03 	.word	0x00731d03
    3cb8:	23020000 	.word	0x23020000
    3cbc:	0fc30a04 	.word	0x0fc30a04
    3cc0:	1e030000 	.word	0x1e030000
    3cc4:	00000341 	.word	0x00000341
    3cc8:	0a082302 	.word	0x0a082302
    3ccc:	00001e9a 	.word	0x00001e9a
    3cd0:	00732003 	.word	0x00732003
    3cd4:	23020000 	.word	0x23020000
    3cd8:	1d790a10 	.word	0x1d790a10
    3cdc:	21030000 	.word	0x21030000
    3ce0:	00000073 	.word	0x00000073
    3ce4:	0a142302 	.word	0x0a142302
    3ce8:	00001cd0 	.word	0x00001cd0
    3cec:	00732203 	.word	0x00732203
    3cf0:	23020000 	.word	0x23020000
    3cf4:	0fcd0a18 	.word	0x0fcd0a18
    3cf8:	23030000 	.word	0x23030000
    3cfc:	00000073 	.word	0x00000073
    3d00:	0a1c2302 	.word	0x0a1c2302
    3d04:	00001cc8 	.word	0x00001cc8
    3d08:	00732503 	.word	0x00732503
    3d0c:	23020000 	.word	0x23020000
    3d10:	1db50a20 	.word	0x1db50a20
    3d14:	26030000 	.word	0x26030000
    3d18:	00000073 	.word	0x00000073
    3d1c:	0a242302 	.word	0x0a242302
    3d20:	00001de6 	.word	0x00001de6
    3d24:	00732703 	.word	0x00732703
    3d28:	23020000 	.word	0x23020000
    3d2c:	0fd70a28 	.word	0x0fd70a28
    3d30:	28030000 	.word	0x28030000
    3d34:	00000073 	.word	0x00000073
    3d38:	0a2c2302 	.word	0x0a2c2302
    3d3c:	00001d4c 	.word	0x00001d4c
    3d40:	00732a03 	.word	0x00732a03
    3d44:	23020000 	.word	0x23020000
    3d48:	1cf40a30 	.word	0x1cf40a30
    3d4c:	2b030000 	.word	0x2b030000
    3d50:	00000073 	.word	0x00000073
    3d54:	0a342302 	.word	0x0a342302
    3d58:	00001d11 	.word	0x00001d11
    3d5c:	00732c03 	.word	0x00732c03
    3d60:	23020000 	.word	0x23020000
    3d64:	0fe10a38 	.word	0x0fe10a38
    3d68:	2d030000 	.word	0x2d030000
    3d6c:	00000073 	.word	0x00000073
    3d70:	0a3c2302 	.word	0x0a3c2302
    3d74:	00001dc7 	.word	0x00001dc7
    3d78:	00732f03 	.word	0x00732f03
    3d7c:	23020000 	.word	0x23020000
    3d80:	1e1e0a40 	.word	0x1e1e0a40
    3d84:	30030000 	.word	0x30030000
    3d88:	00000073 	.word	0x00000073
    3d8c:	0a442302 	.word	0x0a442302
    3d90:	00000feb 	.word	0x00000feb
    3d94:	03463103 	.word	0x03463103
    3d98:	23020000 	.word	0x23020000
    3d9c:	1ea20a48 	.word	0x1ea20a48
    3da0:	33030000 	.word	0x33030000
    3da4:	00000073 	.word	0x00000073
    3da8:	0a502302 	.word	0x0a502302
    3dac:	00001d1c 	.word	0x00001d1c
    3db0:	00733403 	.word	0x00733403
    3db4:	23020000 	.word	0x23020000
    3db8:	1d270a54 	.word	0x1d270a54
    3dbc:	35030000 	.word	0x35030000
    3dc0:	00000073 	.word	0x00000073
    3dc4:	0a582302 	.word	0x0a582302
    3dc8:	00001a07 	.word	0x00001a07
    3dcc:	00733603 	.word	0x00733603
    3dd0:	23020000 	.word	0x23020000
    3dd4:	1cec0a5c 	.word	0x1cec0a5c
    3dd8:	38030000 	.word	0x38030000
    3ddc:	00000073 	.word	0x00000073
    3de0:	0a602302 	.word	0x0a602302
    3de4:	00001e6b 	.word	0x00001e6b
    3de8:	00733903 	.word	0x00733903
    3dec:	23020000 	.word	0x23020000
    3df0:	1e880a64 	.word	0x1e880a64
    3df4:	3a030000 	.word	0x3a030000
    3df8:	00000073 	.word	0x00000073
    3dfc:	0a682302 	.word	0x0a682302
    3e00:	00001a11 	.word	0x00001a11
    3e04:	035b3b03 	.word	0x035b3b03
    3e08:	23020000 	.word	0x23020000
    3e0c:	1dcf0a6c 	.word	0x1dcf0a6c
    3e10:	3d030000 	.word	0x3d030000
    3e14:	00000073 	.word	0x00000073
    3e18:	01802303 	.word	0x01802303
    3e1c:	001e630a 	.word	0x001e630a
    3e20:	733e0300 	.word	0x733e0300
    3e24:	03000000 	.word	0x03000000
    3e28:	0a018423 	.word	0x0a018423
    3e2c:	00001c84 	.word	0x00001c84
    3e30:	00733f03 	.word	0x00733f03
    3e34:	23030000 	.word	0x23030000
    3e38:	c00a0188 	.word	0xc00a0188
    3e3c:	0300001d 	.word	0x0300001d
    3e40:	00007340 	.word	0x00007340
    3e44:	8c230300 	.word	0x8c230300
    3e48:	1c9f0a01 	.word	0x1c9f0a01
    3e4c:	42030000 	.word	0x42030000
    3e50:	00000073 	.word	0x00000073
    3e54:	01902303 	.word	0x01902303
    3e58:	001d710a 	.word	0x001d710a
    3e5c:	73430300 	.word	0x73430300
    3e60:	03000000 	.word	0x03000000
    3e64:	0a019423 	.word	0x0a019423
    3e68:	00001a1b 	.word	0x00001a1b
    3e6c:	03604403 	.word	0x03604403
    3e70:	23030000 	.word	0x23030000
    3e74:	ac0a0198 	.word	0xac0a0198
    3e78:	0300001d 	.word	0x0300001d
    3e7c:	00007346 	.word	0x00007346
    3e80:	a0230300 	.word	0xa0230300
    3e84:	1d840a01 	.word	0x1d840a01
    3e88:	47030000 	.word	0x47030000
    3e8c:	00000073 	.word	0x00000073
    3e90:	01a42303 	.word	0x01a42303
    3e94:	001d440a 	.word	0x001d440a
    3e98:	73480300 	.word	0x73480300
    3e9c:	03000000 	.word	0x03000000
    3ea0:	0a01a823 	.word	0x0a01a823
    3ea4:	00001d3a 	.word	0x00001d3a
    3ea8:	03754903 	.word	0x03754903
    3eac:	23030000 	.word	0x23030000
    3eb0:	a40a01ac 	.word	0xa40a01ac
    3eb4:	0300001d 	.word	0x0300001d
    3eb8:	0000734b 	.word	0x0000734b
    3ebc:	80230300 	.word	0x80230300
    3ec0:	1ca60a02 	.word	0x1ca60a02
    3ec4:	4c030000 	.word	0x4c030000
    3ec8:	00000073 	.word	0x00000073
    3ecc:	02842303 	.word	0x02842303
    3ed0:	001cad0a 	.word	0x001cad0a
    3ed4:	734d0300 	.word	0x734d0300
    3ed8:	03000000 	.word	0x03000000
    3edc:	0a028823 	.word	0x0a028823
    3ee0:	00001c97 	.word	0x00001c97
    3ee4:	00734e03 	.word	0x00734e03
    3ee8:	23030000 	.word	0x23030000
    3eec:	5e0a028c 	.word	0x5e0a028c
    3ef0:	0300001c 	.word	0x0300001c
    3ef4:	00007350 	.word	0x00007350
    3ef8:	90230300 	.word	0x90230300
    3efc:	1d320a02 	.word	0x1d320a02
    3f00:	51030000 	.word	0x51030000
    3f04:	00000073 	.word	0x00000073
    3f08:	02942303 	.word	0x02942303
    3f0c:	001c8c0a 	.word	0x001c8c0a
    3f10:	73520300 	.word	0x73520300
    3f14:	03000000 	.word	0x03000000
    3f18:	0a029823 	.word	0x0a029823
    3f1c:	00001c68 	.word	0x00001c68
    3f20:	00735303 	.word	0x00735303
    3f24:	23030000 	.word	0x23030000
    3f28:	dd0a029c 	.word	0xdd0a029c
    3f2c:	0300001d 	.word	0x0300001d
    3f30:	00037a55 	.word	0x00037a55
    3f34:	a0230300 	.word	0xa0230300
    3f38:	5a060002 	.word	0x5a060002
    3f3c:	41000000 	.word	0x41000000
    3f40:	07000003 	.word	0x07000003
    3f44:	00000088 	.word	0x00000088
    3f48:	31050001 	.word	0x31050001
    3f4c:	05000003 	.word	0x05000003
    3f50:	00000331 	.word	0x00000331
    3f54:	00005a06 	.word	0x00005a06
    3f58:	00035b00 	.word	0x00035b00
    3f5c:	00880700 	.word	0x00880700
    3f60:	00040000 	.word	0x00040000
    3f64:	00034b05 	.word	0x00034b05
    3f68:	03310500 	.word	0x03310500
    3f6c:	5a060000 	.word	0x5a060000
    3f70:	75000000 	.word	0x75000000
    3f74:	07000003 	.word	0x07000003
    3f78:	00000088 	.word	0x00000088
    3f7c:	65050014 	.word	0x65050014
    3f80:	05000003 	.word	0x05000003
    3f84:	00000078 	.word	0x00000078
    3f88:	001cb404 	.word	0x001cb404
    3f8c:	8b570300 	.word	0x8b570300
    3f90:	0b000000 	.word	0x0b000000
    3f94:	00001cdb 	.word	0x00001cdb
    3f98:	a35a0304 	.word	0xa35a0304
    3f9c:	0c000003 	.word	0x0c000003
    3fa0:	00001c4b 	.word	0x00001c4b
    3fa4:	1c740c00 	.word	0x1c740c00
    3fa8:	00010000 	.word	0x00010000
    3fac:	1d93010d 	.word	0x1d93010d
    3fb0:	4f010000 	.word	0x4f010000
    3fb4:	00004f01 	.word	0x00004f01
    3fb8:	0018e000 	.word	0x0018e000
    3fbc:	001928f0 	.word	0x001928f0
    3fc0:	000a28f0 	.word	0x000a28f0
    3fc4:	0003ca00 	.word	0x0003ca00
    3fc8:	00690e00 	.word	0x00690e00
    3fcc:	004f5001 	.word	0x004f5001
    3fd0:	0d000000 	.word	0x0d000000
    3fd4:	001e5301 	.word	0x001e5301
    3fd8:	016e0100 	.word	0x016e0100
    3fdc:	0000004f 	.word	0x0000004f
    3fe0:	f0001928 	.word	0xf0001928
    3fe4:	f000197c 	.word	0xf000197c
    3fe8:	00000a47 	.word	0x00000a47
    3fec:	000003f7 	.word	0x000003f7
    3ff0:	001d8c0f 	.word	0x001d8c0f
    3ff4:	5a6d0100 	.word	0x5a6d0100
    3ff8:	66000000 	.word	0x66000000
    3ffc:	0000000a 	.word	0x0000000a
    4000:	1e370110 	.word	0x1e370110
    4004:	8d010000 	.word	0x8d010000
    4008:	00197c01 	.word	0x00197c01
    400c:	0019a0f0 	.word	0x0019a0f0
    4010:	105d01f0 	.word	0x105d01f0
    4014:	001d5401 	.word	0x001d5401
    4018:	01a40100 	.word	0x01a40100
    401c:	f00019a0 	.word	0xf00019a0
    4020:	f00019c8 	.word	0xf00019c8
    4024:	01115d01 	.word	0x01115d01
    4028:	00001e76 	.word	0x00001e76
    402c:	4f01bb01 	.word	0x4f01bb01
    4030:	c8000000 	.word	0xc8000000
    4034:	f8f00019 	.word	0xf8f00019
    4038:	01f00019 	.word	0x01f00019
    403c:	0004535d 	.word	0x0004535d
    4040:	19060f00 	.word	0x19060f00
    4044:	ba010000 	.word	0xba010000
    4048:	0000038a 	.word	0x0000038a
    404c:	00000a79 	.word	0x00000a79
    4050:	0019a412 	.word	0x0019a412
    4054:	4fbc0100 	.word	0x4fbc0100
    4058:	00000000 	.word	0x00000000
    405c:	1df10113 	.word	0x1df10113
    4060:	e2010000 	.word	0xe2010000
    4064:	0019f801 	.word	0x0019f801
    4068:	001a4cf0 	.word	0x001a4cf0
    406c:	000a8cf0 	.word	0x000a8cf0
    4070:	00048400 	.word	0x00048400
    4074:	736d1400 	.word	0x736d1400
    4078:	33e10100 	.word	0x33e10100
    407c:	ab000000 	.word	0xab000000
    4080:	0e00000a 	.word	0x0e00000a
    4084:	e3010069 	.word	0xe3010069
    4088:	00000033 	.word	0x00000033
    408c:	0d010d00 	.word	0x0d010d00
    4090:	0100001e 	.word	0x0100001e
    4094:	004f0126 	.word	0x004f0126
    4098:	1a4c0000 	.word	0x1a4c0000
    409c:	1ad0f000 	.word	0x1ad0f000
    40a0:	0ac9f000 	.word	0x0ac9f000
    40a4:	04ab0000 	.word	0x04ab0000
    40a8:	690e0000 	.word	0x690e0000
    40ac:	4f270100 	.word	0x4f270100
    40b0:	00000000 	.word	0x00000000
    40b4:	001e9315 	.word	0x001e9315
    40b8:	bc130100 	.word	0xbc130100
    40bc:	05000004 	.word	0x05000004
    40c0:	00204803 	.word	0x00204803
    40c4:	7f0416f0 	.word	0x7f0416f0
    40c8:	15000003 	.word	0x15000003
    40cc:	00001e03 	.word	0x00001e03
    40d0:	005a1401 	.word	0x005a1401
    40d4:	03050000 	.word	0x03050000
    40d8:	f0002064 	.word	0xf0002064
    40dc:	001e9a15 	.word	0x001e9a15
    40e0:	5a140100 	.word	0x5a140100
    40e4:	05000000 	.word	0x05000000
    40e8:	00205403 	.word	0x00205403
    40ec:	1d7915f0 	.word	0x1d7915f0
    40f0:	14010000 	.word	0x14010000
    40f4:	0000005a 	.word	0x0000005a
    40f8:	204c0305 	.word	0x204c0305
    40fc:	d015f000 	.word	0xd015f000
    4100:	0100001c 	.word	0x0100001c
    4104:	00005a14 	.word	0x00005a14
    4108:	50030500 	.word	0x50030500
    410c:	15f00020 	.word	0x15f00020
    4110:	00001cc8 	.word	0x00001cc8
    4114:	005a1401 	.word	0x005a1401
    4118:	03050000 	.word	0x03050000
    411c:	f0002060 	.word	0xf0002060
    4120:	001db515 	.word	0x001db515
    4124:	5a140100 	.word	0x5a140100
    4128:	05000000 	.word	0x05000000
    412c:	00205803 	.word	0x00205803
    4130:	1de615f0 	.word	0x1de615f0
    4134:	14010000 	.word	0x14010000
    4138:	0000005a 	.word	0x0000005a
    413c:	205c0305 	.word	0x205c0305
    4140:	bc00f000 	.word	0xbc00f000
    4144:	02000002 	.word	0x02000002
    4148:	000ce100 	.word	0x000ce100
    414c:	e5010400 	.word	0xe5010400
    4150:	01000000 	.word	0x01000000
    4154:	00001f47 	.word	0x00001f47
    4158:	00000082 	.word	0x00000082
    415c:	f0001ad0 	.word	0xf0001ad0
    4160:	f0001e00 	.word	0xf0001e00
    4164:	00000abc 	.word	0x00000abc
    4168:	15070402 	.word	0x15070402
    416c:	02000002 	.word	0x02000002
    4170:	01b70801 	.word	0x01b70801
    4174:	04030000 	.word	0x04030000
    4178:	746e6905 	.word	0x746e6905
    417c:	06010200 	.word	0x06010200
    4180:	000001b9 	.word	0x000001b9
    4184:	001bf604 	.word	0x001bf604
    4188:	2c160200 	.word	0x2c160200
    418c:	02000000 	.word	0x02000000
    4190:	01c50502 	.word	0x01c50502
    4194:	02020000 	.word	0x02020000
    4198:	00026d07 	.word	0x00026d07
    419c:	0df90400 	.word	0x0df90400
    41a0:	19020000 	.word	0x19020000
    41a4:	00000033 	.word	0x00000033
    41a8:	00015004 	.word	0x00015004
    41ac:	251a0200 	.word	0x251a0200
    41b0:	02000000 	.word	0x02000000
    41b4:	01670508 	.word	0x01670508
    41b8:	08020000 	.word	0x08020000
    41bc:	00020b07 	.word	0x00020b07
    41c0:	07040500 	.word	0x07040500
    41c4:	001f9106 	.word	0x001f9106
    41c8:	1a032400 	.word	0x1a032400
    41cc:	0000010c 	.word	0x0000010c
    41d0:	001f9e07 	.word	0x001f9e07
    41d4:	0c1b0300 	.word	0x0c1b0300
    41d8:	02000001 	.word	0x02000001
    41dc:	2f070023 	.word	0x2f070023
    41e0:	0300001f 	.word	0x0300001f
    41e4:	00010c1c 	.word	0x00010c1c
    41e8:	04230200 	.word	0x04230200
    41ec:	001f0807 	.word	0x001f0807
    41f0:	0c1d0300 	.word	0x0c1d0300
    41f4:	02000001 	.word	0x02000001
    41f8:	78070823 	.word	0x78070823
    41fc:	0300001f 	.word	0x0300001f
    4200:	00010c1e 	.word	0x00010c1e
    4204:	0c230200 	.word	0x0c230200
    4208:	001fb107 	.word	0x001fb107
    420c:	0c1f0300 	.word	0x0c1f0300
    4210:	02000001 	.word	0x02000001
    4214:	ff071023 	.word	0xff071023
    4218:	0300001e 	.word	0x0300001e
    421c:	00010c20 	.word	0x00010c20
    4220:	14230200 	.word	0x14230200
    4224:	001ec807 	.word	0x001ec807
    4228:	0c210300 	.word	0x0c210300
    422c:	02000001 	.word	0x02000001
    4230:	aa071823 	.word	0xaa071823
    4234:	0300001e 	.word	0x0300001e
    4238:	00010c22 	.word	0x00010c22
    423c:	1c230200 	.word	0x1c230200
    4240:	001fa807 	.word	0x001fa807
    4244:	0c230300 	.word	0x0c230300
    4248:	02000001 	.word	0x02000001
    424c:	08002023 	.word	0x08002023
    4250:	00000025 	.word	0x00000025
    4254:	001ef204 	.word	0x001ef204
    4258:	81250300 	.word	0x81250300
    425c:	09000000 	.word	0x09000000
    4260:	00001be0 	.word	0x00001be0
    4264:	35290304 	.word	0x35290304
    4268:	0a000001 	.word	0x0a000001
    426c:	00001bd6 	.word	0x00001bd6
    4270:	1b900a00 	.word	0x1b900a00
    4274:	00010000 	.word	0x00010000
    4278:	1f80010b 	.word	0x1f80010b
    427c:	2f010000 	.word	0x2f010000
    4280:	00005a01 	.word	0x00005a01
    4284:	001ad000 	.word	0x001ad000
    4288:	001b14f0 	.word	0x001b14f0
    428c:	605d01f0 	.word	0x605d01f0
    4290:	0c000001 	.word	0x0c000001
    4294:	00001ee4 	.word	0x00001ee4
    4298:	00332e01 	.word	0x00332e01
    429c:	0ae80000 	.word	0x0ae80000
    42a0:	0d000000 	.word	0x0d000000
    42a4:	00001ed2 	.word	0x00001ed2
    42a8:	33016201 	.word	0x33016201
    42ac:	01000000 	.word	0x01000000
    42b0:	00000188 	.word	0x00000188
    42b4:	001ebf0e 	.word	0x001ebf0e
    42b8:	25630100 	.word	0x25630100
    42bc:	0e000000 	.word	0x0e000000
    42c0:	00001f70 	.word	0x00001f70
    42c4:	00256401 	.word	0x00256401
    42c8:	0f000000 	.word	0x0f000000
    42cc:	001f5501 	.word	0x001f5501
    42d0:	01940100 	.word	0x01940100
    42d4:	0000005a 	.word	0x0000005a
    42d8:	f0001b14 	.word	0xf0001b14
    42dc:	f0001dbc 	.word	0xf0001dbc
    42e0:	00000afb 	.word	0x00000afb
    42e4:	00000241 	.word	0x00000241
    42e8:	00706f10 	.word	0x00706f10
    42ec:	011c9301 	.word	0x011c9301
    42f0:	0b1a0000 	.word	0x0b1a0000
    42f4:	a20c0000 	.word	0xa20c0000
    42f8:	0100001f 	.word	0x0100001f
    42fc:	00004193 	.word	0x00004193
    4300:	000b3800 	.word	0x000b3800
    4304:	1f610c00 	.word	0x1f610c00
    4308:	93010000 	.word	0x93010000
    430c:	00000041 	.word	0x00000041
    4310:	00000b56 	.word	0x00000b56
    4314:	001c060c 	.word	0x001c060c
    4318:	41930100 	.word	0x41930100
    431c:	8a000002 	.word	0x8a000002
    4320:	0e00000b 	.word	0x0e00000b
    4324:	00001fbc 	.word	0x00001fbc
    4328:	002c9501 	.word	0x002c9501
    432c:	70110000 	.word	0x70110000
    4330:	0100001f 	.word	0x0100001f
    4334:	00002596 	.word	0x00002596
    4338:	000ba800 	.word	0x000ba800
    433c:	65721200 	.word	0x65721200
    4340:	97010074 	.word	0x97010074
    4344:	00000033 	.word	0x00000033
    4348:	00000bbb 	.word	0x00000bbb
    434c:	001f6713 	.word	0x001f6713
    4350:	01140100 	.word	0x01140100
    4354:	f0001d38 	.word	0xf0001d38
    4358:	00016014 	.word	0x00016014
    435c:	001d3c00 	.word	0x001d3c00
    4360:	001db4f0 	.word	0x001db4f0
    4364:	011701f0 	.word	0x011701f0
    4368:	001d3c15 	.word	0x001d3c15
    436c:	001db4f0 	.word	0x001db4f0
    4370:	017116f0 	.word	0x017116f0
    4374:	0bce0000 	.word	0x0bce0000
    4378:	7c170000 	.word	0x7c170000
    437c:	01000001 	.word	0x01000001
    4380:	00000052 	.word	0x00000052
    4384:	00410418 	.word	0x00410418
    4388:	01190000 	.word	0x01190000
    438c:	00001f1e 	.word	0x00001f1e
    4390:	5a014701 	.word	0x5a014701
    4394:	bc000000 	.word	0xbc000000
    4398:	00f0001d 	.word	0x00f0001d
    439c:	e1f0001e 	.word	0xe1f0001e
    43a0:	1a00000b 	.word	0x1a00000b
    43a4:	00000270 	.word	0x00000270
    43a8:	00000270 	.word	0x00000270
    43ac:	00007e1b 	.word	0x00007e1b
    43b0:	18000200 	.word	0x18000200
    43b4:	00011104 	.word	0x00011104
    43b8:	1f111c00 	.word	0x1f111c00
    43bc:	16010000 	.word	0x16010000
    43c0:	00000287 	.word	0x00000287
    43c4:	1e6c0305 	.word	0x1e6c0305
    43c8:	601df000 	.word	0x601df000
    43cc:	1c000002 	.word	0x1c000002
    43d0:	00001f3a 	.word	0x00001f3a
    43d4:	00651c01 	.word	0x00651c01
    43d8:	03050000 	.word	0x03050000
    43dc:	f000206c 	.word	0xf000206c
    43e0:	001eb21c 	.word	0x001eb21c
    43e4:	651d0100 	.word	0x651d0100
    43e8:	05000000 	.word	0x05000000
    43ec:	00207003 	.word	0x00207003
    43f0:	1eea1cf0 	.word	0x1eea1cf0
    43f4:	1e010000 	.word	0x1e010000
    43f8:	00000270 	.word	0x00000270
    43fc:	20680305 	.word	0x20680305
    4400:	e300f000 	.word	0xe300f000
    4404:	02000000 	.word	0x02000000
    4408:	000e6b00 	.word	0x000e6b00
    440c:	e5010400 	.word	0xe5010400
    4410:	01000000 	.word	0x01000000
    4414:	00001fc6 	.word	0x00001fc6
    4418:	00000082 	.word	0x00000082
    441c:	f0001e00 	.word	0xf0001e00
    4420:	f0001e20 	.word	0xf0001e20
    4424:	00000b84 	.word	0x00000b84
    4428:	15070402 	.word	0x15070402
    442c:	02000002 	.word	0x02000002
    4430:	01b70801 	.word	0x01b70801
    4434:	04030000 	.word	0x04030000
    4438:	746e6905 	.word	0x746e6905
    443c:	06010200 	.word	0x06010200
    4440:	000001b9 	.word	0x000001b9
    4444:	c5050202 	.word	0xc5050202
    4448:	02000001 	.word	0x02000001
    444c:	026d0702 	.word	0x026d0702
    4450:	f9040000 	.word	0xf9040000
    4454:	0200000d 	.word	0x0200000d
    4458:	00003319 	.word	0x00003319
    445c:	01500400 	.word	0x01500400
    4460:	1a020000 	.word	0x1a020000
    4464:	00000025 	.word	0x00000025
    4468:	67050802 	.word	0x67050802
    446c:	02000001 	.word	0x02000001
    4470:	020b0708 	.word	0x020b0708
    4474:	04050000 	.word	0x04050000
    4478:	1a010607 	.word	0x1a010607
    447c:	01000020 	.word	0x01000020
    4480:	004f0127 	.word	0x004f0127
    4484:	1e000000 	.word	0x1e000000
    4488:	1e08f000 	.word	0x1e08f000
    448c:	5d01f000 	.word	0x5d01f000
    4490:	1fd40106 	.word	0x1fd40106
    4494:	38010000 	.word	0x38010000
    4498:	00004f01 	.word	0x00004f01
    449c:	001e0800 	.word	0x001e0800
    44a0:	001e10f0 	.word	0x001e10f0
    44a4:	075d01f0 	.word	0x075d01f0
    44a8:	001fe501 	.word	0x001fe501
    44ac:	014c0100 	.word	0x014c0100
    44b0:	0000004f 	.word	0x0000004f
    44b4:	f0001e10 	.word	0xf0001e10
    44b8:	f0001e18 	.word	0xf0001e18
    44bc:	00cf5d01 	.word	0x00cf5d01
    44c0:	5a080000 	.word	0x5a080000
    44c4:	01000001 	.word	0x01000001
    44c8:	00005a4b 	.word	0x00005a4b
    44cc:	000c0000 	.word	0x000c0000
    44d0:	01060000 	.word	0x01060000
    44d4:	00002002 	.word	0x00002002
    44d8:	4f015f01 	.word	0x4f015f01
    44dc:	18000000 	.word	0x18000000
    44e0:	20f0001e 	.word	0x20f0001e
    44e4:	01f0001e 	.word	0x01f0001e
    44e8:	0093005d 	.word	0x0093005d
    44ec:	00020000 	.word	0x00020000
    44f0:	00000eea 	.word	0x00000eea
    44f4:	0bda0104 	.word	0x0bda0104
    44f8:	1e200000 	.word	0x1e200000
    44fc:	1e2cf000 	.word	0x1e2cf000
    4500:	7473f000 	.word	0x7473f000
    4504:	62646e61 	.word	0x62646e61
    4508:	65645f79 	.word	0x65645f79
    450c:	2e79616c 	.word	0x2e79616c
    4510:	6d2f0053 	.word	0x6d2f0053
    4514:	61696465 	.word	0x61696465
    4518:	3762332f 	.word	0x3762332f
    451c:	37626361 	.word	0x37626361
    4520:	33392d39 	.word	0x33392d39
    4524:	342d3338 	.word	0x342d3338
    4528:	2d663863 	.word	0x2d663863
    452c:	36333338 	.word	0x36333338
    4530:	3032352d 	.word	0x3032352d
    4534:	63626434 	.word	0x63626434
    4538:	34633261 	.word	0x34633261
    453c:	696c2f61 	.word	0x696c2f61
    4540:	2d78756e 	.word	0x2d78756e
    4544:	2e362e32 	.word	0x2e362e32
    4548:	732d3633 	.word	0x732d3633
    454c:	69346e75 	.word	0x69346e75
    4550:	6372612f 	.word	0x6372612f
    4554:	72612f68 	.word	0x72612f68
    4558:	616d2f6d 	.word	0x616d2f6d
    455c:	732d6863 	.word	0x732d6863
    4560:	69346e75 	.word	0x69346e75
    4564:	2f6d702f 	.word	0x2f6d702f
    4568:	6e617473 	.word	0x6e617473
    456c:	00796264 	.word	0x00796264
    4570:	20554e47 	.word	0x20554e47
    4574:	32205341 	.word	0x32205341
    4578:	2e39312e 	.word	0x2e39312e
    457c:	01003135 	.word	0x01003135
    4580:	Address 0x00004580 is out of bounds.


Disassembly of section .debug_line:

00000000 <.debug_line>:
   0:	0000014d 	andeq	r0, r0, sp, asr #2
   4:	00c10002 	sbceq	r0, r1, r2
   8:	01020000 	tsteq	r2, r0
   c:	000d0efb 	strdeq	r0, [sp], -fp
  10:	01010101 	tsteq	r1, r1, lsl #2
  14:	01000000 	tsteq	r0, r0
  18:	2f010000 	svccs	0x00010000
  1c:	6964656d 	stmdbvs	r4!, {r0, r2, r3, r5, r6, r8, sl, sp, lr}^
  20:	62332f61 	eorsvs	r2, r3, #388	; 0x184
  24:	62636137 	rsbvs	r6, r3, #-1073741811	; 0xc000000d
  28:	392d3937 	pushcc	{r0, r1, r2, r4, r5, r8, fp, ip, sp}
  2c:	2d333833 	ldccs	8, cr3, [r3, #-204]!
  30:	66386334 	undefined
  34:	3333382d 	teqcc	r3, #2949120	; 0x2d0000
  38:	32352d36 	eorscc	r2, r5, #3456	; 0xd80
  3c:	62643430 	rsbvs	r3, r4, #805306368	; 0x30000000
  40:	63326163 	teqvs	r2, #-1073741800	; 0xc0000018
  44:	6c2f6134 	stfvss	f6, [pc], #-208
  48:	78756e69 	ldmdavc	r5!, {r0, r3, r5, r6, r9, sl, fp, sp, lr}^
  4c:	362e322d 	strtcc	r3, [lr], -sp, lsr #4
  50:	2d36332e 	ldccs	3, cr3, [r6, #-184]!
  54:	346e7573 	strbtcc	r7, [lr], #-1395
  58:	6e692f69 	cdpvs	15, 6, cr2, cr9, cr9, {3}
  5c:	64756c63 	ldrbtvs	r6, [r5], #-3171
  60:	696c2f65 	stmdbvs	ip!, {r0, r2, r5, r6, r8, r9, sl, fp, sp}^
  64:	2f78756e 	svccs	0x0078756e
  68:	65776f70 	ldrbvs	r6, [r7, #-3952]!
  6c:	73000072 	movwvc	r0, #114	; 0x72
  70:	646e6174 	strbtvs	r6, [lr], #-372
  74:	632e7962 	teqvs	lr, #1605632	; 0x188000
  78:	00000000 	andeq	r0, r0, r0
  7c:	705f7761 	subsvc	r7, pc, r1, ror #14
  80:	00682e6d 	rsbeq	r2, r8, sp, ror #28
  84:	73000001 	movwvc	r0, #1	; 0x1
  88:	646e6174 	strbtvs	r6, [lr], #-372
  8c:	635f7962 	cmpvs	pc, #1605632	; 0x188000
  90:	6b636f6c 	blvs	18dbe48 <__standby_start+0x18dbe48>
  94:	0000682e 	andeq	r6, r0, lr, lsr #16
  98:	74730000 	ldrbtvc	r0, [r3]
  9c:	62646e61 	rsbvs	r6, r4, #1552	; 0x610
  a0:	6f705f79 	svcvs	0x00705f79
  a4:	2e726577 	mrccs	5, 3, r6, cr2, cr7, {3}
  a8:	00000068 	andeq	r0, r0, r8, rrx
  ac:	61747300 	cmnvs	r4, r0, lsl #6
  b0:	7962646e 	stmdbvc	r2!, {r1, r2, r3, r5, r6, sl, sp, lr}^
  b4:	746e695f 	strbtvc	r6, [lr], #-2399
  b8:	0000682e 	andeq	r6, r0, lr, lsr #16
  bc:	6f630000 	svcvs	0x00630000
  c0:	6e6f6d6d 	cdpvs	13, 6, cr6, cr15, cr13, {3}
  c4:	0000682e 	andeq	r6, r0, lr, lsr #16
  c8:	00000000 	andeq	r0, r0, r0
  cc:	00000205 	andeq	r0, r0, r5, lsl #4
  d0:	3803f000 	stmdacc	r3, {ip, sp, lr, pc}
  d4:	03643101 	cmneq	r4, #1073741824	; 0x40000000
  d8:	31302e09 	teqcc	r0, r9, lsl #28
  dc:	89a0a0a1 	stmibhi	r0!, {r0, r5, r7, sp, pc}
  e0:	302f2f2f 	eorcc	r2, pc, pc, lsr #30
  e4:	2f834c67 	svccs	0x00834c67
  e8:	4b2f834c 	blmi	be0e20 <__standby_start+0xbe0e20>
  ec:	834c844c 	movthi	r8, #50252	; 0xc44c
  f0:	67844c2f 	strvs	r4, [r4, pc, lsr #24]
  f4:	03684f2f 	cmneq	r8, #188	; 0xbc
  f8:	2f4d2e37 	svccs	0x004d2e37
  fc:	2b4d6731 	blcs	1359dc8 <__standby_start+0x1359dc8>
 100:	4b694b31 	blmi	1a52dcc <__standby_start+0x1a52dcc>
 104:	2f308330 	svccs	0x00308330
 108:	322f314c 	eorcc	r3, pc, #19	; 0x13
 10c:	0c033032 	stceq	0, cr3, [r3], {50}
 110:	2e74032e 	cdpcs	3, 7, cr0, cr4, cr14, {1}
 114:	304d2f2f 	subcc	r2, sp, pc, lsr #30
 118:	2d2f4d30 	stccs	13, cr4, [pc, #-192]!
 11c:	2f2d672f 	svccs	0x002d672f
 120:	4b832d4b 	blmi	fe0cb654 <__bss_end+0xe0c95cc>
 124:	2d4b832d 	stclcs	3, cr8, [fp, #-180]
 128:	832d4b83 	teqhi	sp, #134144	; 0x20c00
 12c:	2b312b31 	blcs	c4adf8 <__standby_start+0xc4adf8>
 130:	4d672f85 	stclmi	15, cr2, [r7, #-532]!
 134:	4d2f4c2f 	stcmi	12, cr4, [pc, #-188]!
 138:	4a7f8603 	bmi	1fe194c <__standby_start+0x1fe194c>
 13c:	4d313030 	ldcmi	0, cr3, [r1, #-192]!
 140:	33833067 	orrcc	r3, r3, #103	; 0x67
 144:	2f2f3083 	svccs	0x002f3083
 148:	8585312f 	strhi	r3, [r5, #303]
 14c:	01000e02 	tsteq	r0, r2, lsl #28
 150:	00005e01 	andeq	r5, r0, r1, lsl #28
 154:	3e000200 	cdpcc	2, 0, cr0, cr0, cr0, {0}
 158:	02000000 	andeq	r0, r0, #0	; 0x0
 15c:	0d0efb01 	vstreq	d15, [lr, #-4]
 160:	01010100 	tsteq	r1, r0, lsl #2
 164:	00000001 	andeq	r0, r0, r1
 168:	01000001 	tsteq	r0, r1
 16c:	6d6f6300 	stclvs	3, cr6, [pc]
 170:	2e6e6f6d 	cdpcs	15, 6, cr6, cr14, cr13, {3}
 174:	00000063 	andeq	r0, r0, r3, rrx
 178:	6d6f6300 	stclvs	3, cr6, [pc]
 17c:	2e6e6f6d 	cdpcs	15, 6, cr6, cr14, cr13, {3}
 180:	00000068 	andeq	r0, r0, r8, rrx
 184:	61747300 	cmnvs	r4, r0, lsl #6
 188:	7962646e 	stmdbvc	r2!, {r1, r2, r3, r5, r6, sl, sp, lr}^
 18c:	6f6c635f 	svcvs	0x006c635f
 190:	682e6b63 	stmdavs	lr!, {r0, r1, r5, r6, r8, r9, fp, sp, lr}
 194:	00000000 	andeq	r0, r0, r0
 198:	02050000 	andeq	r0, r5, #0	; 0x0
 19c:	f0000360 	undefined instruction 0xf0000360
 1a0:	16012303 	strne	r2, [r1], -r3, lsl #6
 1a4:	49502c84 	ldmdbmi	r0, {r2, r7, sl, fp, sp}^
 1a8:	139e1703 	orrsne	r1, lr, #786432	; 0xc0000
 1ac:	04021167 	streq	r1, [r2], #-359
 1b0:	6a010100 	bvs	405b8 <__standby_start+0x405b8>
 1b4:	02000000 	andeq	r0, r0, #0	; 0x0
 1b8:	00001e00 	andeq	r1, r0, r0, lsl #28
 1bc:	fb010200 	blx	409c6 <__standby_start+0x409c6>
 1c0:	01000d0e 	tsteq	r0, lr, lsl #26
 1c4:	00010101 	andeq	r0, r1, r1, lsl #2
 1c8:	00010000 	andeq	r0, r1, r0
 1cc:	73000100 	movwvc	r0, #256	; 0x100
 1d0:	6b636174 	blvs	18d87a8 <__standby_start+0x18d87a8>
 1d4:	0000532e 	andeq	r5, r0, lr, lsr #6
 1d8:	00000000 	andeq	r0, r0, r0
 1dc:	03ac0205 	undefined instruction 0x03ac0205
 1e0:	2f1af000 	svccs	0x001af000
 1e4:	342f332f 	strtcc	r3, [pc], #815	; 1ec <__standby_start+0x1ec>
 1e8:	332f2f30 	teqcc	pc, #192	; 0xc0
 1ec:	2f2f2f30 	svccs	0x002f2f30
 1f0:	2f2f2f2f 	svccs	0x002f2f2f
 1f4:	2f2f2f2f 	svccs	0x002f2f2f
 1f8:	2f302f2f 	svccs	0x00302f2f
 1fc:	2f2f2f2f 	svccs	0x002f2f2f
 200:	2f2f2f2f 	svccs	0x002f2f2f
 204:	2f2f2f2f 	svccs	0x002f2f2f
 208:	2f312f2f 	svccs	0x00312f2f
 20c:	2f2f2f2f 	svccs	0x002f2f2f
 210:	2f2f2f2f 	svccs	0x002f2f2f
 214:	2f2f2f2f 	svccs	0x002f2f2f
 218:	2f302f2f 	svccs	0x00302f2f
 21c:	01002002 	tsteq	r0, r2
 220:	00018901 	andeq	r8, r1, r1, lsl #18
 224:	b4000200 	strlt	r0, [r0], #-512
 228:	02000000 	andeq	r0, r0, #0	; 0x0
 22c:	0d0efb01 	vstreq	d15, [lr, #-4]
 230:	01010100 	tsteq	r1, r0, lsl #2
 234:	00000001 	andeq	r0, r0, r1
 238:	01000001 	tsteq	r0, r1
 23c:	64656d2f 	strbtvs	r6, [r5], #-3375
 240:	332f6169 	teqcc	pc, #1073741850	; 0x4000001a
 244:	63613762 	cmnvs	r1, #25690112	; 0x1880000
 248:	2d393762 	ldccs	7, cr3, [r9, #-392]!
 24c:	33383339 	teqcc	r8, #-469762048	; 0xe4000000
 250:	3863342d 	stmdacc	r3!, {r0, r2, r3, r5, sl, ip, sp}^
 254:	33382d66 	teqcc	r8, #6528	; 0x1980
 258:	352d3633 	strcc	r3, [sp, #-1587]!
 25c:	64343032 	ldrtvs	r3, [r4], #-50
 260:	32616362 	rsbcc	r6, r1, #-2013265919	; 0x88000001
 264:	2f613463 	svccs	0x00613463
 268:	756e696c 	strbvc	r6, [lr, #-2412]!
 26c:	2e322d78 	mrccs	13, 1, r2, cr2, cr8, {3}
 270:	36332e36 	undefined
 274:	6e75732d 	cdpvs	3, 7, cr7, cr5, cr13, {1}
 278:	612f6934 	teqvs	pc, r4, lsr r9
 27c:	2f686372 	svccs	0x00686372
 280:	2f6d7261 	svccs	0x006d7261
 284:	6863616d 	stmdavs	r3!, {r0, r2, r3, r5, r6, r8, sp, lr}^
 288:	6e75732d 	cdpvs	3, 7, cr7, cr5, cr13, {1}
 28c:	692f6934 	stmdbvs	pc!, {r2, r4, r5, r8, fp, sp, lr}
 290:	756c636e 	strbvc	r6, [ip, #-878]!
 294:	6d2f6564 	cfstr32vs	mvfx6, [pc, #-400]!
 298:	00686361 	rsbeq	r6, r8, r1, ror #6
 29c:	61747300 	cmnvs	r4, r0, lsl #6
 2a0:	7962646e 	stmdbvc	r2!, {r1, r2, r3, r5, r6, sl, sp, lr}^
 2a4:	6f6c635f 	svcvs	0x006c635f
 2a8:	632e6b63 	teqvs	lr, #101376	; 0x18c00
 2ac:	00000000 	andeq	r0, r0, r0
 2b0:	6d6d6f63 	stclvs	15, cr6, [sp, #-396]!
 2b4:	682e6e6f 	stmdavs	lr!, {r0, r1, r2, r3, r5, r6, r9, sl, fp, sp, lr}
 2b8:	00000000 	andeq	r0, r0, r0
 2bc:	756d6363 	strbvc	r6, [sp, #-867]!
 2c0:	6765725f 	undefined
 2c4:	00682e73 	rsbeq	r2, r8, r3, ror lr
 2c8:	73000001 	movwvc	r0, #1	; 0x1
 2cc:	646e6174 	strbtvs	r6, [lr], #-372
 2d0:	635f7962 	cmpvs	pc, #1605632	; 0x188000
 2d4:	6b636f6c 	blvs	18dc08c <__standby_start+0x18dc08c>
 2d8:	0000682e 	andeq	r6, r0, lr, lsr #16
 2dc:	00000000 	andeq	r0, r0, r0
 2e0:	04d00205 	ldrbeq	r0, [r0], #517
 2e4:	2f03f000 	svccs	0x0003f000
 2e8:	032a3301 	teqeq	sl, #67108864	; 0x4000000
 2ec:	03312e0c 	teqeq	r1, #192	; 0xc0
 2f0:	2f2f2e74 	svccs	0x002f2e74
 2f4:	4b4b4b4b 	blmi	12d3028 <__standby_start+0x12d3028>
 2f8:	034a7703 	movteq	r7, #42755	; 0xa703
 2fc:	03312e09 	teqeq	r1, #144	; 0x90
 300:	362f2e77 	undefined
 304:	2f2e7903 	svccs	0x002e7903
 308:	78032f2f 	stmdavc	r3, {r0, r1, r2, r3, r5, r8, r9, sl, fp, sp}
 30c:	2e0f032e 	cdpcs	3, 0, cr0, cr15, cr14, {1}
 310:	149e1203 	ldrne	r1, [lr], #515
 314:	032e0903 	teqeq	lr, #49152	; 0xc000
 318:	4b4b2e77 	blmi	12cbcfc <__standby_start+0x12cbcfc>
 31c:	4b4b4b4b 	blmi	12d3050 <__standby_start+0x12d3050>
 320:	4a0f034d 	bmi	3c105c <__standby_start+0x3c105c>
 324:	84293313 	strthi	r3, [r9], #-787
 328:	660f0369 	strvs	r0, [pc], -r9, ror #6
 32c:	84294f13 	strthi	r4, [r9], #-3859
 330:	660f0369 	strvs	r0, [pc], -r9, ror #6
 334:	84294f13 	strthi	r4, [r9], #-3859
 338:	660f0369 	strvs	r0, [pc], -r9, ror #6
 33c:	2e090313 	mcrcs	3, 0, r0, cr9, cr3, {0}
 340:	832e7703 	teqhi	lr, #786432	; 0xc0000
 344:	67676767 	strbvs	r6, [r7, -r7, ror #14]!
 348:	0f036967 	svceq	0x00036967
 34c:	0903134a 	stmdbeq	r3, {r1, r3, r6, r8, r9, ip}
 350:	2e77032e 	cdpcs	3, 7, cr0, cr7, cr14, {1}
 354:	67676783 	strbvs	r6, [r7, -r3, lsl #15]!
 358:	03696767 	cmneq	r9, #27000832	; 0x19c0000
 35c:	30134a0f 	andscc	r4, r3, pc, lsl #20
 360:	0f03842c 	svceq	0x0003842c
 364:	2c30134a 	ldccs	3, cr1, [r0], #-296
 368:	4a0f0384 	bmi	3c1180 <__standby_start+0x3c1180>
 36c:	83294f13 	teqhi	r9, #76	; 0x4c
 370:	03686767 	cmneq	r8, #27000832	; 0x19c0000
 374:	4f134a0f 	svcmi	0x00134a0f
 378:	67678329 	strbvs	r8, [r7, -r9, lsr #6]!
 37c:	4a0f0368 	bmi	3c1124 <__standby_start+0x3c1124>
 380:	2c306b13 	ldccs	11, cr6, [r0], #-76
 384:	03a19fbb 	undefined instruction 0x03a19fbb
 388:	6b13660f 	blvs	4d9bcc <__standby_start+0x4d9bcc>
 38c:	83bb2c30 	undefined instruction 0x83bb2c30
 390:	660f0385 	strvs	r0, [pc], -r5, lsl #7
 394:	2b312f2f 	blcs	c4c058 <__standby_start+0xc4c058>
 398:	03312b31 	teqeq	r1, #50176	; 0xc400
 39c:	4c138211 	lfmmi	f0, 1, [r3], {17}
 3a0:	0f03842c 	svceq	0x0003842c
 3a4:	2c30134a 	ldccs	3, cr1, [r0], #-296
 3a8:	00040284 	andeq	r0, r4, r4, lsl #5
 3ac:	01590101 	cmpeq	r9, r1, lsl #2
 3b0:	00020000 	andeq	r0, r2, r0
 3b4:	00000038 	andeq	r0, r0, r8, lsr r0
 3b8:	0efb0102 	cdpeq	1, 15, cr0, cr11, cr2, {0}
 3bc:	0101000d 	tsteq	r1, sp
 3c0:	00000101 	andeq	r0, r0, r1, lsl #2
 3c4:	00000100 	andeq	r0, r0, r0, lsl #2
 3c8:	61726401 	cmnvs	r2, r1, lsl #8
 3cc:	7264006d 	rsbvc	r0, r4, #109	; 0x6d
 3d0:	2e2f6d61 	cdpcs	13, 2, cr6, cr15, cr1, {3}
 3d4:	002e2e2f 	eoreq	r2, lr, pc, lsr #28
 3d8:	61726400 	cmnvs	r2, r0, lsl #8
 3dc:	00632e6d 	rsbeq	r2, r3, sp, ror #28
 3e0:	63000001 	movwvs	r0, #1	; 0x1
 3e4:	6f6d6d6f 	svcvs	0x006d6d6f
 3e8:	00682e6e 	rsbeq	r2, r8, lr, ror #28
 3ec:	00000002 	andeq	r0, r0, r2
 3f0:	fc020500 	stc2	5, cr0, [r2], {0}
 3f4:	03f00008 	mvnseq	r0, #8	; 0x8
 3f8:	150101a2 	strne	r0, [r1, #-418]
 3fc:	4c2d4b4c 	stcmi	11, cr4, [sp], #-304
 400:	12032f30 	andne	r2, r3, #192	; 0xc0
 404:	2c301566 	cfldr32cs	mvfx1, [r0], #-408
 408:	03502f30 	cmpeq	r0, #192	; 0xc0
 40c:	2b154a11 	blcs	552c58 <__standby_start+0x552c58>
 410:	4c30314a 	ldfmis	f3, [r0], #-296
 414:	30322a30 	eorscc	r2, r2, r0, lsr sl
 418:	2f2e7a03 	svccs	0x002e7a03
 41c:	2f2f2f2f 	svccs	0x002f2f2f
 420:	c6032f2f 	strgt	r2, [r3], -pc, lsr #30
 424:	11146601 	tstne	r4, r1, lsl #12
 428:	33111433 	tstcc	r1, #855638016	; 0x33000000
 42c:	c2031114 	andgt	r1, r3, #5	; 0x5
 430:	31322e7e 	teqcc	r2, lr, ror lr
 434:	2f2f2f2b 	svccs	0x002f2f2b
 438:	2f2f2f30 	svccs	0x002f2f30
 43c:	4a7ef703 	bmi	1fbe050 <__standby_start+0x1fbe050>
 440:	2f2f4b16 	svccs	0x002f4b16
 444:	112f8331 	teqne	pc, r1, lsr r3
 448:	4a029703 	bmi	a605c <__standby_start+0xa605c>
 44c:	a5031114 	strge	r1, [r3, #-276]
 450:	4b162e7d 	blmi	58be4c <__standby_start+0x58be4c>
 454:	83312f2f 	teqhi	r1, #188	; 0xbc
 458:	3c03112f 	stfccs	f1, [r3], {47}
 45c:	0311144a 	tsteq	r1, #1241513984	; 0x4a000000
 460:	142e0298 	strtne	r0, [lr], #-664
 464:	7dae0311 	stcvc	3, cr0, [lr, #68]!
 468:	4b31332e 	blmi	c4d128 <__standby_start+0xc4d128>
 46c:	832f2f2f 	teqhi	pc, #188	; 0xbc
 470:	2f312933 	svccs	0x00312933
 474:	3048332f 	subcc	r3, r8, pc, lsr #6
 478:	ac034e2c 	stcge	14, cr4, [r3], {44}
 47c:	11144a02 	tstne	r4, r2, lsl #20
 480:	2e7d8103 	expcse	f0, f3
 484:	2f2f4b16 	svccs	0x002f4b16
 488:	112f8331 	teqne	pc, r1, lsr r3
 48c:	48352e4e 	ldmdami	r5!, {r1, r2, r3, r6, r9, sl, fp, sp}
 490:	4b502c30 	blmi	140b558 <__standby_start+0x140b558>
 494:	2f31312f 	svccs	0x0031312f
 498:	832f2f2f 	teqhi	pc, #188	; 0xbc
 49c:	d1032d2f 	tstle	r3, pc, lsr #26
 4a0:	11144a02 	tstne	r4, r2, lsl #20
 4a4:	322e4f03 	eorcc	r4, lr, #12	; 0xc
 4a8:	2d4e3131 	stfcse	f3, [lr, #-196]
 4ac:	2e7f9903 	cdpcs	9, 7, cr9, cr15, cr3, {0}
 4b0:	2e78031a 	mrccs	3, 3, r0, cr8, cr10, {0}
 4b4:	4b4b4b52 	blmi	12d3204 <__standby_start+0x12d3204>
 4b8:	2f2f2f2f 	svccs	0x002f2f2f
 4bc:	032f2f2f 	teqeq	pc, #188	; 0xbc
 4c0:	09032e79 	stmdbeq	r3, {r0, r3, r4, r5, r6, r9, sl, fp, sp}
 4c4:	2e0a032e 	cdpcs	3, 0, cr0, cr10, cr14, {1}
 4c8:	2f2e7903 	svccs	0x002e7903
 4cc:	2f4c4d31 	svccs	0x004c4d31
 4d0:	312b3131 	teqcc	fp, r1, lsr r1
 4d4:	03844b2f 	orreq	r4, r4, #48128	; 0xbc00
 4d8:	7a032e09 	bvc	cbd04 <__standby_start+0xcbd04>
 4dc:	2e09032e 	cdpcs	3, 0, cr0, cr9, cr14, {1}
 4e0:	312e7a03 	teqcc	lr, r3, lsl #20
 4e4:	2f2f2d32 	svccs	0x002f2d32
 4e8:	2f2f2f31 	svccs	0x002f2f31
 4ec:	312f2f31 	teqcc	pc, r1, lsr pc
 4f0:	85302f2f 	ldrhi	r2, [r0, #-3887]!
 4f4:	4d304d2f 	ldcmi	13, cr4, [r0, #-188]!
 4f8:	329e1303 	addscc	r1, lr, #201326592	; 0xc000000
 4fc:	4c4b3130 	stfmie	f3, [fp], {48}
 500:	2f313131 	svccs	0x00313131
 504:	0402324c 	streq	r3, [r2], #-588
 508:	3a010100 	bcc	40910 <__standby_start+0x40910>
 50c:	02000002 	andeq	r0, r0, #2	; 0x2
 510:	0000a700 	andeq	sl, r0, r0, lsl #14
 514:	fb010200 	blx	40d1e <__standby_start+0x40d1e>
 518:	01000d0e 	tsteq	r0, lr, lsl #26
 51c:	00010101 	andeq	r0, r1, r1, lsl #2
 520:	00010000 	andeq	r0, r1, r0
 524:	72640100 	rsbvc	r0, r4, #0	; 0x0
 528:	64006d61 	strvs	r6, [r0], #-3425
 52c:	2f6d6172 	svccs	0x006d6172
 530:	2e2e2f2e 	cdpcs	15, 2, cr2, cr14, cr14, {1}
 534:	656d2f00 	strbvs	r2, [sp, #-3840]!
 538:	2f616964 	svccs	0x00616964
 53c:	61376233 	teqvs	r7, r3, lsr r2
 540:	39376263 	ldmdbcc	r7!, {r0, r1, r5, r6, r9, sp, lr}
 544:	3833392d 	ldmdacc	r3!, {r0, r2, r3, r5, r8, fp, ip, sp}
 548:	63342d33 	teqvs	r4, #3264	; 0xcc0
 54c:	382d6638 	stmdacc	sp!, {r3, r4, r5, r9, sl, sp, lr}
 550:	2d363333 	ldccs	3, cr3, [r6, #-204]!
 554:	34303235 	ldrtcc	r3, [r0], #-565
 558:	61636264 	cmnvs	r3, r4, ror #4
 55c:	61346332 	teqvs	r4, r2, lsr r3
 560:	6e696c2f 	cdpvs	12, 6, cr6, cr9, cr15, {1}
 564:	322d7875 	eorcc	r7, sp, #7667712	; 0x750000
 568:	332e362e 	teqcc	lr, #48234496	; 0x2e00000
 56c:	75732d36 	ldrbvc	r2, [r3, #-3382]!
 570:	2f69346e 	svccs	0x0069346e
 574:	68637261 	stmdavs	r3!, {r0, r5, r6, r9, ip, sp, lr}^
 578:	6d72612f 	ldfvse	f6, [r2, #-188]!
 57c:	63616d2f 	cmnvs	r1, #3008	; 0xbc0
 580:	75732d68 	ldrbvc	r2, [r3, #-3432]!
 584:	2f69346e 	svccs	0x0069346e
 588:	6c636e69 	stclvs	14, cr6, [r3], #-420
 58c:	2f656475 	svccs	0x00656475
 590:	6863616d 	stmdavs	r3!, {r0, r2, r3, r5, r6, r8, sp, lr}^
 594:	72640000 	rsbvc	r0, r4, #0	; 0x0
 598:	695f6d61 	ldmdbvs	pc, {r0, r5, r6, r8, sl, fp, sp, lr}^
 59c:	2e74696e 	cdpcs	9, 7, cr6, cr4, cr14, {3}
 5a0:	00010063 	andeq	r0, r1, r3, rrx
 5a4:	6d6f6300 	stclvs	3, cr6, [pc]
 5a8:	2e6e6f6d 	cdpcs	15, 6, cr6, cr14, cr13, {3}
 5ac:	00020068 	andeq	r0, r2, r8, rrx
 5b0:	61726400 	cmnvs	r2, r0, lsl #8
 5b4:	00682e6d 	rsbeq	r2, r8, sp, ror #28
 5b8:	00000003 	andeq	r0, r0, r3
 5bc:	cc020500 	cfstr32gt	mvfx0, [r2], {0}
 5c0:	03f0000c 	mvnseq	r0, #12	; 0xc
 5c4:	150100c8 	strne	r0, [r1, #-200]
 5c8:	2f2f4b4c 	svccs	0x002f4b4c
 5cc:	2f4b154d 	svccs	0x004b154d
 5d0:	4b154d2f 	blmi	553a94 <__standby_start+0x553a94>
 5d4:	2a032f2f 	bcs	cc298 <__standby_start+0xcc298>
 5d8:	2f4b154a 	svccs	0x004b154a
 5dc:	2f2f302f 	svccs	0x002f302f
 5e0:	2f2f302f 	svccs	0x002f302f
 5e4:	2f2f302f 	svccs	0x002f302f
 5e8:	2f2f302f 	svccs	0x002f302f
 5ec:	0e032f2f 	cdpeq	15, 0, cr2, cr3, cr15, {1}
 5f0:	8033014a 	eorshi	r0, r3, sl, asr #2
 5f4:	2c302c30 	ldccs	12, cr2, [r0], #-192
 5f8:	01c30332 	biceq	r0, r3, r2, lsr r3
 5fc:	10031466 	andne	r1, r3, r6, ror #8
 600:	2f4b164a 	svccs	0x004b164a
 604:	03358531 	teqeq	r5, #205520896	; 0xc400000
 608:	30158220 	andscc	r8, r5, r0, lsr #4
 60c:	3030312c 	eorscc	r3, r0, ip, lsr #2
 610:	4a0d034b 	bmi	341344 <__standby_start+0x341344>
 614:	032a3217 	teqeq	sl, #1879048193	; 0x70000001
 618:	71032e13 	tstvc	r3, r3, lsl lr
 61c:	0334304a 	teqeq	r4, #74	; 0x4a
 620:	302f2e7a 	eorcc	r2, pc, sl, ror lr
 624:	4b2c8569 	blmi	b21bd0 <__standby_start+0xb21bd0>
 628:	6618032f 	ldrvs	r0, [r8], -pc, lsr #6
 62c:	682f4b17 	stmdavs	pc!, {r0, r1, r2, r4, r8, r9, fp, lr}
 630:	6b686868 	blvs	1a1a7d8 <__standby_start+0x1a1a7d8>
 634:	302f2d4c 	eorcc	r2, pc, ip, asr #26
 638:	312f2f2d 	teqcc	pc, sp, lsr #30
 63c:	144d154e 	strbne	r1, [sp], #-1358
 640:	0311144d 	tsteq	r1, #1291845632	; 0x4d000000
 644:	11142e09 	tstne	r4, r9, lsl #28
 648:	32111432 	andscc	r1, r1, #838860800	; 0x32000000
 64c:	f7031114 	undefined instruction 0xf7031114
 650:	45172e7c 	ldrmi	r2, [r7, #-3708]
 654:	03020433 	movweq	r0, #9267	; 0x2433
 658:	2f827ee8 	svccs	0x00827ee8
 65c:	01042c2d 	tsteq	r4, sp, lsr #24
 660:	4a01a003 	bmi	68674 <__standby_start+0x68674>
 664:	e8030204 	stmda	r3, {r2, r9}
 668:	81a1827e 	undefined instruction 0x81a1827e
 66c:	484e6a4b 	stmdami	lr, {r0, r1, r3, r6, r9, fp, sp, lr}^
 670:	8b030104 	blhi	c0a88 <__standby_start+0xc0a88>
 674:	2c326601 	ldccs	6, cr6, [r2], #-4
 678:	2e7a0335 	mrccs	3, 3, r0, cr10, cr5, {1}
 67c:	2e7a0335 	mrccs	3, 3, r0, cr10, cr5, {1}
 680:	2f2f2f2f 	svccs	0x002f2f2f
 684:	032f2f2f 	teqeq	pc, #188	; 0xbc
 688:	76032e0b 	strvc	r2, [r3], -fp, lsl #28
 68c:	2f312f2e 	svccs	0x00312f2e
 690:	2f2f2f2f 	svccs	0x002f2f2f
 694:	09032f2f 	stmdbeq	r3, {r0, r1, r2, r3, r5, r8, r9, sl, fp, sp}
 698:	2e78032e 	cdpcs	3, 7, cr0, cr8, cr14, {1}
 69c:	2f2f322f 	svccs	0x002f322f
 6a0:	2d30312f 	ldfcss	f3, [r0, #-188]!
 6a4:	cd032d30 	stcgt	13, cr2, [r3, #-192]
 6a8:	11144a02 	tstne	r4, r2, lsl #20
 6ac:	2e7cba03 	vaddcs.f32	s23, s24, s6
 6b0:	2c30484f 	ldccs	8, cr4, [r0], #-316
 6b4:	6a338030 	bvs	ce077c <__standby_start+0xce077c>
 6b8:	302c3048 	eorcc	r3, ip, r8, asr #32
 6bc:	486a3364 	stmdami	sl!, {r2, r5, r6, r8, r9, ip, sp}^
 6c0:	80302c30 	eorshi	r2, r0, r0, lsr ip
 6c4:	032d2f32 	teqeq	sp, #200	; 0xc8
 6c8:	2f314a5d 	svccs	0x00314a5d
 6cc:	2f30832d 	svccs	0x0030832d
 6d0:	2f304b2d 	svccs	0x00304b2d
 6d4:	032d682d 	teqeq	sp, #2949120	; 0x2d0000
 6d8:	164a7fba 	undefined
 6dc:	312f3246 	teqcc	pc, r6, asr #4
 6e0:	2f2b314c 	svccs	0x002b314c
 6e4:	2f2f2f2f 	svccs	0x002f2f2f
 6e8:	2f2b314f 	svccs	0x002b314f
 6ec:	2f2f2f2f 	svccs	0x002f2f2f
 6f0:	01ac032f 	undefined instruction 0x01ac032f
 6f4:	4d6d3482 	cfstrdmi	mvd3, [sp, #-520]!
 6f8:	684d312f 	stmdavs	sp, {r0, r1, r2, r3, r5, r8, ip, sp}^
 6fc:	7a03342f 	bvc	cd7c0 <__standby_start+0xcd7c0>
 700:	a02c362e 	eorge	r3, ip, lr, lsr #12
 704:	302d2f4c 	eorcc	r2, sp, ip, asr #30
 708:	2f302d2f 	svccs	0x00302d2f
 70c:	2d2f302d 	stccs	0, cr3, [pc, #-180]!
 710:	34322f30 	ldrtcc	r2, [r2], #-3888
 714:	2d2f2d29 	stccs	13, cr2, [pc, #-164]!
 718:	302f2d2f 	eorcc	r2, pc, pc, lsr #26
 71c:	2f312f2d 	svccs	0x00312f2d
 720:	2c33844b 	cfldrscs	mvf8, [r3], #-300
 724:	322f2f2f 	eorcc	r2, pc, #188	; 0xbc
 728:	4d312f67 	ldcmi	15, cr2, [r1, #-412]!
 72c:	4e4d4b4b 	vmlsmi.f64	d20, d13, d11
 730:	4d8432a0 	sfmmi	f3, 4, [r4, #640]
 734:	2f4d4c4c 	svccs	0x004d4c4c
 738:	2f312f2f 	svccs	0x00312f2f
 73c:	2f85302f 	svccs	0x0085302f
 740:	2d316b30 	vldmdbcs	r1!, {d6-d29}
 744:	01000602 	tsteq	r0, r2, lsl #12
 748:	0000bc01 	andeq	fp, r0, r1, lsl #24
 74c:	41000200 	tstmi	r0, r0, lsl #4
 750:	02000000 	andeq	r0, r0, #0	; 0x0
 754:	0d0efb01 	vstreq	d15, [lr, #-4]
 758:	01010100 	tsteq	r1, r0, lsl #2
 75c:	00000001 	andeq	r0, r0, r1
 760:	01000001 	tsteq	r0, r1
 764:	61747300 	cmnvs	r4, r0, lsl #6
 768:	7962646e 	stmdbvc	r2!, {r1, r2, r3, r5, r6, sl, sp, lr}^
 76c:	746e695f 	strbtvc	r6, [lr], #-2399
 770:	0000632e 	andeq	r6, r0, lr, lsr #6
 774:	6f630000 	svcvs	0x00630000
 778:	6e6f6d6d 	cdpvs	13, 6, cr6, cr15, cr13, {3}
 77c:	0000682e 	andeq	r6, r0, lr, lsr #16
 780:	74730000 	ldrbtvc	r0, [r3]
 784:	62646e61 	rsbvs	r6, r4, #1552	; 0x610
 788:	6e695f79 	mcrvs	15, 3, r5, cr9, cr9, {3}
 78c:	00682e74 	rsbeq	r2, r8, r4, ror lr
 790:	00000000 	andeq	r0, r0, r0
 794:	70020500 	andvc	r0, r2, r0, lsl #10
 798:	03f00013 	mvnseq	r0, #19	; 0x13
 79c:	03130125 	tsteq	r3, #1073741833	; 0x40000009
 7a0:	72032e0e 	andvc	r2, r3, #224	; 0xe0
 7a4:	2e1c032e 	cdpcs	3, 1, cr0, cr12, cr14, {1}
 7a8:	322e6303 	eorcc	r6, lr, #201326592	; 0xc000000
 7ac:	2e0d032f 	cdpcs	3, 0, cr0, cr13, cr15, {1}
 7b0:	2f2e7403 	svccs	0x002e7403
 7b4:	032f2f2f 	teqeq	pc, #188	; 0xbc
 7b8:	09032e77 	stmdbeq	r3, {r0, r1, r2, r4, r5, r6, r9, sl, fp, sp}
 7bc:	032f2f2e 	teqeq	pc, #184	; 0xb8
 7c0:	03362e78 	teqeq	r6, #1920	; 0x780
 7c4:	2f2f2e7a 	svccs	0x002f2e7a
 7c8:	0f03302f 	svceq	0x0003302f
 7cc:	2e75032e 	cdpcs	3, 7, cr0, cr5, cr14, {1}
 7d0:	2f2f2f2f 	svccs	0x002f2f2f
 7d4:	2f2f2f2f 	svccs	0x002f2f2f
 7d8:	0f033131 	svceq	0x00033131
 7dc:	0b031466 	bleq	c597c <__standby_start+0xc597c>
 7e0:	2e75032e 	cdpcs	3, 7, cr0, cr5, cr14, {1}
 7e4:	4b4b4b4b 	blmi	12d3518 <__standby_start+0x12d3518>
 7e8:	4b4b4b4b 	blmi	12d351c <__standby_start+0x12d351c>
 7ec:	4a0f034d 	bmi	3c1528 <__standby_start+0x3c1528>
 7f0:	332d2a17 	teqcc	sp, #94208	; 0x17000
 7f4:	2a6a2d4b 	bcs	1a8bd28 <__standby_start+0x1a8bd28>
 7f8:	0f036967 	svceq	0x00036967
 7fc:	312b174a 	teqcc	fp, sl, asr #14
 800:	4b4c2c30 	blmi	130b8c8 <__standby_start+0x130b8c8>
 804:	01000802 	tsteq	r0, r2, lsl #16
 808:	00005101 	andeq	r5, r0, r1, lsl #2
 80c:	2f000200 	svccs	0x00000200
 810:	02000000 	andeq	r0, r0, #0	; 0x0
 814:	0d0efb01 	vstreq	d15, [lr, #-4]
 818:	01010100 	tsteq	r1, r0, lsl #2
 81c:	00000001 	andeq	r0, r0, r1
 820:	01000001 	tsteq	r0, r1
 824:	61747300 	cmnvs	r4, r0, lsl #6
 828:	7962646e 	stmdbvc	r2!, {r1, r2, r3, r5, r6, sl, sp, lr}^
 82c:	2e72695f 	mrccs	9, 3, r6, cr2, cr15, {2}
 830:	00000063 	andeq	r0, r0, r3, rrx
 834:	6d6f6300 	stclvs	3, cr6, [pc]
 838:	2e6e6f6d 	cdpcs	15, 6, cr6, cr14, cr13, {3}
 83c:	00000068 	andeq	r0, r0, r8, rrx
 840:	05000000 	streq	r0, [r0]
 844:	0014d802 	andseq	sp, r4, r2, lsl #16
 848:	012303f0 	strdeq	r0, [r3, -r0]!
 84c:	4a110314 	bmi	4414a4 <__standby_start+0x4414a4>
 850:	4a110314 	bmi	4414a8 <__standby_start+0x4414a8>
 854:	4a100314 	bmi	4014ac <__standby_start+0x4014ac>
 858:	00040214 	andeq	r0, r4, r4, lsl r2
 85c:	007e0101 	rsbseq	r0, lr, r1, lsl #2
 860:	00020000 	andeq	r0, r2, r0
 864:	00000041 	andeq	r0, r0, r1, asr #32
 868:	0efb0102 	cdpeq	1, 15, cr0, cr11, cr2, {0}
 86c:	0101000d 	tsteq	r1, sp
 870:	00000101 	andeq	r0, r0, r1, lsl #2
 874:	00000100 	andeq	r0, r0, r0, lsl #2
 878:	74730001 	ldrbtvc	r0, [r3], #-1
 87c:	62646e61 	rsbvs	r6, r4, #1552	; 0x610
 880:	656b5f79 	strbvs	r5, [fp, #-3961]!
 884:	00632e79 	rsbeq	r2, r3, r9, ror lr
 888:	63000000 	movwvs	r0, #0	; 0x0
 88c:	6f6d6d6f 	svcvs	0x006d6d6f
 890:	00682e6e 	rsbeq	r2, r8, lr, ror #28
 894:	73000000 	movwvc	r0, #0	; 0x0
 898:	646e6174 	strbtvs	r6, [lr], #-372
 89c:	6b5f7962 	blvs	17dee2c <__standby_start+0x17dee2c>
 8a0:	682e7965 	stmdavs	lr!, {r0, r2, r5, r6, r8, fp, ip, sp, lr}
 8a4:	00000000 	andeq	r0, r0, r0
 8a8:	02050000 	andeq	r0, r5, #0	; 0x0
 8ac:	f00014f8 	undefined instruction 0xf00014f8
 8b0:	0100c403 	tsteq	r0, r3, lsl #8
 8b4:	2d2c3113 	stfcss	f3, [ip, #-76]!
 8b8:	0f03304b 	svceq	0x0003304b
 8bc:	2c84134a 	stccs	3, cr1, [r4], {74}
 8c0:	49034e30 	stmdbmi	r3, {r4, r5, r9, sl, fp, lr}
 8c4:	0334144a 	teqeq	r4, #1241513984	; 0x4a000000
 8c8:	31302e78 	teqcc	r0, r8, ror lr
 8cc:	292f2d30 	stmdbcs	pc!, {r4, r5, r8, sl, fp, sp}
 8d0:	2f302f31 	svccs	0x00302f31
 8d4:	29332d2f 	ldmdbcs	r3!, {r0, r1, r2, r3, r5, r8, sl, fp, sp}
 8d8:	02312f2f 	eorseq	r2, r1, #188	; 0xbc
 8dc:	01010006 	tsteq	r1, r6
 8e0:	000000fb 	strdeq	r0, [r0], -fp
 8e4:	00650002 	rsbeq	r0, r5, r2
 8e8:	01020000 	tsteq	r2, r0
 8ec:	000d0efb 	strdeq	r0, [sp], -fp
 8f0:	01010101 	tsteq	r1, r1, lsl #2
 8f4:	01000000 	tsteq	r0, r0
 8f8:	00010000 	andeq	r0, r1, r0
 8fc:	6e617473 	mcrvs	4, 3, r7, cr1, cr3, {3}
 900:	5f796264 	svcpl	0x00796264
 904:	00682e69 	rsbeq	r2, r8, r9, ror #28
 908:	73000000 	movwvc	r0, #0	; 0x0
 90c:	646e6174 	strbtvs	r6, [lr], #-372
 910:	705f7962 	subsvc	r7, pc, r2, ror #18
 914:	7265776f 	rsbvc	r7, r5, #29097984	; 0x1bc0000
 918:	0000632e 	andeq	r6, r0, lr, lsr #6
 91c:	6f630000 	svcvs	0x00630000
 920:	6e6f6d6d 	cdpvs	13, 6, cr6, cr15, cr13, {3}
 924:	0000682e 	andeq	r6, r0, lr, lsr #16
 928:	74730000 	ldrbtvc	r0, [r3]
 92c:	62646e61 	rsbvs	r6, r4, #1552	; 0x610
 930:	6f705f79 	svcvs	0x00705f79
 934:	2e726577 	mrccs	5, 3, r6, cr2, cr7, {3}
 938:	00000068 	andeq	r0, r0, r8, rrx
 93c:	61747300 	cmnvs	r4, r0, lsl #6
 940:	7962646e 	stmdbvc	r2!, {r1, r2, r3, r5, r6, sl, sp, lr}^
 944:	6977745f 	ldmdbvs	r7!, {r0, r1, r2, r3, r4, r6, sl, ip, sp, lr}^
 948:	0000682e 	andeq	r6, r0, lr, lsr #16
 94c:	00000000 	andeq	r0, r0, r0
 950:	15980205 	ldrne	r0, [r8, #517]
 954:	2603f000 	strcs	pc, [r3], -r0
 958:	33291701 	teqcc	r9, #262144	; 0x40000
 95c:	6e2b2f6e 	cdpvs	15, 2, cr2, cr11, cr14, {3}
 960:	32322f4c 	eorscc	r2, r2, #304	; 0x130
 964:	3348302c 	movtcc	r3, #32812	; 0x802c
 968:	33030204 	movwcc	r0, #12804	; 0x3204
 96c:	646c012e 	strbtvs	r0, [ip], #-302
 970:	00d303a4 	sbcseq	r0, r3, r4, lsr #7
 974:	2f332e66 	svccs	0x00332e66
 978:	2f2da16a 	svccs	0x002da16a
 97c:	2c4e2d4b 	mcrrcs	13, 4, r2, lr, cr11
 980:	48304c2c 	ldmdami	r0!, {r2, r3, r5, sl, fp, lr}
 984:	ad032f30 	stcge	15, cr2, [r3, #-192]
 988:	4e2e4a7f 	mcrmi	10, 1, r4, cr14, cr15, {3}
 98c:	4a49032f 	bmi	1241650 <__standby_start+0x1241650>
 990:	d600c003 	strle	ip, [r0], -r3
 994:	2fbb86d8 	svccs	0x00bb86d8
 998:	684b312d 	stmdavs	fp, {r0, r2, r3, r5, r8, ip, sp}^
 99c:	3149514d 	cmpcc	r9, sp, asr #2
 9a0:	2d2c302c 	stccs	0, cr3, [ip, #-176]!
 9a4:	2b304831 	blcs	c12a70 <__standby_start+0xc12a70>
 9a8:	8330302f 	teqhi	r0, #47	; 0x2f
 9ac:	2d2f2d2f 	stccs	13, cr2, [pc, #-188]!
 9b0:	8262032f 	rsbhi	r0, r2, #-1140850688	; 0xbc000000
 9b4:	03662203 	cmneq	r6, #805306368	; 0x30000000
 9b8:	33667f87 	cmncc	r6, #540	; 0x21c
 9bc:	4b812fbb 	blmi	fe04c8b0 <__bss_end+0xe04a828>
 9c0:	812f9f33 	teqhi	pc, r3, lsr pc
 9c4:	0330314b 	teqeq	r0, #-1073741806	; 0xc0000012
 9c8:	2a364a46 	bcs	d932e8 <__standby_start+0xd932e8>
 9cc:	812f9f4e 	teqhi	pc, lr, asr #30
 9d0:	2f9f334b 	svccs	0x009f334b
 9d4:	81314b81 	teqhi	r1, r1, lsl #23
 9d8:	0402324b 	streq	r3, [r2], #-587
 9dc:	d9010100 	stmdble	r1, {r8}
 9e0:	02000000 	andeq	r0, r0, #0	; 0x0
 9e4:	00004100 	andeq	r4, r0, r0, lsl #2
 9e8:	fb010200 	blx	411f2 <__standby_start+0x411f2>
 9ec:	01000d0e 	tsteq	r0, lr, lsl #26
 9f0:	00010101 	andeq	r0, r1, r1, lsl #2
 9f4:	00010000 	andeq	r0, r1, r0
 9f8:	73000100 	movwvc	r0, #256	; 0x100
 9fc:	646e6174 	strbtvs	r6, [lr], #-372
 a00:	745f7962 	ldrbvc	r7, [pc], #2402	; a08 <__standby_start+0xa08>
 a04:	632e726d 	teqvs	lr, #-805306362	; 0xd0000006
 a08:	00000000 	andeq	r0, r0, r0
 a0c:	6d6d6f63 	stclvs	15, cr6, [sp, #-396]!
 a10:	682e6e6f 	stmdavs	lr!, {r0, r1, r2, r3, r5, r6, r9, sl, fp, sp, lr}
 a14:	00000000 	andeq	r0, r0, r0
 a18:	6e617473 	mcrvs	4, 3, r7, cr1, cr3, {3}
 a1c:	5f796264 	svcpl	0x00796264
 a20:	2e726d74 	mrccs	13, 3, r6, cr2, cr4, {3}
 a24:	00000068 	andeq	r0, r0, r8, rrx
 a28:	05000000 	streq	r0, [r0]
 a2c:	0018e002 	andseq	lr, r8, r2
 a30:	00ce03f0 	strdeq	r0, [lr], #48
 a34:	09031601 	stmdbeq	r3, {r0, r9, sl, ip}
 a38:	2e73032e 	cdpcs	3, 7, cr0, cr3, cr14, {1}
 a3c:	7a033432 	bvc	cdb0c <__standby_start+0xcdb0c>
 a40:	294d302e 	stmdbcs	sp, {r1, r2, r3, r5, ip, sp}^
 a44:	2f2f2f2f 	svccs	0x002f2f2f
 a48:	03312f2f 	teqeq	r1, #188	; 0xbc
 a4c:	4e144a12 	mrcmi	10, 0, r4, cr4, cr2, {0}
 a50:	302e7a03 	eorcc	r7, lr, r3, lsl #20
 a54:	03332f33 	teqeq	r3, #204	; 0xcc
 a58:	312f2e75 	teqcc	pc, r5, ror lr
 a5c:	672f2f2f 	strvs	r2, [pc, -pc, lsr #30]!
 a60:	4a120369 	bmi	48180c <__standby_start+0x48180c>
 a64:	03678414 	cmneq	r7, #335544320	; 0x14000000
 a68:	a0144a12 	andsge	r4, r4, r2, lsl sl
 a6c:	4a120367 	bmi	481810 <__standby_start+0x481810>
 a70:	48844e15 	stmmi	r4, {r0, r2, r4, r9, sl, fp, lr}
 a74:	2e0b0331 	mcrcs	3, 0, r0, cr11, cr1, {1}
 a78:	354a1203 	strbcc	r1, [sl, #-515]
 a7c:	4b2b6d2a 	blmi	adbf2c <__standby_start+0xadbf2c>
 a80:	852f6767 	strhi	r6, [pc, #-1895]!	; 321 <__standby_start+0x321>
 a84:	4a7eb603 	bmi	1fae298 <__standby_start+0x1fae298>
 a88:	2e110316 	mrccs	3, 0, r0, cr1, cr6, {0}
 a8c:	322e6b03 	eorcc	r6, lr, #3072	; 0xc00
 a90:	2e090331 	mcrcs	3, 0, r0, cr9, cr1, {1}
 a94:	2f2e7803 	svccs	0x002e7803
 a98:	2f2f2f2f 	svccs	0x002f2f2f
 a9c:	032e7a03 	teqeq	lr, #12288	; 0x3000
 aa0:	77032e0a 	strvc	r2, [r3, -sl, lsl #28]
 aa4:	2f302f2e 	svccs	0x00302f2e
 aa8:	312f312f 	teqcc	pc, pc, lsr #2
 aac:	032e7003 	teqeq	lr, #3	; 0x3
 ab0:	4b2f2e11 	blmi	bcc2fc <__standby_start+0xbcc2fc>
 ab4:	02312f2d 	eorseq	r2, r1, #180	; 0xb4
 ab8:	01010008 	tsteq	r1, r8
 abc:	000000c4 	andeq	r0, r0, r4, asr #1
 ac0:	00410002 	subeq	r0, r1, r2
 ac4:	01020000 	tsteq	r2, r0
 ac8:	000d0efb 	strdeq	r0, [sp], -fp
 acc:	01010101 	tsteq	r1, r1, lsl #2
 ad0:	01000000 	tsteq	r0, r0
 ad4:	00010000 	andeq	r0, r1, r0
 ad8:	6e617473 	mcrvs	4, 3, r7, cr1, cr3, {3}
 adc:	5f796264 	svcpl	0x00796264
 ae0:	2e697774 	mcrcs	7, 3, r7, cr9, cr4, {3}
 ae4:	00000063 	andeq	r0, r0, r3, rrx
 ae8:	6d6f6300 	stclvs	3, cr6, [pc]
 aec:	2e6e6f6d 	cdpcs	15, 6, cr6, cr14, cr13, {3}
 af0:	00000068 	andeq	r0, r0, r8, rrx
 af4:	61747300 	cmnvs	r4, r0, lsl #6
 af8:	7962646e 	stmdbvc	r2!, {r1, r2, r3, r5, r6, sl, sp, lr}^
 afc:	6977745f 	ldmdbvs	r7!, {r0, r1, r2, r3, r4, r6, sl, ip, sp, lr}^
 b00:	0000682e 	andeq	r6, r0, lr, lsr #16
 b04:	00000000 	andeq	r0, r0, r0
 b08:	1ad00205 	bne	ff401324 <__bss_end+0xf3ff29c>
 b0c:	2e03f000 	cdpcs	0, 0, cr15, cr3, cr0, {0}
 b10:	036d1301 	cmneq	sp, #67108864	; 0x4000000
 b14:	2c2f2e7a 	stccs	14, cr2, [pc], #-488
 b18:	694b4b30 	stmdbvs	fp, {r4, r5, r8, r9, fp, lr}^
 b1c:	6600dd03 	strvs	sp, [r0], -r3, lsl #26
 b20:	4f29332e 	svcmi	0x0029332e
 b24:	0b032f68 	bleq	cc8cc <__standby_start+0xcc8cc>
 b28:	65678466 	strbvs	r8, [r7, #-1126]!
 b2c:	4b6c2f4f 	blmi	1b0c870 <__standby_start+0x1b0c870>
 b30:	4f656784 	svcmi	0x00656784
 b34:	842f6c2f 	strthi	r6, [pc], #3119	; b3c <__standby_start+0xb3c>
 b38:	2f4f6567 	svccs	0x004f6567
 b3c:	2d2f4d6b 	stccs	13, cr4, [pc, #-428]!
 b40:	6567682f 	strbvs	r6, [r7, #-2095]!
 b44:	a06e2f4f 	rsbge	r2, lr, pc, asr #30
 b48:	2f4f6567 	svccs	0x004f6567
 b4c:	67844b6c 	strvs	r4, [r4, ip, ror #22]
 b50:	6c2f4f65 	stcvs	15, cr4, [pc], #-404
 b54:	4f656784 	svcmi	0x00656784
 b58:	03522f4b 	cmpeq	r2, #300	; 0x12c
 b5c:	03362e78 	teqeq	r6, #1920	; 0x780
 b60:	302e7ed2 	ldrdcc	r7, [lr], -r2
 b64:	6731682c 	ldrvs	r6, [r1, -ip, lsr #16]!
 b68:	65676d65 	strbvs	r6, [r7, #-3429]!
 b6c:	01a1036d 	undefined instruction 0x01a1036d
 b70:	7ead03ba 	mcrvc	3, 5, r0, cr13, cr10, {5}
 b74:	2c30304a 	ldccs	0, cr3, [r0], #-296
 b78:	2c323184 	ldfcss	f3, [r2], #-528
 b7c:	0268302c 	rsbeq	r3, r8, #44	; 0x2c
 b80:	01010004 	tsteq	r1, r4
 b84:	00000052 	andeq	r0, r0, r2, asr r0
 b88:	00300002 	eorseq	r0, r0, r2
 b8c:	01020000 	tsteq	r2, r0
 b90:	000d0efb 	strdeq	r0, [sp], -fp
 b94:	01010101 	tsteq	r1, r1, lsl #2
 b98:	01000000 	tsteq	r0, r0
 b9c:	00010000 	andeq	r0, r1, r0
 ba0:	6e617473 	mcrvs	4, 3, r7, cr1, cr3, {3}
 ba4:	5f796264 	svcpl	0x00796264
 ba8:	2e627375 	mcrcs	3, 3, r7, cr2, cr5, {3}
 bac:	00000063 	andeq	r0, r0, r3, rrx
 bb0:	6d6f6300 	stclvs	3, cr6, [pc]
 bb4:	2e6e6f6d 	cdpcs	15, 6, cr6, cr14, cr13, {3}
 bb8:	00000068 	andeq	r0, r0, r8, rrx
 bbc:	05000000 	streq	r0, [r0]
 bc0:	001e0002 	andseq	r0, lr, r2
 bc4:	012603f0 	strdeq	r0, [r6, -r0]!
 bc8:	4a0f0314 	bmi	3c1820 <__standby_start+0x3c1820>
 bcc:	4a120314 	bmi	481824 <__standby_start+0x481824>
 bd0:	4a110314 	bmi	441828 <__standby_start+0x441828>
 bd4:	00040214 	andeq	r0, r4, r4, lsl r2
 bd8:	003b0101 	eorseq	r0, fp, r1, lsl #2
 bdc:	00020000 	andeq	r0, r2, r0
 be0:	00000026 	andeq	r0, r0, r6, lsr #32
 be4:	0efb0102 	cdpeq	1, 15, cr0, cr11, cr2, {0}
 be8:	0101000d 	tsteq	r1, sp
 bec:	00000101 	andeq	r0, r0, r1, lsl #2
 bf0:	00000100 	andeq	r0, r0, r0, lsl #2
 bf4:	74730001 	ldrbtvc	r0, [r3], #-1
 bf8:	62646e61 	rsbvs	r6, r4, #1552	; 0x610
 bfc:	65645f79 	strbvs	r5, [r4, #-3961]!
 c00:	2e79616c 	rpwcsez	f6, f1, #4.0
 c04:	00000053 	andeq	r0, r0, r3, asr r0
 c08:	05000000 	streq	r0, [r0]
 c0c:	001e2002 	andseq	r2, lr, r2
 c10:	2f2f16f0 	svccs	0x002f16f0
 c14:	01000202 	tsteq	r0, r2, lsl #4
 c18:	Address 0x00000c18 is out of bounds.


Disassembly of section .debug_frame:

00000000 <.debug_frame>:
   0:	0000000c 	andeq	r0, r0, ip
   4:	ffffffff 	undefined instruction 0xffffffff
   8:	7c010001 	stcvc	0, cr0, [r1], {1}
   c:	000d0c0e 	andeq	r0, sp, lr, lsl #24
  10:	0000001c 	andeq	r0, r0, ip, lsl r0
  14:	00000000 	andeq	r0, r0, r0
  18:	f0000000 	undefined instruction 0xf0000000
  1c:	00000360 	andeq	r0, r0, r0, ror #6
  20:	8e180e44 	cdphi	14, 1, cr0, cr8, cr4, {2}
  24:	87028801 	strhi	r8, [r2, -r1, lsl #16]
  28:	85048603 	strhi	r8, [r4, #-1539]
  2c:	00068405 	andeq	r8, r6, r5, lsl #8
  30:	0000000c 	andeq	r0, r0, ip
  34:	ffffffff 	undefined instruction 0xffffffff
  38:	7c010001 	stcvc	0, cr0, [r1], {1}
  3c:	000d0c0e 	andeq	r0, sp, lr, lsl #24
  40:	0000000c 	andeq	r0, r0, ip
  44:	00000030 	andeq	r0, r0, r0, lsr r0
  48:	f0000360 	undefined instruction 0xf0000360
  4c:	00000038 	andeq	r0, r0, r8, lsr r0
  50:	0000000c 	andeq	r0, r0, ip
  54:	00000030 	andeq	r0, r0, r0, lsr r0
  58:	f0000398 	undefined instruction 0xf0000398
  5c:	00000014 	andeq	r0, r0, r4, lsl r0
  60:	0000000c 	andeq	r0, r0, ip
  64:	ffffffff 	undefined instruction 0xffffffff
  68:	7c010001 	stcvc	0, cr0, [r1], {1}
  6c:	000d0c0e 	andeq	r0, sp, lr, lsl #24
  70:	00000020 	andeq	r0, r0, r0, lsr #32
  74:	00000060 	andeq	r0, r0, r0, rrx
  78:	f00004d0 	undefined instruction 0xf00004d0
  7c:	00000084 	andeq	r0, r0, r4, lsl #1
  80:	8e1c0e44 	cdphi	14, 1, cr0, cr12, cr4, {2}
  84:	88028a01 	stmdahi	r2, {r0, r9, fp, pc}
  88:	86048703 	strhi	r8, [r4], -r3, lsl #14
  8c:	84068505 	strhi	r8, [r6], #-1285
  90:	00000007 	andeq	r0, r0, r7
  94:	0000000c 	andeq	r0, r0, ip
  98:	00000060 	andeq	r0, r0, r0, rrx
  9c:	f0000554 	undefined instruction 0xf0000554
  a0:	00000048 	andeq	r0, r0, r8, asr #32
  a4:	0000000c 	andeq	r0, r0, ip
  a8:	00000060 	andeq	r0, r0, r0, rrx
  ac:	f000059c 	undefined instruction 0xf000059c
  b0:	00000030 	andeq	r0, r0, r0, lsr r0
  b4:	0000000c 	andeq	r0, r0, ip
  b8:	00000060 	andeq	r0, r0, r0, rrx
  bc:	f00005cc 	undefined instruction 0xf00005cc
  c0:	00000034 	andeq	r0, r0, r4, lsr r0
  c4:	0000000c 	andeq	r0, r0, ip
  c8:	00000060 	andeq	r0, r0, r0, rrx
  cc:	f0000600 	undefined instruction 0xf0000600
  d0:	00000034 	andeq	r0, r0, r4, lsr r0
  d4:	0000000c 	andeq	r0, r0, ip
  d8:	00000060 	andeq	r0, r0, r0, rrx
  dc:	f0000634 	undefined instruction 0xf0000634
  e0:	00000068 	andeq	r0, r0, r8, rrx
  e4:	0000000c 	andeq	r0, r0, ip
  e8:	00000060 	andeq	r0, r0, r0, rrx
  ec:	f000069c 	undefined instruction 0xf000069c
  f0:	00000068 	andeq	r0, r0, r8, rrx
  f4:	0000000c 	andeq	r0, r0, ip
  f8:	00000060 	andeq	r0, r0, r0, rrx
  fc:	f0000704 	undefined instruction 0xf0000704
 100:	00000020 	andeq	r0, r0, r0, lsr #32
 104:	0000000c 	andeq	r0, r0, ip
 108:	00000060 	andeq	r0, r0, r0, rrx
 10c:	f0000724 	undefined instruction 0xf0000724
 110:	00000020 	andeq	r0, r0, r0, lsr #32
 114:	0000000c 	andeq	r0, r0, ip
 118:	00000060 	andeq	r0, r0, r0, rrx
 11c:	f0000744 	undefined instruction 0xf0000744
 120:	00000048 	andeq	r0, r0, r8, asr #32
 124:	0000000c 	andeq	r0, r0, ip
 128:	00000060 	andeq	r0, r0, r0, rrx
 12c:	f000078c 	undefined instruction 0xf000078c
 130:	00000048 	andeq	r0, r0, r8, asr #32
 134:	0000000c 	andeq	r0, r0, ip
 138:	00000060 	andeq	r0, r0, r0, rrx
 13c:	f00007d4 	undefined instruction 0xf00007d4
 140:	00000060 	andeq	r0, r0, r0, rrx
 144:	0000000c 	andeq	r0, r0, ip
 148:	00000060 	andeq	r0, r0, r0, rrx
 14c:	f0000834 	undefined instruction 0xf0000834
 150:	00000058 	andeq	r0, r0, r8, asr r0
 154:	0000000c 	andeq	r0, r0, ip
 158:	00000060 	andeq	r0, r0, r0, rrx
 15c:	f000088c 	undefined instruction 0xf000088c
 160:	0000002c 	andeq	r0, r0, ip, lsr #32
 164:	0000000c 	andeq	r0, r0, ip
 168:	00000060 	andeq	r0, r0, r0, rrx
 16c:	f00008b8 	undefined instruction 0xf00008b8
 170:	00000024 	andeq	r0, r0, r4, lsr #32
 174:	0000000c 	andeq	r0, r0, ip
 178:	00000060 	andeq	r0, r0, r0, rrx
 17c:	f00008dc 	undefined instruction 0xf00008dc
 180:	00000020 	andeq	r0, r0, r0, lsr #32
 184:	0000000c 	.word	0x0000000c
 188:	ffffffff 	.word	0xffffffff
 18c:	7c010001 	.word	0x7c010001
 190:	000d0c0e 	.word	0x000d0c0e
 194:	0000000c 	.word	0x0000000c
 198:	00000184 	.word	0x00000184
 19c:	f00008fc 	.word	0xf00008fc
 1a0:	00000030 	.word	0x00000030
 1a4:	0000000c 	.word	0x0000000c
 1a8:	00000184 	.word	0x00000184
 1ac:	f000092c 	.word	0xf000092c
 1b0:	00000020 	.word	0x00000020
 1b4:	00000014 	.word	0x00000014
 1b8:	00000184 	.word	0x00000184
 1bc:	f000094c 	.word	0xf000094c
 1c0:	00000058 	.word	0x00000058
 1c4:	8e080e4c 	.word	0x8e080e4c
 1c8:	00028401 	.word	0x00028401
 1cc:	0000000c 	.word	0x0000000c
 1d0:	00000184 	.word	0x00000184
 1d4:	f00009a4 	.word	0xf00009a4
 1d8:	00000004 	.word	0x00000004
 1dc:	0000000c 	.word	0x0000000c
 1e0:	00000184 	.word	0x00000184
 1e4:	f00009a8 	.word	0xf00009a8
 1e8:	00000004 	.word	0x00000004
 1ec:	0000000c 	.word	0x0000000c
 1f0:	00000184 	.word	0x00000184
 1f4:	f00009ac 	.word	0xf00009ac
 1f8:	00000004 	.word	0x00000004
 1fc:	00000014 	.word	0x00000014
 200:	00000184 	.word	0x00000184
 204:	f00009b0 	.word	0xf00009b0
 208:	00000030 	.word	0x00000030
 20c:	8e080e44 	.word	0x8e080e44
 210:	00028401 	.word	0x00028401
 214:	0000000c 	.word	0x0000000c
 218:	00000184 	.word	0x00000184
 21c:	f00009e0 	.word	0xf00009e0
 220:	00000030 	.word	0x00000030
 224:	0000000c 	.word	0x0000000c
 228:	00000184 	.word	0x00000184
 22c:	f0000a10 	.word	0xf0000a10
 230:	00000004 	.word	0x00000004
 234:	0000000c 	.word	0x0000000c
 238:	00000184 	.word	0x00000184
 23c:	f0000a14 	.word	0xf0000a14
 240:	00000030 	.word	0x00000030
 244:	0000000c 	.word	0x0000000c
 248:	00000184 	.word	0x00000184
 24c:	f0000a44 	.word	0xf0000a44
 250:	00000004 	.word	0x00000004
 254:	0000000c 	.word	0x0000000c
 258:	00000184 	.word	0x00000184
 25c:	f0000a48 	.word	0xf0000a48
 260:	00000004 	.word	0x00000004
 264:	00000018 	.word	0x00000018
 268:	00000184 	.word	0x00000184
 26c:	f0000a4c 	.word	0xf0000a4c
 270:	00000064 	.word	0x00000064
 274:	8e100e44 	.word	0x8e100e44
 278:	85028601 	.word	0x85028601
 27c:	00048403 	.word	0x00048403
 280:	0000000c 	.word	0x0000000c
 284:	00000184 	.word	0x00000184
 288:	f0000ab0 	.word	0xf0000ab0
 28c:	00000004 	.word	0x00000004
 290:	0000000c 	.word	0x0000000c
 294:	00000184 	.word	0x00000184
 298:	f0000ab4 	.word	0xf0000ab4
 29c:	00000030 	.word	0x00000030
 2a0:	00000014 	.word	0x00000014
 2a4:	00000184 	.word	0x00000184
 2a8:	f0000ae4 	.word	0xf0000ae4
 2ac:	00000064 	.word	0x00000064
 2b0:	8e080e44 	.word	0x8e080e44
 2b4:	00028401 	.word	0x00028401
 2b8:	0000000c 	.word	0x0000000c
 2bc:	00000184 	.word	0x00000184
 2c0:	f0000b48 	.word	0xf0000b48
 2c4:	00000004 	.word	0x00000004
 2c8:	00000014 	.word	0x00000014
 2cc:	00000184 	.word	0x00000184
 2d0:	f0000b4c 	.word	0xf0000b4c
 2d4:	0000001c 	.word	0x0000001c
 2d8:	8e080e44 	.word	0x8e080e44
 2dc:	00028401 	.word	0x00028401
 2e0:	00000024 	.word	0x00000024
 2e4:	00000184 	.word	0x00000184
 2e8:	f0000b68 	.word	0xf0000b68
 2ec:	00000124 	.word	0x00000124
 2f0:	44240e48 	.word	0x44240e48
 2f4:	018e380e 	.word	0x018e380e
 2f8:	038a028b 	.word	0x038a028b
 2fc:	05880489 	.word	0x05880489
 300:	07860687 	.word	0x07860687
 304:	09840885 	.word	0x09840885
 308:	00000014 	.word	0x00000014
 30c:	00000184 	.word	0x00000184
 310:	f0000c8c 	.word	0xf0000c8c
 314:	00000040 	.word	0x00000040
 318:	8e080e44 	.word	0x8e080e44
 31c:	00028401 	.word	0x00028401
 320:	0000000c 	.word	0x0000000c
 324:	ffffffff 	.word	0xffffffff
 328:	7c010001 	.word	0x7c010001
 32c:	000d0c0e 	.word	0x000d0c0e
 330:	0000000c 	.word	0x0000000c
 334:	00000320 	.word	0x00000320
 338:	f0000ccc 	.word	0xf0000ccc
 33c:	00000020 	.word	0x00000020
 340:	0000000c 	.word	0x0000000c
 344:	00000320 	.word	0x00000320
 348:	f0000cec 	.word	0xf0000cec
 34c:	00000018 	.word	0x00000018
 350:	0000000c 	.word	0x0000000c
 354:	00000320 	.word	0x00000320
 358:	f0000d04 	.word	0xf0000d04
 35c:	00000018 	.word	0x00000018
 360:	0000000c 	.word	0x0000000c
 364:	00000320 	.word	0x00000320
 368:	f0000d1c 	.word	0xf0000d1c
 36c:	0000005c 	.word	0x0000005c
 370:	0000000c 	.word	0x0000000c
 374:	00000320 	.word	0x00000320
 378:	f0000d78 	.word	0xf0000d78
 37c:	00000034 	.word	0x00000034
 380:	0000000c 	.word	0x0000000c
 384:	00000320 	.word	0x00000320
 388:	f0000dac 	.word	0xf0000dac
 38c:	00000008 	.word	0x00000008
 390:	0000000c 	.word	0x0000000c
 394:	00000320 	.word	0x00000320
 398:	f0000db4 	.word	0xf0000db4
 39c:	00000034 	.word	0x00000034
 3a0:	0000000c 	.word	0x0000000c
 3a4:	00000320 	.word	0x00000320
 3a8:	f0000de8 	.word	0xf0000de8
 3ac:	00000024 	.word	0x00000024
 3b0:	0000000c 	.word	0x0000000c
 3b4:	00000320 	.word	0x00000320
 3b8:	f0000e0c 	.word	0xf0000e0c
 3bc:	00000060 	.word	0x00000060
 3c0:	0000000c 	.word	0x0000000c
 3c4:	00000320 	.word	0x00000320
 3c8:	f0000e6c 	.word	0xf0000e6c
 3cc:	00000074 	.word	0x00000074
 3d0:	0000000c 	.word	0x0000000c
 3d4:	00000320 	.word	0x00000320
 3d8:	f0000ee0 	.word	0xf0000ee0
 3dc:	00000008 	.word	0x00000008
 3e0:	0000000c 	.word	0x0000000c
 3e4:	00000320 	.word	0x00000320
 3e8:	f0000ee8 	.word	0xf0000ee8
 3ec:	00000008 	.word	0x00000008
 3f0:	0000000c 	.word	0x0000000c
 3f4:	00000320 	.word	0x00000320
 3f8:	f0000ef0 	.word	0xf0000ef0
 3fc:	00000004 	.word	0x00000004
 400:	0000000c 	.word	0x0000000c
 404:	00000320 	.word	0x00000320
 408:	f0000ef4 	.word	0xf0000ef4
 40c:	00000004 	.word	0x00000004
 410:	0000000c 	.word	0x0000000c
 414:	00000320 	.word	0x00000320
 418:	f0000ef8 	.word	0xf0000ef8
 41c:	00000004 	.word	0x00000004
 420:	0000000c 	.word	0x0000000c
 424:	00000320 	.word	0x00000320
 428:	f0000efc 	.word	0xf0000efc
 42c:	00000004 	.word	0x00000004
 430:	00000020 	.word	0x00000020
 434:	00000320 	.word	0x00000320
 438:	f0000f00 	.word	0xf0000f00
 43c:	0000012c 	.word	0x0000012c
 440:	8e200e4c 	.word	0x8e200e4c
 444:	89028a01 	.word	0x89028a01
 448:	87048803 	.word	0x87048803
 44c:	85068605 	.word	0x85068605
 450:	00088407 	.word	0x00088407
 454:	0000000c 	.word	0x0000000c
 458:	00000320 	.word	0x00000320
 45c:	f000102c 	.word	0xf000102c
 460:	00000004 	.word	0x00000004
 464:	00000014 	.word	0x00000014
 468:	00000320 	.word	0x00000320
 46c:	f0001030 	.word	0xf0001030
 470:	000000a4 	.word	0x000000a4
 474:	8e080e48 	.word	0x8e080e48
 478:	00028401 	.word	0x00028401
 47c:	00000014 	.word	0x00000014
 480:	00000320 	.word	0x00000320
 484:	f00010d4 	.word	0xf00010d4
 488:	00000054 	.word	0x00000054
 48c:	8e080e44 	.word	0x8e080e44
 490:	00028401 	.word	0x00028401
 494:	00000014 	.word	0x00000014
 498:	00000320 	.word	0x00000320
 49c:	f0001128 	.word	0xf0001128
 4a0:	00000070 	.word	0x00000070
 4a4:	8e080e4c 	.word	0x8e080e4c
 4a8:	00028401 	.word	0x00028401
 4ac:	00000018 	.word	0x00000018
 4b0:	00000320 	.word	0x00000320
 4b4:	f0001198 	.word	0xf0001198
 4b8:	000001d8 	.word	0x000001d8
 4bc:	8e100e44 	.word	0x8e100e44
 4c0:	85028601 	.word	0x85028601
 4c4:	00048403 	.word	0x00048403
 4c8:	0000000c 	.word	0x0000000c
 4cc:	ffffffff 	.word	0xffffffff
 4d0:	7c010001 	.word	0x7c010001
 4d4:	000d0c0e 	.word	0x000d0c0e
 4d8:	00000024 	.word	0x00000024
 4dc:	000004c8 	.word	0x000004c8
 4e0:	f0001370 	.word	0xf0001370
 4e4:	00000098 	.word	0x00000098
 4e8:	8e240e54 	.word	0x8e240e54
 4ec:	8a028b01 	.word	0x8a028b01
 4f0:	88048903 	.word	0x88048903
 4f4:	86068705 	.word	0x86068705
 4f8:	84088507 	.word	0x84088507
 4fc:	00000009 	.word	0x00000009
 500:	0000000c 	.word	0x0000000c
 504:	000004c8 	.word	0x000004c8
 508:	f0001408 	.word	0xf0001408
 50c:	00000058 	.word	0x00000058
 510:	00000014 	.word	0x00000014
 514:	000004c8 	.word	0x000004c8
 518:	f0001460 	.word	0xf0001460
 51c:	00000048 	.word	0x00000048
 520:	8e080e4c 	.word	0x8e080e4c
 524:	00028401 	.word	0x00028401
 528:	0000000c 	.word	0x0000000c
 52c:	000004c8 	.word	0x000004c8
 530:	f00014a8 	.word	0xf00014a8
 534:	00000030 	.word	0x00000030
 538:	0000000c 	.word	0x0000000c
 53c:	ffffffff 	.word	0xffffffff
 540:	7c010001 	.word	0x7c010001
 544:	000d0c0e 	.word	0x000d0c0e
 548:	0000000c 	.word	0x0000000c
 54c:	00000538 	.word	0x00000538
 550:	f00014d8 	.word	0xf00014d8
 554:	00000008 	.word	0x00000008
 558:	0000000c 	.word	0x0000000c
 55c:	00000538 	.word	0x00000538
 560:	f00014e0 	.word	0xf00014e0
 564:	00000008 	.word	0x00000008
 568:	0000000c 	.word	0x0000000c
 56c:	00000538 	.word	0x00000538
 570:	f00014e8 	.word	0xf00014e8
 574:	00000008 	.word	0x00000008
 578:	0000000c 	.word	0x0000000c
 57c:	00000538 	.word	0x00000538
 580:	f00014f0 	.word	0xf00014f0
 584:	00000008 	.word	0x00000008
 588:	0000000c 	.word	0x0000000c
 58c:	ffffffff 	.word	0xffffffff
 590:	7c010001 	.word	0x7c010001
 594:	000d0c0e 	.word	0x000d0c0e
 598:	0000000c 	.word	0x0000000c
 59c:	00000588 	.word	0x00000588
 5a0:	f00014f8 	.word	0xf00014f8
 5a4:	00000020 	.word	0x00000020
 5a8:	0000000c 	.word	0x0000000c
 5ac:	00000588 	.word	0x00000588
 5b0:	f0001518 	.word	0xf0001518
 5b4:	00000028 	.word	0x00000028
 5b8:	00000018 	.word	0x00000018
 5bc:	00000588 	.word	0x00000588
 5c0:	f0001540 	.word	0xf0001540
 5c4:	00000058 	.word	0x00000058
 5c8:	8e100e4c 	.word	0x8e100e4c
 5cc:	85028601 	.word	0x85028601
 5d0:	00048403 	.word	0x00048403
 5d4:	0000000c 	.word	0x0000000c
 5d8:	ffffffff 	.word	0xffffffff
 5dc:	7c010001 	.word	0x7c010001
 5e0:	000d0c0e 	.word	0x000d0c0e
 5e4:	0000000c 	.word	0x0000000c
 5e8:	000005d4 	.word	0x000005d4
 5ec:	f0001598 	.word	0xf0001598
 5f0:	00000054 	.word	0x00000054
 5f4:	0000000c 	.word	0x0000000c
 5f8:	000005d4 	.word	0x000005d4
 5fc:	f00015ec 	.word	0xf00015ec
 600:	00000038 	.word	0x00000038
 604:	0000001c 	.word	0x0000001c
 608:	000005d4 	.word	0x000005d4
 60c:	f0001624 	.word	0xf0001624
 610:	00000074 	.word	0x00000074
 614:	8e180e44 	.word	0x8e180e44
 618:	84028501 	.word	0x84028501
 61c:	81048203 	.word	0x81048203
 620:	00068005 	.word	0x00068005
 624:	00000020 	.word	0x00000020
 628:	000005d4 	.word	0x000005d4
 62c:	f0001698 	.word	0xf0001698
 630:	00000130 	.word	0x00000130
 634:	8e200e44 	.word	0x8e200e44
 638:	87028801 	.word	0x87028801
 63c:	85048603 	.word	0x85048603
 640:	81068405 	.word	0x81068405
 644:	00088007 	.word	0x00088007
 648:	00000018 	.word	0x00000018
 64c:	000005d4 	.word	0x000005d4
 650:	f00017c8 	.word	0xf00017c8
 654:	0000007c 	.word	0x0000007c
 658:	8e100e44 	.word	0x8e100e44
 65c:	81028401 	.word	0x81028401
 660:	00048003 	.word	0x00048003
 664:	00000018 	.word	0x00000018
 668:	000005d4 	.word	0x000005d4
 66c:	f0001844 	.word	0xf0001844
 670:	0000009c 	.word	0x0000009c
 674:	8e100e44 	.word	0x8e100e44
 678:	81028401 	.word	0x81028401
 67c:	00048003 	.word	0x00048003
 680:	0000000c 	.word	0x0000000c
 684:	ffffffff 	.word	0xffffffff
 688:	7c010001 	.word	0x7c010001
 68c:	000d0c0e 	.word	0x000d0c0e
 690:	0000001c 	.word	0x0000001c
 694:	00000680 	.word	0x00000680
 698:	f00018e0 	.word	0xf00018e0
 69c:	00000048 	.word	0x00000048
 6a0:	8e140e4c 	.word	0x8e140e4c
 6a4:	86028701 	.word	0x86028701
 6a8:	84048503 	.word	0x84048503
 6ac:	00000005 	.word	0x00000005
 6b0:	00000014 	.word	0x00000014
 6b4:	00000680 	.word	0x00000680
 6b8:	f0001928 	.word	0xf0001928
 6bc:	00000054 	.word	0x00000054
 6c0:	8e080e50 	.word	0x8e080e50
 6c4:	00028401 	.word	0x00028401
 6c8:	0000000c 	.word	0x0000000c
 6cc:	00000680 	.word	0x00000680
 6d0:	f000197c 	.word	0xf000197c
 6d4:	00000024 	.word	0x00000024
 6d8:	0000000c 	.word	0x0000000c
 6dc:	00000680 	.word	0x00000680
 6e0:	f00019a0 	.word	0xf00019a0
 6e4:	00000028 	.word	0x00000028
 6e8:	0000000c 	.word	0x0000000c
 6ec:	00000680 	.word	0x00000680
 6f0:	f00019c8 	.word	0xf00019c8
 6f4:	00000030 	.word	0x00000030
 6f8:	00000014 	.word	0x00000014
 6fc:	00000680 	.word	0x00000680
 700:	f00019f8 	.word	0xf00019f8
 704:	00000054 	.word	0x00000054
 708:	8e080e44 	.word	0x8e080e44
 70c:	00028401 	.word	0x00028401
 710:	0000001c 	.word	0x0000001c
 714:	00000680 	.word	0x00000680
 718:	f0001a4c 	.word	0xf0001a4c
 71c:	00000084 	.word	0x00000084
 720:	8e180e4c 	.word	0x8e180e4c
 724:	87028801 	.word	0x87028801
 728:	85048603 	.word	0x85048603
 72c:	00068405 	.word	0x00068405
 730:	0000000c 	.word	0x0000000c
 734:	ffffffff 	.word	0xffffffff
 738:	7c010001 	.word	0x7c010001
 73c:	000d0c0e 	.word	0x000d0c0e
 740:	0000000c 	.word	0x0000000c
 744:	0730      	.short	0x0730
 746:	0000      	.short	0x0000
 748:	f0001ad0 	.word	0xf0001ad0
 74c:	00000044 	.word	0x00000044
 750:	00000018 	.word	0x00000018
 754:	00000730 	.word	0x00000730
 758:	f0001b14 	.word	0xf0001b14
 75c:	000002a8 	.word	0x000002a8
 760:	8e0c0e44 	.word	0x8e0c0e44
 764:	84028501 	.word	0x84028501
 768:	00000003 	.word	0x00000003
 76c:	00000014 	.word	0x00000014
 770:	00000730 	.word	0x00000730
 774:	f0001dbc 	.word	0xf0001dbc
 778:	00000044 	.word	0x00000044
 77c:	8e080e44 	.word	0x8e080e44
 780:	00028401 	.word	0x00028401
 784:	0000000c 	.word	0x0000000c
 788:	ffffffff 	.word	0xffffffff
 78c:	7c010001 	.word	0x7c010001
 790:	000d0c0e 	.word	0x000d0c0e
 794:	0000000c 	.word	0x0000000c
 798:	00000784 	.word	0x00000784
 79c:	f0001e00 	.word	0xf0001e00
 7a0:	00000008 	.word	0x00000008
 7a4:	0000000c 	.word	0x0000000c
 7a8:	00000784 	.word	0x00000784
 7ac:	f0001e08 	.word	0xf0001e08
 7b0:	00000008 	.word	0x00000008
 7b4:	0000000c 	.word	0x0000000c
 7b8:	00000784 	.word	0x00000784
 7bc:	f0001e10 	.word	0xf0001e10
 7c0:	00000008 	.word	0x00000008
 7c4:	0000000c 	.word	0x0000000c
 7c8:	00000784 	.word	0x00000784
 7cc:	f0001e18 	.word	0xf0001e18
 7d0:	00000008 	.word	0x00000008

Disassembly of section .debug_loc:

00000000 <.debug_loc>:
   0:	00000000 	andeq	r0, r0, r0
   4:	00000004 	andeq	r0, r0, r4
   8:	045d0001 	ldrbeq	r0, [sp], #-1
   c:	60000000 	andvs	r0, r0, r0
  10:	02000003 	andeq	r0, r0, #3	; 0x3
  14:	00187d00 	andseq	r7, r8, r0, lsl #26
	...
  20:	0c000000 	stceq	0, cr0, [r0], {0}
  24:	01000000 	tsteq	r0, r0
  28:	000c5000 	andeq	r5, ip, r0
  2c:	03600000 	cmneq	r0, #0	; 0x0
  30:	00010000 	andeq	r0, r1, r0
  34:	00000058 	andeq	r0, r0, r8, asr r0
  38:	00000000 	andeq	r0, r0, r0
  3c:	00001400 	andeq	r1, r0, r0, lsl #8
  40:	00003400 	andeq	r3, r0, r0, lsl #8
  44:	54000100 	strpl	r0, [r0], #-256
	...
  50:	00000038 	andeq	r0, r0, r8, lsr r0
  54:	00000044 	andeq	r0, r0, r4, asr #32
  58:	00500001 	subseq	r0, r0, r1
	...
  64:	04000000 	streq	r0, [r0]
  68:	01000000 	tsteq	r0, r0
  6c:	00045d00 	andeq	r5, r4, r0, lsl #26
  70:	00840000 	addeq	r0, r4, r0
  74:	00020000 	andeq	r0, r2, r0
  78:	00001c7d 	andeq	r1, r0, sp, ror ip
  7c:	00000000 	andeq	r0, r0, r0
  80:	03040000 	movweq	r0, #16384	; 0x4000
  84:	035c0000 	cmpeq	ip, #0	; 0x0
  88:	00010000 	andeq	r0, r1, r0
  8c:	00000050 	andeq	r0, r0, r0, asr r0
  90:	00000000 	andeq	r0, r0, r0
  94:	00036400 	andeq	r6, r3, r0, lsl #8
  98:	0003b400 	andeq	fp, r3, r0, lsl #8
  9c:	50000100 	andpl	r0, r0, r0, lsl #2
	...
  a8:	00000030 	.word	0x00000030
  ac:	0000003c 	.word	0x0000003c
  b0:	44500001 	.word	0x44500001
  b4:	48000000 	.word	0x48000000
  b8:	01000000 	.word	0x01000000
  bc:	00005000 	.word	0x00005000
  c0:	00000000 	.word	0x00000000
  c4:	00400000 	.word	0x00400000
  c8:	00440000 	.word	0x00440000
  cc:	00010000 	.word	0x00010000
  d0:	00000053 	.word	0x00000053
  d4:	00000000 	.word	0x00000000
  d8:	00005000 	.word	0x00005000
  dc:	00005c00 	.word	0x00005c00
  e0:	5d000100 	.word	0x5d000100
  e4:	0000005c 	.word	0x0000005c
  e8:	000000a8 	.word	0x000000a8
  ec:	087d0002 	.word	0x087d0002
	...
  f8:	00000050 	.word	0x00000050
  fc:	00000070 	.word	0x00000070
 100:	00500001 	.word	0x00500001
 104:	00000000 	.word	0x00000000
 108:	50000000 	.word	0x50000000
 10c:	64000000 	.word	0x64000000
 110:	01000000 	.word	0x01000000
 114:	00645100 	.word	0x00645100
 118:	00800000 	.word	0x00800000
 11c:	00010000 	.word	0x00010000
 120:	0000005c 	.word	0x0000005c
 124:	00000000 	.word	0x00000000
 128:	00005000 	.word	0x00005000
 12c:	00007400 	.word	0x00007400
 130:	52000100 	.word	0x52000100
	...
 13c:	00000050 	.word	0x00000050
 140:	00000064 	.word	0x00000064
 144:	64530001 	.word	0x64530001
 148:	a8000000 	.word	0xa8000000
 14c:	01000000 	.word	0x01000000
 150:	00005400 	.word	0x00005400
 154:	00000000 	.word	0x00000000
 158:	00a80000 	.word	0x00a80000
 15c:	00ac0000 	.word	0x00ac0000
 160:	00010000 	.word	0x00010000
 164:	00000050 	.word	0x00000050
 168:	00000000 	.word	0x00000000
 16c:	0000a800 	.word	0x0000a800
 170:	0000ac00 	.word	0x0000ac00
 174:	51000100 	.word	0x51000100
	...
 180:	000000ac 	.word	0x000000ac
 184:	000000b0 	.word	0x000000b0
 188:	00500001 	.word	0x00500001
 18c:	00000000 	.word	0x00000000
 190:	b0000000 	.word	0xb0000000
 194:	b4000000 	.word	0xb4000000
 198:	01000000 	.word	0x01000000
 19c:	00005000 	.word	0x00005000
 1a0:	00000000 	.word	0x00000000
 1a4:	00b00000 	.word	0x00b00000
 1a8:	00b40000 	.word	0x00b40000
 1ac:	00010000 	.word	0x00010000
 1b0:	00000051 	.word	0x00000051
 1b4:	00000000 	.word	0x00000000
 1b8:	0000b000 	.word	0x0000b000
 1bc:	0000b400 	.word	0x0000b400
 1c0:	52000100 	.word	0x52000100
	...
 1cc:	000000b0 	.word	0x000000b0
 1d0:	000000b4 	.word	0x000000b4
 1d4:	00530001 	.word	0x00530001
 1d8:	00000000 	.word	0x00000000
 1dc:	b4000000 	.word	0xb4000000
 1e0:	b8000000 	.word	0xb8000000
 1e4:	01000000 	.word	0x01000000
 1e8:	00b85d00 	.word	0x00b85d00
 1ec:	00e40000 	.word	0x00e40000
 1f0:	00020000 	.word	0x00020000
 1f4:	0000087d 	.word	0x0000087d
 1f8:	00000000 	.word	0x00000000
 1fc:	00c40000 	.word	0x00c40000
 200:	00d00000 	.word	0x00d00000
 204:	00010000 	.word	0x00010000
 208:	0000d453 	.word	0x0000d453
 20c:	0000e400 	.word	0x0000e400
 210:	53000100 	.word	0x53000100
	...
 21c:	000000ec 	.word	0x000000ec
 220:	000000fc 	.word	0x000000fc
 224:	00530001 	.word	0x00530001
 228:	00000000 	.word	0x00000000
 22c:	20000000 	.word	0x20000000
 230:	30000001 	.word	0x30000001
 234:	01000001 	.word	0x01000001
 238:	00005300 	.word	0x00005300
 23c:	00000000 	.word	0x00000000
 240:	01500000 	.word	0x01500000
 244:	01540000 	.word	0x01540000
 248:	00010000 	.word	0x00010000
 24c:	0001545d 	.word	0x0001545d
 250:	0001b400 	.word	0x0001b400
 254:	7d000200 	.word	0x7d000200
 258:	00000010 	.word	0x00000010
 25c:	00000000 	.word	0x00000000
 260:	00016000 	.word	0x00016000
 264:	00017400 	.word	0x00017400
 268:	53000100 	.word	0x53000100
 26c:	0000018c 	.word	0x0000018c
 270:	000001a4 	.word	0x000001a4
 274:	00530001 	.word	0x00530001
 278:	00000000 	.word	0x00000000
 27c:	c0000000 	.word	0xc0000000
 280:	d0000001 	.word	0xd0000001
 284:	01000001 	.word	0x01000001
 288:	00005300 	.word	0x00005300
 28c:	00000000 	.word	0x00000000
 290:	01e80000 	.word	0x01e80000
 294:	01ec0000 	.word	0x01ec0000
 298:	00010000 	.word	0x00010000
 29c:	0001ec5d 	.word	0x0001ec5d
 2a0:	00024c00 	.word	0x00024c00
 2a4:	7d000200 	.word	0x7d000200
 2a8:	00000008 	.word	0x00000008
 2ac:	00000000 	.word	0x00000000
 2b0:	0001f000 	.word	0x0001f000
 2b4:	00020c00 	.word	0x00020c00
 2b8:	54000100 	.word	0x54000100
	...
 2c4:	00000210 	.word	0x00000210
 2c8:	0000021c 	.word	0x0000021c
 2cc:	20530001 	.word	0x20530001
 2d0:	30000002 	.word	0x30000002
 2d4:	01000002 	.word	0x01000002
 2d8:	00005300 	.word	0x00005300
 2dc:	00000000 	.word	0x00000000
 2e0:	02500000 	.word	0x02500000
 2e4:	02540000 	.word	0x02540000
 2e8:	00010000 	.word	0x00010000
 2ec:	0002545d 	.word	0x0002545d
 2f0:	00026c00 	.word	0x00026c00
 2f4:	7d000200 	.word	0x7d000200
 2f8:	00000008 	.word	0x00000008
 2fc:	00000000 	.word	0x00000000
 300:	00026c00 	.word	0x00026c00
 304:	00027400 	.word	0x00027400
 308:	5d000100 	.word	0x5d000100
 30c:	00000274 	.word	0x00000274
 310:	00000278 	.word	0x00000278
 314:	247d0002 	.word	0x247d0002
 318:	00000278 	.word	0x00000278
 31c:	00000390 	.word	0x00000390
 320:	387d0002 	.word	0x387d0002
	...
 32c:	00000340 	.word	0x00000340
 330:	00000358 	.word	0x00000358
 334:	00530001 	.word	0x00530001
 338:	00000000 	.word	0x00000000
 33c:	80000000 	.word	0x80000000
 340:	f4000002 	.word	0xf4000002
 344:	02000002 	.word	0x02000002
 348:	f4007d00 	.word	0xf4007d00
 34c:	90000002 	.word	0x90000002
 350:	02000003 	.word	0x02000003
 354:	00649100 	.word	0x00649100
 358:	00000000 	.word	0x00000000
 35c:	88000000 	.word	0x88000000
 360:	54000002 	.word	0x54000002
 364:	02000003 	.word	0x02000003
 368:	54047d00 	.word	0x54047d00
 36c:	90000003 	.word	0x90000003
 370:	02000003 	.word	0x02000003
 374:	00689100 	.word	0x00689100
 378:	00000000 	.word	0x00000000
 37c:	90000000 	.word	0x90000000
 380:	54000002 	.word	0x54000002
 384:	02000003 	.word	0x02000003
 388:	54087d00 	.word	0x54087d00
 38c:	90000003 	.word	0x90000003
 390:	02000003 	.word	0x02000003
 394:	006c9100 	.word	0x006c9100
 398:	00000000 	.word	0x00000000
 39c:	b4000000 	.word	0xb4000000
 3a0:	54000002 	.word	0x54000002
 3a4:	02000003 	.word	0x02000003
 3a8:	540c7d00 	.word	0x540c7d00
 3ac:	90000003 	.word	0x90000003
 3b0:	02000003 	.word	0x02000003
 3b4:	00709100 	.word	0x00709100
 3b8:	00000000 	.word	0x00000000
 3bc:	90000000 	.word	0x90000000
 3c0:	94000003 	.word	0x94000003
 3c4:	01000003 	.word	0x01000003
 3c8:	03945d00 	.word	0x03945d00
 3cc:	03d00000 	.word	0x03d00000
 3d0:	00020000 	.word	0x00020000
 3d4:	0000087d 	.word	0x0000087d
 3d8:	00000000 	.word	0x00000000
 3dc:	00f00000 	.word	0x00f00000
 3e0:	01000000 	.word	0x01000000
 3e4:	00010000 	.word	0x00010000
 3e8:	00010c53 	.word	0x00010c53
 3ec:	00011000 	.word	0x00011000
 3f0:	50000100 	.word	0x50000100
	...
 3fc:	00000128 	.word	0x00000128
 400:	0000012c 	.word	0x0000012c
 404:	2c530001 	.word	0x2c530001
 408:	40000001 	.word	0x40000001
 40c:	01000001 	.word	0x01000001
 410:	00005200 	.word	0x00005200
 414:	00000000 	.word	0x00000000
 418:	014c0000 	.word	0x014c0000
 41c:	01500000 	.word	0x01500000
 420:	00010000 	.word	0x00010000
 424:	00015c53 	.word	0x00015c53
 428:	0001a000 	.word	0x0001a000
 42c:	53000100 	.word	0x53000100
	...
 438:	000001b4 	.word	0x000001b4
 43c:	0000020c 	.word	0x0000020c
 440:	00500001 	.word	0x00500001
 444:	00000000 	.word	0x00000000
 448:	ac000000 	.word	0xac000000
 44c:	b4000001 	.word	0xb4000001
 450:	01000001 	.word	0x01000001
 454:	01bc5000 	.word	0x01bc5000
 458:	01c00000 	.word	0x01c00000
 45c:	00010000 	.word	0x00010000
 460:	0001c850 	.word	0x0001c850
 464:	0001cc00 	.word	0x0001cc00
 468:	50000100 	.word	0x50000100
 46c:	000001d4 	.word	0x000001d4
 470:	000001d8 	.word	0x000001d8
 474:	e0500001 	.word	0xe0500001
 478:	e4000001 	.word	0xe4000001
 47c:	01000001 	.word	0x01000001
 480:	00005000 	.word	0x00005000
 484:	00000000 	.word	0x00000000
 488:	022c0000 	.word	0x022c0000
 48c:	02300000 	.word	0x02300000
 490:	00010000 	.word	0x00010000
 494:	00000050 	.word	0x00000050
 498:	00000000 	.word	0x00000000
 49c:	00023400 	.word	0x00023400
 4a0:	00024000 	.word	0x00024000
 4a4:	5d000100 	.word	0x5d000100
 4a8:	00000240 	.word	0x00000240
 4ac:	00000360 	.word	0x00000360
 4b0:	207d0002 	.word	0x207d0002
	...
 4bc:	00000234 	.word	0x00000234
 4c0:	0000028c 	.word	0x0000028c
 4c4:	ac500001 	.word	0xac500001
 4c8:	e0000002 	.word	0xe0000002
 4cc:	01000002 	.word	0x01000002
 4d0:	00005000 	.word	0x00005000
 4d4:	00000000 	.word	0x00000000
 4d8:	024c0000 	.word	0x024c0000
 4dc:	02cc0000 	.word	0x02cc0000
 4e0:	00010000 	.word	0x00010000
 4e4:	0002cc5e 	.word	0x0002cc5e
 4e8:	0002fc00 	.word	0x0002fc00
 4ec:	53000100 	.word	0x53000100
 4f0:	00000300 	.word	0x00000300
 4f4:	00000328 	.word	0x00000328
 4f8:	2c530001 	.word	0x2c530001
 4fc:	3c000003 	.word	0x3c000003
 500:	01000003 	.word	0x01000003
 504:	033c5300 	.word	0x033c5300
 508:	03600000 	.word	0x03600000
 50c:	00010000 	.word	0x00010000
 510:	00000054 	.word	0x00000054
 514:	00000000 	.word	0x00000000
 518:	00026c00 	.word	0x00026c00
 51c:	00028c00 	.word	0x00028c00
 520:	54000600 	.word	0x54000600
 524:	93550493 	.word	0x93550493
 528:	0002a804 	.word	0x0002a804
 52c:	0002d800 	.word	0x0002d800
 530:	54000600 	.word	0x54000600
 534:	93550493 	.word	0x93550493
 538:	00000004 	.word	0x00000004
 53c:	00000000 	.word	0x00000000
 540:	00023c00 	.word	0x00023c00
 544:	0002fc00 	.word	0x0002fc00
 548:	5c000100 	.word	0x5c000100
	...
 554:	00000360 	.word	0x00000360
 558:	00000364 	.word	0x00000364
 55c:	00500001 	.word	0x00500001
 560:	00000000 	.word	0x00000000
 564:	64000000 	.word	0x64000000
 568:	6c000003 	.word	0x6c000003
 56c:	01000003 	.word	0x01000003
 570:	036c5d00 	.word	0x036c5d00
 574:	04080000 	.word	0x04080000
 578:	00020000 	.word	0x00020000
 57c:	0000087d 	.word	0x0000087d
 580:	00000000 	.word	0x00000000
 584:	03680000 	.word	0x03680000
 588:	039c0000 	.word	0x039c0000
 58c:	00010000 	.word	0x00010000
 590:	0003a051 	.word	0x0003a051
 594:	0003cc00 	.word	0x0003cc00
 598:	51000100 	.word	0x51000100
 59c:	000003d0 	.word	0x000003d0
 5a0:	00000404 	.word	0x00000404
 5a4:	00510001 	.word	0x00510001
 5a8:	00000000 	.word	0x00000000
 5ac:	08000000 	.word	0x08000000
 5b0:	0c000004 	.word	0x0c000004
 5b4:	01000004 	.word	0x01000004
 5b8:	040c5d00 	.word	0x040c5d00
 5bc:	045c0000 	.word	0x045c0000
 5c0:	00020000 	.word	0x00020000
 5c4:	0000087d 	.word	0x0000087d
 5c8:	00000000 	.word	0x00000000
 5cc:	045c0000 	.word	0x045c0000
 5d0:	04680000 	.word	0x04680000
 5d4:	00010000 	.word	0x00010000
 5d8:	0004685d 	.word	0x0004685d
 5dc:	0004cc00 	.word	0x0004cc00
 5e0:	7d000200 	.word	0x7d000200
 5e4:	00000008 	.word	0x00000008
 5e8:	00000000 	.word	0x00000000
 5ec:	00047000 	.word	0x00047000
 5f0:	00049000 	.word	0x00049000
 5f4:	53000100 	.word	0x53000100
 5f8:	00000494 	.word	0x00000494
 5fc:	000004b4 	.word	0x000004b4
 600:	b8530001 	.word	0xb8530001
 604:	cc000004 	.word	0xcc000004
 608:	01000004 	.word	0x01000004
 60c:	00005300 	.word	0x00005300
 610:	00000000 	.word	0x00000000
 614:	04cc0000 	.word	0x04cc0000
 618:	04d00000 	.word	0x04d00000
 61c:	00010000 	.word	0x00010000
 620:	0004d05d 	.word	0x0004d05d
 624:	0006a400 	.word	0x0006a400
 628:	7d000200 	.word	0x7d000200
 62c:	00000010 	.word	0x00000010
 630:	00000000 	.word	0x00000000
 634:	0004cc00 	.word	0x0004cc00
 638:	0004d800 	.word	0x0004d800
 63c:	50000100 	.word	0x50000100
 640:	000004d8 	.word	0x000004d8
 644:	000006a4 	.word	0x000006a4
 648:	00540001 	.word	0x00540001
 64c:	00000000 	.word	0x00000000
 650:	28000000 	.word	0x28000000
 654:	88000005 	.word	0x88000005
 658:	01000005 	.word	0x01000005
 65c:	05885100 	.word	0x05885100
 660:	059c0000 	.word	0x059c0000
 664:	00010000 	.word	0x00010000
 668:	0005c053 	.word	0x0005c053
 66c:	0005d400 	.word	0x0005d400
 670:	53000100 	.word	0x53000100
 674:	000005d8 	.word	0x000005d8
 678:	000005dc 	.word	0x000005dc
 67c:	dc530001 	.word	0xdc530001
 680:	54000005 	.word	0x54000005
 684:	01000006 	.word	0x01000006
 688:	06545500 	.word	0x06545500
 68c:	06700000 	.word	0x06700000
 690:	00010000 	.word	0x00010000
 694:	00000053 	.word	0x00000053
	...
 6a0:	00001400 	.word	0x00001400
 6a4:	5d000100 	.word	0x5d000100
 6a8:	00000014 	.word	0x00000014
 6ac:	00000098 	.word	0x00000098
 6b0:	247d0002 	.word	0x247d0002
	...
 6bc:	000000f0 	.word	0x000000f0
 6c0:	000000fc 	.word	0x000000fc
 6c4:	fc5d0001 	.word	0xfc5d0001
 6c8:	38000000 	.word	0x38000000
 6cc:	02000001 	.word	0x02000001
 6d0:	00087d00 	.word	0x00087d00
 6d4:	00000000 	.word	0x00000000
 6d8:	f0000000 	.word	0xf0000000
 6dc:	0c000000 	.word	0x0c000000
 6e0:	01000001 	.word	0x01000001
 6e4:	00005000 	.word	0x00005000
 6e8:	00000000 	.word	0x00000000
 6ec:	00f80000 	.word	0x00f80000
 6f0:	01080000 	.word	0x01080000
 6f4:	00010000 	.word	0x00010000
 6f8:	0000005c 	.word	0x0000005c
 6fc:	00000000 	.word	0x00000000
 700:	00013800 	.word	0x00013800
 704:	00014800 	.word	0x00014800
 708:	50000100 	.word	0x50000100
	...
 714:	00000140 	.word	0x00000140
 718:	00000144 	.word	0x00000144
 71c:	00520001 	.word	0x00520001
 720:	00000000 	.word	0x00000000
 724:	48000000 	.word	0x48000000
 728:	54000000 	.word	0x54000000
 72c:	01000000 	.word	0x01000000
 730:	00545d00 	.word	0x00545d00
 734:	00a00000 	.word	0x00a00000
 738:	00020000 	.word	0x00020000
 73c:	0000107d 	.word	0x0000107d
	...
 748:	00100000 	.word	0x00100000
 74c:	00010000 	.word	0x00010000
 750:	00001050 	.word	0x00001050
 754:	00005400 	.word	0x00005400
 758:	5c000100 	.word	0x5c000100
	...
 768:	00000018 	.word	0x00000018
 76c:	1c510001 	.word	0x1c510001
 770:	44000000 	.word	0x44000000
 774:	01000000 	.word	0x01000000
 778:	004c5100 	.word	0x004c5100
 77c:	00540000 	.word	0x00540000
 780:	00010000 	.word	0x00010000
 784:	00000051 	.word	0x00000051
 788:	00000000 	.word	0x00000000
 78c:	00001400 	.word	0x00001400
 790:	00004c00 	.word	0x00004c00
 794:	51000100 	.word	0x51000100
	...
 7a0:	00000028 	.word	0x00000028
 7a4:	00000030 	.word	0x00000030
 7a8:	30500001 	.word	0x30500001
 7ac:	38000000 	.word	0x38000000
 7b0:	01000000 	.word	0x01000000
 7b4:	00385300 	.word	0x00385300
 7b8:	004c0000 	.word	0x004c0000
 7bc:	00010000 	.word	0x00010000
 7c0:	00005050 	.word	0x00005050
 7c4:	00005000 	.word	0x00005000
 7c8:	50000100 	.word	0x50000100
	...
 7d4:	00000054 	.word	0x00000054
 7d8:	00000060 	.word	0x00000060
 7dc:	60500001 	.word	0x60500001
 7e0:	8c000000 	.word	0x8c000000
 7e4:	01000000 	.word	0x01000000
 7e8:	00005100 	.word	0x00005100
 7ec:	00000000 	.word	0x00000000
 7f0:	00600000 	.word	0x00600000
 7f4:	00800000 	.word	0x00800000
 7f8:	00010000 	.word	0x00010000
 7fc:	00000050 	.word	0x00000050
 800:	00000000 	.word	0x00000000
 804:	00008c00 	.word	0x00008c00
 808:	00009000 	.word	0x00009000
 80c:	5d000100 	.word	0x5d000100
 810:	00000090 	.word	0x00000090
 814:	00000100 	.word	0x00000100
 818:	187d0002 	.word	0x187d0002
	...
 824:	0000008c 	.word	0x0000008c
 828:	00000090 	.word	0x00000090
 82c:	94500001 	.word	0x94500001
 830:	98000000 	.word	0x98000000
 834:	01000000 	.word	0x01000000
 838:	00985000 	.word	0x00985000
 83c:	01000000 	.word	0x01000000
 840:	00010000 	.word	0x00010000
 844:	00000055 	.word	0x00000055
 848:	00000000 	.word	0x00000000
 84c:	0000c800 	.word	0x0000c800
 850:	0000d400 	.word	0x0000d400
 854:	91000200 	.word	0x91000200
 858:	0000e47f 	.word	0x0000e47f
 85c:	0000f400 	.word	0x0000f400
 860:	50000100 	.word	0x50000100
	...
 86c:	00000100 	.word	0x00000100
 870:	00000104 	.word	0x00000104
 874:	045d0001 	.word	0x045d0001
 878:	30000001 	.word	0x30000001
 87c:	02000002 	.word	0x02000002
 880:	00207d00 	.word	0x00207d00
	...
 88c:	04000001 	.word	0x04000001
 890:	01000001 	.word	0x01000001
 894:	010c5000 	.word	0x010c5000
 898:	01100000 	.word	0x01100000
 89c:	00010000 	.word	0x00010000
 8a0:	00011050 	.word	0x00011050
 8a4:	0001dc00 	.word	0x0001dc00
 8a8:	56000100 	.word	0x56000100
 8ac:	00000218 	.word	0x00000218
 8b0:	00000230 	.word	0x00000230
 8b4:	00560001 	.word	0x00560001
	...
 8c0:	04000001 	.word	0x04000001
 8c4:	01000001 	.word	0x01000001
 8c8:	01085100 	.word	0x01085100
 8cc:	01100000 	.word	0x01100000
 8d0:	00010000 	.word	0x00010000
 8d4:	00011051 	.word	0x00011051
 8d8:	0001e000 	.word	0x0001e000
 8dc:	54000100 	.word	0x54000100
 8e0:	00000218 	.word	0x00000218
 8e4:	00000230 	.word	0x00000230
 8e8:	00540001 	.word	0x00540001
 8ec:	00000000 	.word	0x00000000
 8f0:	4c000000 	.word	0x4c000000
 8f4:	50000001 	.word	0x50000001
 8f8:	01000001 	.word	0x01000001
 8fc:	015c5e00 	.word	0x015c5e00
 900:	01740000 	.word	0x01740000
 904:	00010000 	.word	0x00010000
 908:	0001785e 	.word	0x0001785e
 90c:	0001c800 	.word	0x0001c800
 910:	5e000100 	.word	0x5e000100
 914:	000001dc 	.word	0x000001dc
 918:	00000218 	.word	0x00000218
 91c:	24560001 	.word	0x24560001
 920:	30000002 	.word	0x30000002
 924:	01000002 	.word	0x01000002
 928:	00005600 	.word	0x00005600
 92c:	00000000 	.word	0x00000000
 930:	01e00000 	.word	0x01e00000
 934:	02180000 	.word	0x02180000
 938:	00010000 	.word	0x00010000
 93c:	00022454 	.word	0x00022454
 940:	00023000 	.word	0x00023000
 944:	54000100 	.word	0x54000100
	...
 950:	000001e8 	.word	0x000001e8
 954:	00000208 	.word	0x00000208
 958:	7f910002 	.word	0x7f910002
 95c:	00000208 	.word	0x00000208
 960:	00000218 	.word	0x00000218
 964:	077d0002 	.word	0x077d0002
 968:	00000224 	.word	0x00000224
 96c:	00000230 	.word	0x00000230
 970:	7f910002 	.word	0x7f910002
	...
 97c:	00000230 	.word	0x00000230
 980:	00000234 	.word	0x00000234
 984:	345d0001 	.word	0x345d0001
 988:	ac000002 	.word	0xac000002
 98c:	02000002 	.word	0x02000002
 990:	00107d00 	.word	0x00107d00
 994:	00000000 	.word	0x00000000
 998:	50000000 	.word	0x50000000
 99c:	64000002 	.word	0x64000002
 9a0:	02000002 	.word	0x02000002
 9a4:	687f9100 	.word	0x687f9100
 9a8:	84000002 	.word	0x84000002
 9ac:	02000002 	.word	0x02000002
 9b0:	84077d00 	.word	0x84077d00
 9b4:	98000002 	.word	0x98000002
 9b8:	01000002 	.word	0x01000002
 9bc:	029c5c00 	.word	0x029c5c00
 9c0:	02ac0000 	.word	0x02ac0000
 9c4:	00020000 	.word	0x00020000
 9c8:	0000077d 	.word	0x0000077d
 9cc:	00000000 	.word	0x00000000
 9d0:	02ac0000 	.word	0x02ac0000
 9d4:	02b00000 	.word	0x02b00000
 9d8:	00010000 	.word	0x00010000
 9dc:	0002b05d 	.word	0x0002b05d
 9e0:	00034800 	.word	0x00034800
 9e4:	7d000200 	.word	0x7d000200
 9e8:	00000010 	.word	0x00000010
 9ec:	00000000 	.word	0x00000000
 9f0:	0002d400 	.word	0x0002d400
 9f4:	0002e800 	.word	0x0002e800
 9f8:	91000200 	.word	0x91000200
 9fc:	0002ec7f 	.word	0x0002ec7f
 a00:	00030800 	.word	0x00030800
 a04:	7d000200 	.word	0x7d000200
 a08:	00030807 	.word	0x00030807
 a0c:	00031c00 	.word	0x00031c00
 a10:	5c000100 	.word	0x5c000100
 a14:	00000320 	.word	0x00000320
 a18:	00000348 	.word	0x00000348
 a1c:	077d0002 	.word	0x077d0002
	...
 a2c:	0000000c 	.word	0x0000000c
 a30:	0c5d0001 	.word	0x0c5d0001
 a34:	48000000 	.word	0x48000000
 a38:	02000000 	.word	0x02000000
 a3c:	00147d00 	.word	0x00147d00
 a40:	00000000 	.word	0x00000000
 a44:	48000000 	.word	0x48000000
 a48:	58000000 	.word	0x58000000
 a4c:	01000000 	.word	0x01000000
 a50:	00585d00 	.word	0x00585d00
 a54:	009c0000 	.word	0x009c0000
 a58:	00020000 	.word	0x00020000
 a5c:	0000087d 	.word	0x0000087d
 a60:	00000000 	.word	0x00000000
 a64:	00480000 	.word	0x00480000
 a68:	00680000 	.word	0x00680000
 a6c:	00010000 	.word	0x00010000
 a70:	00000050 	.word	0x00000050
 a74:	00000000 	.word	0x00000000
 a78:	0000e800 	.word	0x0000e800
 a7c:	00011000 	.word	0x00011000
 a80:	50000100 	.word	0x50000100
	...
 a8c:	00000118 	.word	0x00000118
 a90:	0000011c 	.word	0x0000011c
 a94:	1c5d0001 	.word	0x1c5d0001
 a98:	6c000001 	.word	0x6c000001
 a9c:	02000001 	.word	0x02000001
 aa0:	00087d00 	.word	0x00087d00
 aa4:	00000000 	.word	0x00000000
 aa8:	18000000 	.word	0x18000000
 aac:	2c000001 	.word	0x2c000001
 ab0:	01000001 	.word	0x01000001
 ab4:	012c5000 	.word	0x012c5000
 ab8:	013c0000 	.word	0x013c0000
 abc:	00010000 	.word	0x00010000
 ac0:	00000053 	.word	0x00000053
 ac4:	00000000 	.word	0x00000000
 ac8:	00016c00 	.word	0x00016c00
 acc:	00017800 	.word	0x00017800
 ad0:	5d000100 	.word	0x5d000100
 ad4:	00000178 	.word	0x00000178
 ad8:	000001f0 	.word	0x000001f0
 adc:	187d0002 	.word	0x187d0002
	...
 aec:	00000010 	.word	0x00000010
 af0:	00500001 	.word	0x00500001
 af4:	00000000 	.word	0x00000000
 af8:	44000000 	.word	0x44000000
 afc:	48000000 	.word	0x48000000
 b00:	01000000 	.word	0x01000000
 b04:	00485d00 	.word	0x00485d00
 b08:	02ec0000 	.word	0x02ec0000
 b0c:	00020000 	.word	0x00020000
 b10:	00000c7d 	.word	0x00000c7d
 b14:	00000000 	.word	0x00000000
 b18:	00440000 	.word	0x00440000
 b1c:	00580000 	.word	0x00580000
 b20:	00010000 	.word	0x00010000
 b24:	00005850 	.word	0x00005850
 b28:	0002ec00 	.word	0x0002ec00
 b2c:	54000100 	.word	0x54000100
	...
 b38:	00000044 	.word	0x00000044
 b3c:	000000b8 	.word	0x000000b8
 b40:	68510001 	.word	0x68510001
 b44:	ec000002 	.word	0xec000002
 b48:	01000002 	.word	0x01000002
 b4c:	00005100 	.word	0x00005100
 b50:	00000000 	.word	0x00000000
 b54:	00440000 	.word	0x00440000
 b58:	00740000 	.word	0x00740000
 b5c:	00010000 	.word	0x00010000
 b60:	00007452 	.word	0x00007452
 b64:	00026400 	.word	0x00026400
 b68:	50000100 	.word	0x50000100
 b6c:	00000268 	.word	0x00000268
 b70:	0000026c 	.word	0x0000026c
 b74:	6c500001 	.word	0x6c500001
 b78:	74000002 	.word	0x74000002
 b7c:	01000002 	.word	0x01000002
 b80:	00005200 	.word	0x00005200
 b84:	00000000 	.word	0x00000000
 b88:	00440000 	.word	0x00440000
 b8c:	00500000 	.word	0x00500000
 b90:	00010000 	.word	0x00010000
 b94:	00005053 	.word	0x00005053
 b98:	0002ec00 	.word	0x0002ec00
 b9c:	55000100 	.word	0x55000100
	...
 ba8:	0000007c 	.word	0x0000007c
 bac:	00000274 	.word	0x00000274
 bb0:	00520001 	.word	0x00520001
 bb4:	00000000 	.word	0x00000000
 bb8:	64000000 	.word	0x64000000
 bbc:	e4000002 	.word	0xe4000002
 bc0:	01000002 	.word	0x01000002
 bc4:	00005000 	.word	0x00005000
 bc8:	00000000 	.word	0x00000000
 bcc:	02840000 	.word	0x02840000
 bd0:	02880000 	.word	0x02880000
 bd4:	00010000 	.word	0x00010000
 bd8:	00000053 	.word	0x00000053
 bdc:	00000000 	.word	0x00000000
 be0:	0002ec00 	.word	0x0002ec00
 be4:	0002f000 	.word	0x0002f000
 be8:	5d000100 	.word	0x5d000100
 bec:	000002f0 	.word	0x000002f0
 bf0:	00000330 	.word	0x00000330
 bf4:	087d0002 	.word	0x087d0002
	...
 c00:	00000010 	.word	0x00000010
 c04:	00000014 	.word	0x00000014
 c08:	00500001 	.word	0x00500001
 c0c:	00000000 	.word	0x00000000
 c10:	Address 0x00000c10 is out of bounds.


Disassembly of section .debug_pubnames:

00000000 <.debug_pubnames>:
   0:	00000023 	andeq	r0, r0, r3, lsr #32
   4:	00000002 	andeq	r0, r0, r2
   8:	03060000 	movweq	r0, #24576	; 0x6000
   c:	01eb0000 	mvneq	r0, r0
  10:	616d0000 	cmnvs	sp, r0
  14:	bf006e69 	svclt	0x00006e69
  18:	70000002 	andvc	r0, r0, r2
  1c:	6e695f6d 	cdpvs	15, 6, cr5, cr9, cr13, {3}
  20:	00006f66 	andeq	r6, r0, r6, ror #30
  24:	34000000 	strcc	r0, [r0]
  28:	02000000 	andeq	r0, r0, #0	; 0x0
  2c:	00030600 	andeq	r0, r3, r0, lsl #12
  30:	00010100 	andeq	r0, r1, r0, lsl #2
  34:	00006b00 	andeq	r6, r0, r0, lsl #22
  38:	61747300 	cmnvs	r4, r0, lsl #6
  3c:	7962646e 	stmdbvc	r2!, {r1, r2, r3, r5, r6, sl, sp, lr}^
  40:	6d656d5f 	stclvs	13, cr6, [r5, #-380]!
  44:	00797063 	rsbseq	r7, r9, r3, rrx
  48:	000000cd 	andeq	r0, r0, sp, asr #1
  4c:	6e617473 	mcrvs	4, 3, r7, cr1, cr3, {3}
  50:	5f796264 	svcpl	0x00796264
  54:	6c65646d 	cfstrdvs	mvd6, [r5], #-436
  58:	00007961 	andeq	r7, r0, r1, ror #18
  5c:	b4000000 	strlt	r0, [r0]
  60:	02000001 	andeq	r0, r0, #1	; 0x1
  64:	00049600 	andeq	r9, r4, r0, lsl #12
  68:	00230800 	eoreq	r0, r3, r0, lsl #16
  6c:	00210500 	eoreq	r0, r1, r0, lsl #10
  70:	61747300 	cmnvs	r4, r0, lsl #6
  74:	7962646e 	stmdbvc	r2!, {r1, r2, r3, r5, r6, sl, sp, lr}^
  78:	6b6c635f 	blvs	1b18dfc <__standby_start+0x1b18dfc>
  7c:	696e695f 	stmdbvs	lr!, {r0, r1, r2, r3, r4, r6, r8, fp, sp, lr}^
  80:	211e0074 	tstcs	lr, r4, ror r0
  84:	74730000 	ldrbtvc	r0, [r3]
  88:	62646e61 	rsbvs	r6, r4, #1552	; 0x610
  8c:	6c635f79 	stclvs	15, cr5, [r3], #-484
  90:	78655f6b 	stmdavc	r5!, {r0, r1, r3, r5, r6, r8, r9, sl, fp, ip, lr}^
  94:	35007469 	strcc	r7, [r0, #-1129]
  98:	73000021 	movwvc	r0, #33	; 0x21
  9c:	646e6174 	strbtvs	r6, [lr], #-372
  a0:	635f7962 	cmpvs	pc, #1605632	; 0x188000
  a4:	635f6b6c 	cmpvs	pc, #110592	; 0x1b000
  a8:	3265726f 	rsbcc	r7, r5, #-268435450	; 0xf0000006
  ac:	63736f6c 	cmnvs	r3, #432	; 0x1b0
  b0:	00214c00 	eoreq	r4, r1, r0, lsl #24
  b4:	61747300 	cmnvs	r4, r0, lsl #6
  b8:	7962646e 	stmdbvc	r2!, {r1, r2, r3, r5, r6, sl, sp, lr}^
  bc:	6b6c635f 	blvs	1b18e40 <__standby_start+0x1b18e40>
  c0:	726f635f 	rsbvc	r6, pc, #2080374785	; 0x7c000001
  c4:	6f683265 	svcvs	0x00683265
  c8:	63006373 	movwvs	r6, #883	; 0x373
  cc:	73000021 	movwvc	r0, #33	; 0x21
  d0:	646e6174 	strbtvs	r6, [lr], #-372
  d4:	635f7962 	cmpvs	pc, #1605632	; 0x188000
  d8:	635f6b6c 	cmpvs	pc, #110592	; 0x1b000
  dc:	3265726f 	rsbcc	r7, r5, #-268435450	; 0xf0000006
  e0:	006c6c70 	rsbeq	r6, ip, r0, ror ip
  e4:	0000217a 	andeq	r2, r0, sl, ror r1
  e8:	6e617473 	mcrvs	4, 3, r7, cr1, cr3, {3}
  ec:	5f796264 	svcpl	0x00796264
  f0:	5f6b6c63 	svcpl	0x006b6c63
  f4:	646c6c70 	strbtvs	r6, [ip], #-3184
  f8:	62617369 	rsbvs	r7, r1, #-1543503871	; 0xa4000001
  fc:	9100656c 	tstls	r0, ip, ror #10
 100:	73000021 	movwvc	r0, #33	; 0x21
 104:	646e6174 	strbtvs	r6, [lr], #-372
 108:	635f7962 	cmpvs	pc, #1605632	; 0x188000
 10c:	705f6b6c 	subsvc	r6, pc, ip, ror #22
 110:	6e656c6c 	cdpvs	12, 6, cr6, cr5, cr12, {3}
 114:	656c6261 	strbvs	r6, [ip, #-609]!
 118:	0021a800 	eoreq	sl, r1, r0, lsl #16
 11c:	61747300 	cmnvs	r4, r0, lsl #6
 120:	7962646e 	stmdbvc	r2!, {r1, r2, r3, r5, r6, sl, sp, lr}^
 124:	6b6c635f 	blvs	1b18ea8 <__standby_start+0x1b18ea8>
 128:	736f685f 	cmnvc	pc, #6225920	; 0x5f0000
 12c:	73696463 	cmnvc	r9, #1660944384	; 0x63000000
 130:	656c6261 	strbvs	r6, [ip, #-609]!
 134:	0021bf00 	eoreq	fp, r1, r0, lsl #30
 138:	61747300 	cmnvs	r4, r0, lsl #6
 13c:	7962646e 	stmdbvc	r2!, {r1, r2, r3, r5, r6, sl, sp, lr}^
 140:	6b6c635f 	blvs	1b18ec4 <__standby_start+0x1b18ec4>
 144:	736f685f 	cmnvc	pc, #6225920	; 0x5f0000
 148:	616e6563 	cmnvs	lr, r3, ror #10
 14c:	00656c62 	rsbeq	r6, r5, r2, ror #24
 150:	000021d6 	ldrdeq	r2, [r0], -r6
 154:	6e617473 	mcrvs	4, 3, r7, cr1, cr3, {3}
 158:	5f796264 	svcpl	0x00796264
 15c:	5f6b6c63 	svcpl	0x006b6c63
 160:	646f646c 	strbtvs	r6, [pc], #1132	; 168 <__standby_start+0x168>
 164:	62617369 	rsbvs	r7, r1, #-1543503871	; 0xa4000001
 168:	ee00656c 	cfsh32	mvfx6, mvfx0, #60
 16c:	73000021 	movwvc	r0, #33	; 0x21
 170:	646e6174 	strbtvs	r6, [lr], #-372
 174:	635f7962 	cmpvs	pc, #1605632	; 0x188000
 178:	6c5f6b6c 	mrrcvs	11, 6, r6, pc, cr12
 17c:	6e656f64 	cdpvs	15, 6, cr6, cr5, cr4, {3}
 180:	656c6261 	strbvs	r6, [ip, #-609]!
 184:	00220600 	eoreq	r0, r2, r0, lsl #12
 188:	61747300 	cmnvs	r4, r0, lsl #6
 18c:	7962646e 	stmdbvc	r2!, {r1, r2, r3, r5, r6, sl, sp, lr}^
 190:	6b6c635f 	blvs	1b18f14 <__standby_start+0x1b18f14>
 194:	7465735f 	strbtvc	r7, [r5], #-863
 198:	00766964 	rsbseq	r6, r6, r4, ror #18
 19c:	00002239 	andeq	r2, r0, r9, lsr r2
 1a0:	6e617473 	mcrvs	4, 3, r7, cr1, cr3, {3}
 1a4:	5f796264 	svcpl	0x00796264
 1a8:	5f6b6c63 	svcpl	0x006b6c63
 1ac:	64746567 	ldrbtvs	r6, [r4], #-1383
 1b0:	66007669 	strvs	r7, [r0], -r9, ror #12
 1b4:	73000022 	movwvc	r0, #34	; 0x22
 1b8:	646e6174 	strbtvs	r6, [lr], #-372
 1bc:	635f7962 	cmpvs	pc, #1605632	; 0x188000
 1c0:	645f6b6c 	ldrbvs	r6, [pc], #2924	; 1c8 <__standby_start+0x1c8>
 1c4:	676d6172 	undefined
 1c8:	6e697461 	cdpvs	4, 6, cr7, cr9, cr1, {3}
 1cc:	228d0067 	addcs	r0, sp, #103	; 0x67
 1d0:	74730000 	ldrbtvc	r0, [r3]
 1d4:	62646e61 	rsbvs	r6, r4, #1552	; 0x610
 1d8:	6c635f79 	stclvs	15, cr5, [r3], #-484
 1dc:	70615f6b 	rsbvc	r5, r1, fp, ror #30
 1e0:	6f6c3262 	svcvs	0x006c3262
 1e4:	a5006373 	strge	r6, [r0, #-883]
 1e8:	73000022 	movwvc	r0, #34	; 0x22
 1ec:	646e6174 	strbtvs	r6, [lr], #-372
 1f0:	635f7962 	cmpvs	pc, #1605632	; 0x188000
 1f4:	615f6b6c 	cmpvs	pc, ip, ror #22
 1f8:	68326270 	ldmdavs	r2!, {r4, r5, r6, r9, sp, lr}
 1fc:	0063736f 	rsbeq	r7, r3, pc, ror #6
 200:	000022f5 	strdeq	r2, [r0], -r5
 204:	5f757063 	svcpl	0x00757063
 208:	6c5f736d 	mrrcvs	3, 6, r7, pc, cr13
 20c:	63706f6f 	cmnvs	r0, #444	; 0x1bc
 210:	0000746e 	andeq	r7, r0, lr, ror #8
 214:	1f000000 	svcne	0x00000000
 218:	02000002 	andeq	r0, r0, #2	; 0x2
 21c:	00279e00 	eoreq	r9, r7, r0, lsl #28
 220:	0004f900 	andeq	pc, r4, r0, lsl #18
 224:	00008b00 	andeq	r8, r0, r0, lsl #22
 228:	41524400 	cmpmi	r2, r0, lsl #8
 22c:	685f434d 	ldmdavs	pc, {r0, r2, r3, r6, r8, r9, lr}^
 230:	7074736f 	rsbsvc	r7, r4, pc, ror #6
 234:	5f74726f 	svcpl	0x0074726f
 238:	6f5f6e6f 	svcvs	0x005f6e6f
 23c:	c9006666 	stmdbgt	r0, {r1, r2, r5, r6, r9, sl, sp, lr}
 240:	44000000 	strmi	r0, [r0]
 244:	434d4152 	movtmi	r4, #53586	; 0xd152
 248:	736f685f 	cmnvc	pc, #6225920	; 0x5f0000
 24c:	726f7074 	rsbvc	r7, pc, #116	; 0x74
 250:	68635f74 	stmdavs	r3!, {r2, r4, r5, r6, r8, r9, sl, fp, ip, lr}^
 254:	5f6b6365 	svcpl	0x006b6365
 258:	5f626861 	svcpl	0x00626861
 25c:	6f666966 	svcvs	0x00666966
 260:	6174735f 	cmnvs	r4, pc, asr r3
 264:	00737574 	rsbseq	r7, r3, r4, ror r5
 268:	00000103 	andeq	r0, r0, r3, lsl #2
 26c:	4d415244 	sfmmi	f5, 2, [r1, #-272]
 270:	6f685f43 	svcvs	0x00685f43
 274:	6f707473 	svcvs	0x00707473
 278:	735f7472 	cmpvc	pc, #1912602624	; 0x72000000
 27c:	70757465 	rsbsvc	r7, r5, r5, ror #8
 280:	00016600 	andeq	r6, r1, r0, lsl #12
 284:	61726400 	cmnvs	r2, r0, lsl #8
 288:	6f685f6d 	svcvs	0x00685f6d
 28c:	6f707473 	svcvs	0x00707473
 290:	6f5f7472 	svcvs	0x005f7472
 294:	666f5f6e 	strbtvs	r5, [pc], -lr, ror #30
 298:	019e0066 	orrseq	r0, lr, r6, rrx
 29c:	72640000 	rsbvc	r0, r4, #0	; 0x0
 2a0:	685f6d61 	ldmdavs	pc, {r0, r5, r6, r8, sl, fp, sp, lr}^
 2a4:	7074736f 	rsbsvc	r7, r4, pc, ror #6
 2a8:	5f74726f 	svcpl	0x0074726f
 2ac:	63656863 	cmnvs	r5, #6488064	; 0x630000
 2b0:	68615f6b 	stmdavs	r1!, {r0, r1, r3, r5, r6, r8, r9, sl, fp, ip, lr}^
 2b4:	69665f62 	stmdbvs	r6!, {r1, r5, r6, r8, r9, sl, fp, ip, lr}^
 2b8:	735f6f66 	cmpvc	pc, #408	; 0x198
 2bc:	75746174 	ldrbvc	r6, [r4, #-372]!
 2c0:	01cb0073 	biceq	r0, fp, r3, ror r0
 2c4:	72640000 	rsbvc	r0, r4, #0	; 0x0
 2c8:	685f6d61 	ldmdavs	pc, {r0, r5, r6, r8, sl, fp, sp, lr}^
 2cc:	7074736f 	rsbsvc	r7, r4, pc, ror #6
 2d0:	5f74726f 	svcpl	0x0074726f
 2d4:	75746573 	ldrbvc	r6, [r4, #-1395]!
 2d8:	02240070 	eoreq	r0, r4, #112	; 0x70
 2dc:	636d0000 	cmnvs	sp, #0	; 0x0
 2e0:	615f6c74 	cmpvs	pc, r4, ror ip
 2e4:	725f6268 	subsvc	r6, pc, #-2147483642	; 0x80000006
 2e8:	74657365 	strbtvc	r7, [r5], #-869
 2ec:	00025a00 	andeq	r5, r2, r0, lsl #20
 2f0:	41524400 	cmpmi	r2, r0, lsl #8
 2f4:	655f434d 	ldrbvs	r4, [pc, #-845]	; ffffffaf <__bss_end+0xfffdf27>
 2f8:	7265746e 	rsbvc	r7, r5, #1845493760	; 0x6e000000
 2fc:	776f705f 	undefined
 300:	645f7265 	ldrbvs	r7, [pc], #613	; 308 <__standby_start+0x308>
 304:	006e776f 	rsbeq	r7, lr, pc, ror #14
 308:	0000028a 	andeq	r0, r0, sl, lsl #5
 30c:	6d617264 	sfmvs	f7, 2, [r1, #-400]!
 310:	746e655f 	strbtvc	r6, [lr], #-1375
 314:	705f7265 	subsvc	r7, pc, r5, ror #4
 318:	7265776f 	rsbvc	r7, r5, #29097984	; 0x1bc0000
 31c:	776f645f 	undefined
 320:	029e006e 	addseq	r0, lr, #110	; 0x6e
 324:	636d0000 	cmnvs	sp, #0	; 0x0
 328:	6d5f6c74 	ldclvs	12, cr6, [pc, #-464]
 32c:	5f65646f 	svcpl	0x0065646f
 330:	74697865 	strbtvc	r7, [r9], #-2149
 334:	0002ce00 	andeq	ip, r2, r0, lsl #28
 338:	41524400 	cmpmi	r2, r0, lsl #8
 33c:	655f434d 	ldrbvs	r4, [pc, #-845]	; fffffff7 <__bss_end+0xfffdf6f>
 340:	5f746978 	svcpl	0x00746978
 344:	65776f70 	ldrbvs	r6, [r7, #-3952]!
 348:	6f645f72 	svcvs	0x00645f72
 34c:	e1006e77 	tst	r0, r7, ror lr
 350:	64000002 	strvs	r0, [r0], #-2
 354:	5f6d6172 	svcpl	0x006d6172
 358:	74697865 	strbtvc	r7, [r9], #-2149
 35c:	776f705f 	undefined
 360:	645f7265 	ldrbvs	r7, [pc], #613	; 368 <__standby_start+0x368>
 364:	006e776f 	rsbeq	r7, lr, pc, ror #14
 368:	000002f5 	strdeq	r0, [r0], -r5
 36c:	4d415244 	sfmmi	f5, 2, [r1, #-272]
 370:	78655f43 	stmdavc	r5!, {r0, r1, r6, r8, r9, sl, fp, ip, lr}^
 374:	735f7469 	cmpvc	pc, #1761607680	; 0x69000000
 378:	72666c65 	rsbvc	r6, r6, #25856	; 0x6500
 37c:	65726665 	ldrbvs	r6, [r2, #-1637]!
 380:	29006873 	stmdbcs	r0, {r0, r1, r4, r5, r6, fp, sp, lr}
 384:	64000003 	strvs	r0, [r0], #-3
 388:	5f6d6172 	svcpl	0x006d6172
 38c:	74697865 	strbtvc	r7, [r9], #-2149
 390:	6c65735f 	stclvs	3, cr7, [r5], #-380
 394:	66657266 	strbtvs	r7, [r5], -r6, ror #4
 398:	68736572 	ldmdavs	r3!, {r1, r4, r5, r6, r8, sl, sp, lr}^
 39c:	00033d00 	andeq	r3, r3, r0, lsl #26
 3a0:	74636d00 	strbtvc	r6, [r3], #-3328
 3a4:	72705f6c 	rsbsvc	r5, r0, #432	; 0x1b0
 3a8:	61686365 	cmnvs	r8, r5, ror #6
 3ac:	5f656772 	svcpl	0x00656772
 3b0:	006c6c61 	rsbeq	r6, ip, r1, ror #24
 3b4:	0000036d 	andeq	r0, r0, sp, ror #6
 3b8:	4d415244 	sfmmi	f5, 2, [r1, #-272]
 3bc:	6e655f43 	cdpvs	15, 6, cr5, cr5, cr3, {2}
 3c0:	5f726574 	svcpl	0x00726574
 3c4:	666c6573 	undefined
 3c8:	72666572 	rsbvc	r6, r6, #478150656	; 0x1c800000
 3cc:	00687365 	rsbeq	r7, r8, r5, ror #6
 3d0:	000003a3 	andeq	r0, r0, r3, lsr #7
 3d4:	6d617264 	sfmvs	f7, 2, [r1, #-400]!
 3d8:	746e655f 	strbtvc	r6, [lr], #-1375
 3dc:	735f7265 	cmpvc	pc, #1342177286	; 0x50000006
 3e0:	72666c65 	rsbvc	r6, r6, #25856	; 0x6500
 3e4:	65726665 	ldrbvs	r6, [r2, #-1637]!
 3e8:	b7006873 	smlsdxlt	r0, r3, r8, r6
 3ec:	64000003 	strvs	r0, [r0], #-3
 3f0:	5f6d6172 	svcpl	0x006d6172
 3f4:	65776f70 	ldrbvs	r6, [r7, #-3952]!
 3f8:	61735f72 	cmnvs	r3, r2, ror pc
 3fc:	705f6576 	subsvc	r6, pc, r6, ror r5
 400:	65636f72 	strbvs	r6, [r3, #-3954]!
 404:	de007373 	mcrle	3, 0, r7, cr0, cr3, {3}
 408:	44000003 	strmi	r0, [r0], #-3
 40c:	434d4152 	movtmi	r4, #53586	; 0xd152
 410:	7465725f 	strbtvc	r7, [r5], #-607
 414:	6e696172 	mcrvs	1, 3, r6, cr9, cr2, {3}
 418:	00676e69 	rsbeq	r6, r7, r9, ror #28
 41c:	000004c5 	andeq	r0, r0, r5, asr #9
 420:	6d617264 	sfmvs	f7, 2, [r1, #-400]!
 424:	776f705f 	undefined
 428:	755f7265 	ldrbvc	r7, [pc, #-613]	; 1cb <__standby_start+0x1cb>
 42c:	72705f70 	rsbsvc	r5, r0, #448	; 0x1c0
 430:	7365636f 	cmnvc	r5, #-1140850687	; 0xbc000001
 434:	00000073 	andeq	r0, r0, r3, ror r0
 438:	01f40000 	mvnseq	r0, r0
 43c:	00020000 	andeq	r0, r2, r0
 440:	00002c97 	muleq	r0, r7, ip
 444:	00000622 	andeq	r0, r0, r2, lsr #12
 448:	000001d5 	ldrdeq	r0, [r0], -r5
 44c:	6c74636d 	ldclvs	3, cr6, [r4], #-436
 450:	7465735f 	strbtvc	r7, [r5], #-863
 454:	6972645f 	ldmdbvs	r2!, {r0, r1, r2, r3, r4, r6, sl, sp, lr}^
 458:	fa006576 	blx	19a38 <__standby_start+0x19a38>
 45c:	6d000001 	stcvs	0, cr0, [r0, #-4]
 460:	5f6c7463 	svcpl	0x006c7463
 464:	5f6d7469 	svcpl	0x006d7469
 468:	61736964 	cmnvs	r3, r4, ror #18
 46c:	00656c62 	rsbeq	r6, r5, r2, ror #24
 470:	0000021f 	andeq	r0, r0, pc, lsl r2
 474:	6c74636d 	ldclvs	3, cr6, [r4], #-436
 478:	6d74695f 	ldclvs	9, cr6, [r4, #-380]!
 47c:	616e655f 	cmnvs	lr, pc, asr r5
 480:	00656c62 	rsbeq	r6, r5, r2, ror #24
 484:	00000244 	andeq	r0, r0, r4, asr #4
 488:	6c74636d 	ldclvs	3, cr6, [r4], #-436
 48c:	7369645f 	cmnvc	r9, #1593835520	; 0x5f000000
 490:	656c6261 	strbvs	r6, [ip, #-609]!
 494:	6c6c645f 	cfstrdvs	mvd6, [ip], #-380
 498:	00026900 	andeq	r6, r2, r0, lsl #18
 49c:	74636d00 	strbtvc	r6, [r3], #-3328
 4a0:	6f635f6c 	svcvs	0x00635f6c
 4a4:	6769666e 	strbvs	r6, [r9, -lr, ror #12]!
 4a8:	5f657275 	svcpl	0x00657275
 4ac:	74736f68 	ldrbtvc	r6, [r3], #-3944
 4b0:	74726f70 	ldrbtvc	r6, [r2], #-3952
 4b4:	00028c00 	andeq	r8, r2, r0, lsl #24
 4b8:	41524400 	cmpmi	r2, r0, lsl #8
 4bc:	655f434d 	ldrbvs	r4, [pc, #-845]	; 177 <__standby_start+0x177>
 4c0:	00746978 	rsbseq	r6, r4, r8, ror r9
 4c4:	0000029b 	muleq	r0, fp, r2
 4c8:	4d415244 	sfmmi	f5, 2, [r1, #-272]
 4cc:	63735f43 	cmnvs	r3, #268	; 0x10c
 4d0:	725f6e61 	subsvc	r6, pc, #1552	; 0x610
 4d4:	70646165 	rsbvc	r6, r4, r5, ror #2
 4d8:	00657069 	rsbeq	r7, r5, r9, rrx
 4dc:	000002c8 	andeq	r0, r0, r8, asr #5
 4e0:	4d415244 	sfmmi	f5, 2, [r1, #-272]
 4e4:	6c635f43 	stclvs	15, cr5, [r3], #-268
 4e8:	5f6b636f 	svcpl	0x006b636f
 4ec:	7074756f 	rsbsvc	r7, r4, pc, ror #10
 4f0:	655f7475 	ldrbvs	r7, [pc, #-1141]	; 83 <__standby_start+0x83>
 4f4:	02fe006e 	rscseq	r0, lr, #110	; 0x6e
 4f8:	52440000 	subpl	r0, r4, #0	; 0x0
 4fc:	5f434d41 	svcpl	0x00434d41
 500:	5f746573 	svcpl	0x00746573
 504:	6f747561 	svcvs	0x00747561
 508:	72666572 	rsbvc	r6, r6, #478150656	; 0x1c800000
 50c:	5f687365 	svcpl	0x00687365
 510:	6c637963 	stclvs	9, cr7, [r3], #-396
 514:	03510065 	cmpeq	r1, #101	; 0x65
 518:	52440000 	subpl	r0, r4, #0	; 0x0
 51c:	5f434d41 	svcpl	0x00434d41
 520:	5f746567 	svcpl	0x00746567
 524:	6d617264 	sfmvs	f7, 2, [r1, #-400]!
 528:	7a69735f 	bvc	1a5d2ac <__standby_start+0x1a5d2ac>
 52c:	039c0065 	orrseq	r0, ip, #101	; 0x65
 530:	72640000 	rsbvc	r0, r4, #0	; 0x0
 534:	695f6d61 	ldmdbvs	pc, {r0, r5, r6, r8, sl, fp, sp, lr}^
 538:	0074696e 	rsbseq	r6, r4, lr, ror #18
 53c:	000003b4 	strheq	r0, [r0], -r4
 540:	6d617264 	sfmvs	f7, 2, [r1, #-400]!
 544:	6978655f 	ldmdbvs	r8!, {r0, r1, r2, r3, r4, r6, r8, sl, sp, lr}^
 548:	03cc0074 	biceq	r0, ip, #116	; 0x74
 54c:	72640000 	rsbvc	r0, r4, #0	; 0x0
 550:	675f6d61 	ldrbvs	r6, [pc, -r1, ror #26]
 554:	735f7465 	cmpvc	pc, #1694498816	; 0x65000000
 558:	00657a69 	rsbeq	r7, r5, r9, ror #20
 55c:	000003e4 	andeq	r0, r0, r4, ror #7
 560:	6d617264 	sfmvs	f7, 2, [r1, #-400]!
 564:	7465735f 	strbtvc	r7, [r5], #-863
 568:	6972645f 	ldmdbvs	r2!, {r0, r1, r2, r3, r4, r6, sl, sp, lr}^
 56c:	f8006576 	undefined instruction 0xf8006576
 570:	64000003 	strvs	r0, [r0], #-3
 574:	5f6d6172 	svcpl	0x006d6172
 578:	5f746573 	svcpl	0x00746573
 57c:	6f747561 	svcvs	0x00747561
 580:	72666572 	rsbvc	r6, r6, #478150656	; 0x1c800000
 584:	5f687365 	svcpl	0x00687365
 588:	6c637963 	stclvs	9, cr7, [r3], #-396
 58c:	04210065 	strteq	r0, [r1], #-101
 590:	72640000 	rsbvc	r0, r4, #0	; 0x0
 594:	735f6d61 	cmpvc	pc, #6208	; 0x1840
 598:	5f6e6163 	svcpl	0x006e6163
 59c:	64616572 	strbtvs	r6, [r1], #-1394
 5a0:	65706970 	ldrbvs	r6, [r0, #-2416]!
 5a4:	00048200 	andeq	r8, r4, r0, lsl #4
 5a8:	74636d00 	strbtvc	r6, [r3], #-3328
 5ac:	65735f6c 	ldrbvs	r5, [r3, #-3948]!
 5b0:	5f707574 	svcpl	0x00707574
 5b4:	6d617264 	sfmvs	f7, 2, [r1, #-400]!
 5b8:	6f6c635f 	svcvs	0x006c635f
 5bc:	04006b63 	streq	r6, [r0], #-2915
 5c0:	64000005 	strvs	r0, [r0], #-5
 5c4:	5f6d6172 	svcpl	0x006d6172
 5c8:	5f746573 	svcpl	0x00746573
 5cc:	636f6c63 	cmnvs	pc, #25344	; 0x6300
 5d0:	052d006b 	streq	r0, [sp, #-107]!
 5d4:	636d0000 	cmnvs	sp, #0	; 0x0
 5d8:	655f6c74 	ldrbvs	r6, [pc, #-3188]	; fffff96c <__bss_end+0xfffd8e4>
 5dc:	6c62616e 	stfvse	f6, [r2], #-440
 5e0:	6c645f65 	stclvs	15, cr5, [r4], #-404
 5e4:	5400786c 	strpl	r7, [r0], #-2156
 5e8:	6d000005 	stcvs	0, cr0, [r0, #-20]
 5ec:	5f6c7463 	svcpl	0x006c7463
 5f0:	62616e65 	rsbvs	r6, r1, #1616	; 0x650
 5f4:	645f656c 	ldrbvs	r6, [pc], #1388	; 5fc <__standby_start+0x5fc>
 5f8:	00306c6c 	eorseq	r6, r0, ip, ror #24
 5fc:	00000577 	andeq	r0, r0, r7, ror r5
 600:	6c74636d 	ldclvs	3, cr6, [r4], #-436
 604:	7264645f 	rsbvc	r6, r4, #1593835520	; 0x5f000000
 608:	65725f33 	ldrbvs	r5, [r2, #-3891]!
 60c:	00746573 	rsbseq	r6, r4, r3, ror r5
 610:	000005a9 	andeq	r0, r0, r9, lsr #11
 614:	4d415244 	sfmmi	f5, 2, [r1, #-272]
 618:	6e695f43 	cdpvs	15, 6, cr5, cr9, cr3, {2}
 61c:	0f007469 	svceq	0x00007469
 620:	68000006 	stmdavs	r0, {r1, r2}
 624:	5f726370 	svcpl	0x00726370
 628:	756c6176 	strbvc	r6, [ip, #-374]!
 62c:	00000065 	andeq	r0, r0, r5, rrx
 630:	00650000 	rsbeq	r0, r5, r0
 634:	00020000 	andeq	r0, r2, r0
 638:	000032b9 	strheq	r3, [r0], -r9
 63c:	00000350 	andeq	r0, r0, r0, asr r3
 640:	0000023e 	andeq	r0, r0, lr, lsr r2
 644:	6e617473 	mcrvs	4, 3, r7, cr1, cr3, {3}
 648:	5f796264 	svcpl	0x00796264
 64c:	5f746e69 	svcpl	0x00746e69
 650:	74696e69 	strbtvc	r6, [r9], #-3689
 654:	00025700 	andeq	r5, r2, r0, lsl #14
 658:	61747300 	cmnvs	r4, r0, lsl #6
 65c:	7962646e 	stmdbvc	r2!, {r1, r2, r3, r5, r6, sl, sp, lr}^
 660:	746e695f 	strbtvc	r6, [lr], #-2399
 664:	6978655f 	ldmdbvs	r8!, {r0, r1, r2, r3, r4, r6, r8, sl, sp, lr}^
 668:	026e0074 	rsbeq	r0, lr, #116	; 0x74
 66c:	74730000 	ldrbtvc	r0, [r3]
 670:	62646e61 	rsbvs	r6, r4, #1552	; 0x610
 674:	6e655f79 	mcrvs	15, 3, r5, cr5, cr9, {3}
 678:	656c6261 	strbvs	r6, [ip, #-609]!
 67c:	746e695f 	strbtvc	r6, [lr], #-2399
 680:	0002b500 	andeq	fp, r2, r0, lsl #10
 684:	61747300 	cmnvs	r4, r0, lsl #6
 688:	7962646e 	stmdbvc	r2!, {r1, r2, r3, r5, r6, sl, sp, lr}^
 68c:	6575715f 	ldrbvs	r7, [r5, #-351]!
 690:	695f7972 	ldmdbvs	pc, {r1, r4, r5, r6, r8, fp, ip, sp, lr}^
 694:	0000746e 	andeq	r7, r0, lr, ror #8
 698:	62000000 	andvs	r0, r0, #0	; 0x0
 69c:	02000000 	andeq	r0, r0, #0	; 0x0
 6a0:	00360900 	eorseq	r0, r6, r0, lsl #18
 6a4:	0000c800 	andeq	ip, r0, r0, lsl #16
 6a8:	00006b00 	andeq	r6, r0, r0, lsl #22
 6ac:	61747300 	cmnvs	r4, r0, lsl #6
 6b0:	7962646e 	stmdbvc	r2!, {r1, r2, r3, r5, r6, sl, sp, lr}^
 6b4:	5f72695f 	svcpl	0x0072695f
 6b8:	74696e69 	strbtvc	r6, [r9], #-3689
 6bc:	00008200 	andeq	r8, r0, r0, lsl #4
 6c0:	61747300 	cmnvs	r4, r0, lsl #6
 6c4:	7962646e 	stmdbvc	r2!, {r1, r2, r3, r5, r6, sl, sp, lr}^
 6c8:	5f72695f 	svcpl	0x0072695f
 6cc:	74697865 	strbtvc	r7, [r9], #-2149
 6d0:	00009900 	andeq	r9, r0, r0, lsl #18
 6d4:	61747300 	cmnvs	r4, r0, lsl #6
 6d8:	7962646e 	stmdbvc	r2!, {r1, r2, r3, r5, r6, sl, sp, lr}^
 6dc:	5f72695f 	svcpl	0x0072695f
 6e0:	65746564 	ldrbvs	r6, [r4, #-1380]!
 6e4:	b0007463 	andlt	r7, r0, r3, ror #8
 6e8:	73000000 	movwvc	r0, #0	; 0x0
 6ec:	646e6174 	strbtvs	r6, [lr], #-372
 6f0:	695f7962 	ldmdbvs	pc, {r1, r5, r6, r8, fp, ip, sp, lr}^
 6f4:	65765f72 	ldrbvs	r5, [r6, #-3954]!
 6f8:	79666972 	stmdbvc	r6!, {r1, r4, r5, r6, r8, fp, sp, lr}^
 6fc:	00000000 	andeq	r0, r0, r0
 700:	00004e00 	andeq	r4, r0, r0, lsl #28
 704:	d1000200 	tstle	r0, r0, lsl #4
 708:	7b000036 	blvc	7e8 <__standby_start+0x7e8>
 70c:	d9000001 	stmdble	r0, {r0}
 710:	73000000 	movwvc	r0, #0	; 0x0
 714:	646e6174 	strbtvs	r6, [lr], #-372
 718:	6b5f7962 	blvs	17deca8 <__standby_start+0x17deca8>
 71c:	655f7965 	ldrbvs	r7, [pc, #-2405]	; fffffdbf <__bss_end+0xfffdd37>
 720:	00746978 	rsbseq	r6, r4, r8, ror r9
 724:	000000f0 	strdeq	r0, [r0], -r0
 728:	6e617473 	mcrvs	4, 3, r7, cr1, cr3, {3}
 72c:	5f796264 	svcpl	0x00796264
 730:	72657571 	rsbvc	r7, r5, #473956352	; 0x1c400000
 734:	656b5f79 	strbvs	r5, [fp, #-3961]!
 738:	01070079 	tsteq	r7, r9, ror r0
 73c:	74730000 	ldrbtvc	r0, [r3]
 740:	62646e61 	rsbvs	r6, r4, #1552	; 0x610
 744:	656b5f79 	strbvs	r5, [fp, #-3961]!
 748:	6e695f79 	mcrvs	15, 3, r5, cr9, cr9, {3}
 74c:	00007469 	andeq	r7, r0, r9, ror #8
 750:	6c000000 	stcvs	0, cr0, [r0], {0}
 754:	02000000 	andeq	r0, r0, #0	; 0x0
 758:	00384c00 	eorseq	r4, r8, r0, lsl #24
 75c:	0003bd00 	andeq	fp, r3, r0, lsl #26
 760:	0001e900 	andeq	lr, r1, r0, lsl #18
 764:	61747300 	cmnvs	r4, r0, lsl #6
 768:	7962646e 	stmdbvc	r2!, {r1, r2, r3, r5, r6, sl, sp, lr}^
 76c:	7465675f 	strbtvc	r6, [r5], #-1887
 770:	6c6f765f 	stclvs	6, cr7, [pc], #-380
 774:	65676174 	strbvs	r6, [r7, #-372]!
 778:	00027000 	andeq	r7, r2, r0
 77c:	61747300 	cmnvs	r4, r0, lsl #6
 780:	7962646e 	stmdbvc	r2!, {r1, r2, r3, r5, r6, sl, sp, lr}^
 784:	7465735f 	strbtvc	r7, [r5], #-863
 788:	6c6f765f 	stclvs	6, cr7, [pc], #-380
 78c:	65676174 	strbvs	r6, [r7, #-372]!
 790:	0002fc00 	andeq	pc, r2, r0, lsl #24
 794:	61747300 	cmnvs	r4, r0, lsl #6
 798:	7962646e 	stmdbvc	r2!, {r1, r2, r3, r5, r6, sl, sp, lr}^
 79c:	776f705f 	undefined
 7a0:	655f7265 	ldrbvs	r7, [pc, #-613]	; 543 <__standby_start+0x543>
 7a4:	00746978 	rsbseq	r6, r4, r8, ror r9
 7a8:	00000329 	andeq	r0, r0, r9, lsr #6
 7ac:	6e617473 	mcrvs	4, 3, r7, cr1, cr3, {3}
 7b0:	5f796264 	svcpl	0x00796264
 7b4:	65776f70 	ldrbvs	r6, [r7, #-3952]!
 7b8:	6e695f72 	mcrvs	15, 3, r5, cr9, cr2, {3}
 7bc:	00007469 	andeq	r7, r0, r9, ror #8
 7c0:	b9000000 	stmdblt	r0, {}
 7c4:	02000000 	andeq	r0, r0, #0	; 0x0
 7c8:	003c0900 	eorseq	r0, ip, r0, lsl #18
 7cc:	00053a00 	andeq	r3, r5, r0, lsl #20
 7d0:	0003a300 	andeq	sl, r3, r0, lsl #6
 7d4:	61747300 	cmnvs	r4, r0, lsl #6
 7d8:	7962646e 	stmdbvc	r2!, {r1, r2, r3, r5, r6, sl, sp, lr}^
 7dc:	726d745f 	rsbvc	r7, sp, #1593835520	; 0x5f000000
 7e0:	6978655f 	ldmdbvs	r8!, {r0, r1, r2, r3, r4, r6, r8, sl, sp, lr}^
 7e4:	03ca0074 	biceq	r0, sl, #116	; 0x74
 7e8:	74730000 	ldrbtvc	r0, [r3]
 7ec:	62646e61 	rsbvs	r6, r4, #1552	; 0x610
 7f0:	6d745f79 	ldclvs	15, cr5, [r4, #-484]!
 7f4:	65735f72 	ldrbvs	r5, [r3, #-3954]!
 7f8:	03f70074 	mvnseq	r0, #116	; 0x74
 7fc:	74730000 	ldrbtvc	r0, [r3]
 800:	62646e61 	rsbvs	r6, r4, #1552	; 0x610
 804:	6d745f79 	ldclvs	15, cr5, [r4, #-484]!
 808:	6e655f72 	mcrvs	15, 3, r5, cr5, cr2, {3}
 80c:	656c6261 	strbvs	r6, [ip, #-609]!
 810:	7461775f 	strbtvc	r7, [r1], #-1887
 814:	6f646863 	svcvs	0x00646863
 818:	040a0067 	streq	r0, [sl], #-103
 81c:	74730000 	ldrbtvc	r0, [r3]
 820:	62646e61 	rsbvs	r6, r4, #1552	; 0x610
 824:	6d745f79 	ldclvs	15, cr5, [r4, #-484]!
 828:	69645f72 	stmdbvs	r4!, {r1, r4, r5, r6, r8, r9, sl, fp, ip, lr}^
 82c:	6c626173 	stfvse	f6, [r2], #-460
 830:	61775f65 	cmnvs	r7, r5, ror #30
 834:	64686374 	strbtvs	r6, [r8], #-884
 838:	1d00676f 	stcne	7, cr6, [r0, #-444]
 83c:	73000004 	movwvc	r0, #4	; 0x4
 840:	646e6174 	strbtvs	r6, [lr], #-372
 844:	745f7962 	ldrbvc	r7, [pc], #2402	; 84c <__standby_start+0x84c>
 848:	715f726d 	cmpvc	pc, sp, ror #4
 84c:	79726575 	ldmdbvc	r2!, {r0, r2, r4, r5, r6, r8, sl, sp, lr}^
 850:	00045300 	andeq	r5, r4, r0, lsl #6
 854:	61747300 	cmnvs	r4, r0, lsl #6
 858:	7962646e 	stmdbvc	r2!, {r1, r2, r3, r5, r6, sl, sp, lr}^
 85c:	726d745f 	rsbvc	r7, sp, #1593835520	; 0x5f000000
 860:	6c646d5f 	stclvs	13, cr6, [r4], #-380
 864:	84007961 	strhi	r7, [r0], #-2401
 868:	73000004 	movwvc	r0, #4	; 0x4
 86c:	646e6174 	strbtvs	r6, [lr], #-372
 870:	745f7962 	ldrbvc	r7, [pc], #2402	; 878 <__standby_start+0x878>
 874:	695f726d 	ldmdbvs	pc, {r0, r2, r3, r5, r6, r9, ip, sp, lr}^
 878:	0074696e 	rsbseq	r6, r4, lr, ror #18
 87c:	00000000 	andeq	r0, r0, r0
 880:	00000048 	andeq	r0, r0, r8, asr #32
 884:	41430002 	cmpmi	r3, r2
 888:	02c00000 	sbceq	r0, r0, #0	; 0x0
 88c:	01350000 	teqeq	r5, r0
 890:	74730000 	ldrbtvc	r0, [r3]
 894:	62646e61 	rsbvs	r6, r4, #1552	; 0x610
 898:	77745f79 	undefined
 89c:	6e695f69 	cdpvs	15, 6, cr5, cr9, cr9, {3}
 8a0:	88007469 	stmdahi	r0, {r0, r3, r5, r6, sl, ip, sp, lr}
 8a4:	74000001 	strvc	r0, [r0], #-1
 8a8:	625f6977 	subsvs	r6, pc, #1949696	; 0x1dc000
 8ac:	5f657479 	svcpl	0x00657479
 8b0:	47007772 	smlsdxmi	r0, r2, r7, r7
 8b4:	73000002 	movwvc	r0, #2	; 0x2
 8b8:	646e6174 	strbtvs	r6, [lr], #-372
 8bc:	745f7962 	ldrbvc	r7, [pc], #2402	; 8c4 <__standby_start+0x8c4>
 8c0:	655f6977 	ldrbvs	r6, [pc, #-2423]	; ffffff51 <__bss_end+0xfffdec9>
 8c4:	00746978 	rsbseq	r6, r4, r8, ror r9
 8c8:	00000000 	andeq	r0, r0, r0
 8cc:	00000075 	andeq	r0, r0, r5, ror r0
 8d0:	44030002 	strmi	r0, [r3], #-2
 8d4:	00e70000 	rsceq	r0, r7, r0
 8d8:	00760000 	rsbseq	r0, r6, r0
 8dc:	74730000 	ldrbtvc	r0, [r3]
 8e0:	62646e61 	rsbvs	r6, r4, #1552	; 0x610
 8e4:	73755f79 	cmnvc	r5, #484	; 0x1e4
 8e8:	6e695f62 	cdpvs	15, 6, cr5, cr9, cr2, {3}
 8ec:	8d007469 	cfstrshi	mvf7, [r0, #-420]
 8f0:	73000000 	movwvc	r0, #0	; 0x0
 8f4:	646e6174 	strbtvs	r6, [lr], #-372
 8f8:	755f7962 	ldrbvc	r7, [pc, #-2402]	; ffffff9e <__bss_end+0xfffdf16>
 8fc:	655f6273 	ldrbvs	r6, [pc, #-627]	; 691 <__standby_start+0x691>
 900:	00746978 	rsbseq	r6, r4, r8, ror r9
 904:	000000a4 	andeq	r0, r0, r4, lsr #1
 908:	6e617473 	mcrvs	4, 3, r7, cr1, cr3, {3}
 90c:	5f796264 	svcpl	0x00796264
 910:	755f7369 	ldrbvc	r7, [pc, #-873]	; 5af <__standby_start+0x5af>
 914:	735f6273 	cmpvc	pc, #805306375	; 0x30000007
 918:	75746174 	ldrbvc	r6, [r4, #-372]!
 91c:	68635f73 	stmdavs	r3!, {r0, r1, r4, r5, r6, r8, r9, sl, fp, ip, lr}^
 920:	65676e61 	strbvs	r6, [r7, #-3681]!
 924:	0000cf00 	andeq	ip, r0, r0, lsl #30
 928:	61747300 	cmnvs	r4, r0, lsl #6
 92c:	7962646e 	stmdbvc	r2!, {r1, r2, r3, r5, r6, sl, sp, lr}^
 930:	6575715f 	ldrbvs	r7, [r5, #-351]!
 934:	755f7972 	ldrbvc	r7, [pc, #-2418]	; ffffffca <__bss_end+0xfffdf42>
 938:	655f6273 	ldrbvs	r6, [pc, #-627]	; 6cd <__standby_start+0x6cd>
 93c:	746e6576 	strbtvc	r6, [lr], #-1398
 940:	00000000 	andeq	r0, r0, r0
	...

Disassembly of section .debug_aranges:

00000000 <.debug_aranges>:
   0:	0000001c 	andeq	r0, r0, ip, lsl r0
   4:	00000002 	andeq	r0, r0, r2
   8:	00040000 	andeq	r0, r4, r0
   c:	00000000 	andeq	r0, r0, r0
  10:	f0000000 	undefined instruction 0xf0000000
  14:	00000360 	andeq	r0, r0, r0, ror #6
	...
  20:	0000001c 	andeq	r0, r0, ip, lsl r0
  24:	03060002 	movweq	r0, #24578	; 0x6002
  28:	00040000 	andeq	r0, r4, r0
  2c:	00000000 	andeq	r0, r0, r0
  30:	f0000360 	undefined instruction 0xf0000360
  34:	0000004c 	andeq	r0, r0, ip, asr #32
	...
  40:	0000001c 	andeq	r0, r0, ip, lsl r0
  44:	04070002 	streq	r0, [r7], #-2
  48:	00040000 	andeq	r0, r4, r0
  4c:	00000000 	andeq	r0, r0, r0
  50:	f00003ac 	undefined instruction 0xf00003ac
  54:	00000124 	andeq	r0, r0, r4, lsr #2
	...
  60:	0000001c 	andeq	r0, r0, ip, lsl r0
  64:	04960002 	ldreq	r0, [r6], #2
  68:	00040000 	andeq	r0, r4, r0
  6c:	00000000 	andeq	r0, r0, r0
  70:	f00004d0 	undefined instruction 0xf00004d0
  74:	0000042c 	andeq	r0, r0, ip, lsr #8
	...
  80:	0000001c 	andeq	r0, r0, ip, lsl r0
  84:	279e0002 	ldrcs	r0, [lr, r2]
  88:	00040000 	andeq	r0, r4, r0
  8c:	00000000 	andeq	r0, r0, r0
  90:	f00008fc 	undefined instruction 0xf00008fc
  94:	000003d0 	ldrdeq	r0, [r0], -r0
	...
  a0:	0000001c 	andeq	r0, r0, ip, lsl r0
  a4:	2c970002 	ldccs	0, cr0, [r7], {2}
  a8:	00040000 	andeq	r0, r4, r0
  ac:	00000000 	andeq	r0, r0, r0
  b0:	f0000ccc 	undefined instruction 0xf0000ccc
  b4:	000006a4 	andeq	r0, r0, r4, lsr #13
	...
  c0:	0000001c 	andeq	r0, r0, ip, lsl r0
  c4:	32b90002 	adcscc	r0, r9, #2	; 0x2
  c8:	00040000 	andeq	r0, r4, r0
  cc:	00000000 	andeq	r0, r0, r0
  d0:	f0001370 	undefined instruction 0xf0001370
  d4:	00000168 	andeq	r0, r0, r8, ror #2
	...
  e0:	0000001c 	andeq	r0, r0, ip, lsl r0
  e4:	36090002 	strcc	r0, [r9], -r2
  e8:	00040000 	andeq	r0, r4, r0
  ec:	00000000 	andeq	r0, r0, r0
  f0:	f00014d8 	undefined instruction 0xf00014d8
  f4:	00000020 	andeq	r0, r0, r0, lsr #32
	...
 100:	0000001c 	andeq	r0, r0, ip, lsl r0
 104:	36d10002 	ldrbcc	r0, [r1], r2
 108:	00040000 	andeq	r0, r4, r0
 10c:	00000000 	andeq	r0, r0, r0
 110:	f00014f8 	undefined instruction 0xf00014f8
 114:	000000a0 	andeq	r0, r0, r0, lsr #1
	...
 120:	0000001c 	andeq	r0, r0, ip, lsl r0
 124:	384c0002 	stmdacc	ip, {r1}^
 128:	00040000 	andeq	r0, r4, r0
 12c:	00000000 	andeq	r0, r0, r0
 130:	f0001598 	undefined instruction 0xf0001598
 134:	00000348 	andeq	r0, r0, r8, asr #6
	...
 140:	0000001c 	andeq	r0, r0, ip, lsl r0
 144:	3c090002 	stccc	0, cr0, [r9], {2}
 148:	00040000 	andeq	r0, r4, r0
 14c:	00000000 	andeq	r0, r0, r0
 150:	f00018e0 	undefined instruction 0xf00018e0
 154:	000001f0 	strdeq	r0, [r0], -r0
	...
 160:	0000001c 	andeq	r0, r0, ip, lsl r0
 164:	41430002 	cmpmi	r3, r2
 168:	00040000 	andeq	r0, r4, r0
 16c:	00000000 	andeq	r0, r0, r0
 170:	f0001ad0 	undefined instruction 0xf0001ad0
 174:	00000330 	andeq	r0, r0, r0, lsr r3
	...
 180:	0000001c 	andeq	r0, r0, ip, lsl r0
 184:	44030002 	strmi	r0, [r3], #-2
 188:	00040000 	andeq	r0, r4, r0
 18c:	00000000 	andeq	r0, r0, r0
 190:	f0001e00 	undefined instruction 0xf0001e00
 194:	00000020 	andeq	r0, r0, r0, lsr #32
	...
 1a0:	0000001c 	andeq	r0, r0, ip, lsl r0
 1a4:	44ea0002 	strbtmi	r0, [sl], #2
 1a8:	00040000 	andeq	r0, r4, r0
 1ac:	00000000 	.word	0x00000000
 1b0:	f0001e20 	.word	0xf0001e20
 1b4:	0000000c 	.word	0x0000000c
	...

Disassembly of section .debug_str:

00000000 <.debug_str>:
       0:	5f757063 	svcpl	0x00757063
       4:	00766964 	rsbseq	r6, r6, r4, ror #18
       8:	5f544e49 	svcpl	0x00544e49
       c:	52554f53 	subspl	r4, r5, #332	; 0x14c
      10:	555f4543 	ldrbpl	r4, [pc, #-1347]	; fffffad5 <__bss_end+0xfffda4d>
      14:	00304253 	eorseq	r4, r0, r3, asr r2
      18:	5f544e49 	svcpl	0x00544e49
      1c:	52554f53 	subspl	r4, r5, #332	; 0x14c
      20:	555f4543 	ldrbpl	r4, [pc, #-1347]	; fffffae5 <__bss_end+0xfffda5d>
      24:	00314253 	eorseq	r4, r1, r3, asr r2
      28:	6d617264 	sfmvs	f7, 2, [r1, #-400]!
      2c:	6172745f 	cmnvs	r2, pc, asr r4
      30:	676e696e 	strbvs	r6, [lr, -lr, ror #18]!
      34:	6572615f 	ldrbvs	r6, [r2, #-351]!
      38:	61625f61 	cmnvs	r2, r1, ror #30
      3c:	49006b63 	stmdbmi	r0, {r0, r1, r5, r6, r8, r9, fp, sp, lr}
      40:	535f544e 	cmppl	pc, #1308622848	; 0x4e000000
      44:	4352554f 	cmpmi	r2, #331350016	; 0x13c00000
      48:	53555f45 	cmppl	r5, #276	; 0x114
      4c:	49003342 	stmdbmi	r0, {r1, r6, r8, r9, ip, sp}
      50:	535f544e 	cmppl	pc, #1308622848	; 0x4e000000
      54:	4352554f 	cmpmi	r2, #331350016	; 0x13c00000
      58:	53555f45 	cmppl	r5, #276	; 0x114
      5c:	74003442 	strvc	r3, [r0], #-1090
      60:	5f656d69 	svcpl	0x00656d69
      64:	0066666f 	rsbeq	r6, r6, pc, ror #12
      68:	5f544e49 	svcpl	0x00544e49
      6c:	52554f53 	subspl	r4, r5, #332	; 0x14c
      70:	555f4543 	ldrbpl	r4, [pc, #-1347]	; fffffb35 <__bss_end+0xfffdaad>
      74:	00324253 	eorseq	r4, r2, r3, asr r2
      78:	73625f5f 	cmnvc	r2, #380	; 0x17c
      7c:	6e655f73 	mcrvs	15, 3, r5, cr5, cr3, {3}
      80:	6d2f0064 	stcvs	0, cr0, [pc, #-400]!
      84:	61696465 	cmnvs	r9, r5, ror #8
      88:	3762332f 	strbcc	r3, [r2, -pc, lsr #6]!
      8c:	37626361 	strbcc	r6, [r2, -r1, ror #6]!
      90:	33392d39 	teqcc	r9, #3648	; 0xe40
      94:	342d3338 	strtcc	r3, [sp], #-824
      98:	2d663863 	stclcs	8, cr3, [r6, #-396]!
      9c:	36333338 	undefined
      a0:	3032352d 	eorscc	r3, r2, sp, lsr #10
      a4:	63626434 	cmnvs	r2, #872415232	; 0x34000000
      a8:	34633261 	strbtcc	r3, [r3], #-609
      ac:	696c2f61 	stmdbvs	ip!, {r0, r5, r6, r8, r9, sl, fp, sp}^
      b0:	2d78756e 	cfldr64cs	mvdx7, [r8, #-440]!
      b4:	2e362e32 	mrccs	14, 1, r2, cr6, cr2, {1}
      b8:	732d3633 	teqvc	sp, #53477376	; 0x3300000
      bc:	69346e75 	ldmdbvs	r4!, {r0, r2, r4, r5, r6, r9, sl, fp, sp, lr}
      c0:	6372612f 	cmnvs	r2, #-1073741813	; 0xc000000b
      c4:	72612f68 	rsbvc	r2, r1, #416	; 0x1a0
      c8:	616d2f6d 	cmnvs	sp, sp, ror #30
      cc:	732d6863 	teqvc	sp, #6488064	; 0x630000
      d0:	69346e75 	ldmdbvs	r4!, {r0, r2, r4, r5, r6, r9, sl, fp, sp, lr}
      d4:	2f6d702f 	svccs	0x006d702f
      d8:	6e617473 	mcrvs	4, 3, r7, cr1, cr3, {3}
      dc:	00796264 	rsbseq	r6, r9, r4, ror #4
      e0:	6e69616d 	powvsez	f6, f1, #5.0
      e4:	554e4700 	strbpl	r4, [lr, #-1792]
      e8:	34204320 	strtcc	r4, [r0], #-800
      ec:	332e332e 	teqcc	lr, #-1207959552	; 0xb8000000
      f0:	69786100 	ldmdbvs	r8!, {r8, sp, lr}^
      f4:	7669645f 	undefined
      f8:	544e4900 	strbpl	r4, [lr], #-2304
      fc:	554f535f 	strbpl	r5, [pc, #-863]	; fffffda5 <__bss_end+0xfffdd1d>
     100:	5f454352 	svcpl	0x00454352
     104:	43554f54 	cmpmi	r5, #336	; 0x150
     108:	4c4e5048 	mcrrmi	0, 4, r5, lr, cr8
     10c:	746e6900 	strbtvc	r6, [lr], #-2304
     110:	75727265 	ldrbvc	r7, [r2, #-613]!
     114:	735f7470 	cmpvc	pc, #1879048192	; 0x70000000
     118:	6372756f 	cmnvs	r2, #465567744	; 0x1bc00000
     11c:	00655f65 	rsbeq	r5, r5, r5, ror #30
     120:	45574f50 	ldrbmi	r4, [r7, #-3920]
     124:	4f565f52 	svcmi	0x00565f52
     128:	43445f4c 	movtmi	r5, #20300	; 0x4f4c
     12c:	00314344 	eorseq	r4, r1, r4, asr #6
     130:	45574f50 	ldrbmi	r4, [r7, #-3920]
     134:	4f565f52 	svcmi	0x00565f52
     138:	43445f4c 	movtmi	r5, #20300	; 0x4f4c
     13c:	00324344 	eorseq	r4, r2, r4, asr #6
     140:	45574f50 	ldrbmi	r4, [r7, #-3920]
     144:	4f565f52 	svcmi	0x00565f52
     148:	43445f4c 	movtmi	r5, #20300	; 0x4f4c
     14c:	00334344 	eorseq	r4, r3, r4, asr #6
     150:	33755f5f 	cmncc	r5, #380	; 0x17c
     154:	77740032 	undefined
     158:	6f705f69 	svcvs	0x00705f69
     15c:	61007472 	tstvs	r0, r2, ror r4
     160:	645f6270 	ldrbvs	r6, [pc], #624	; 168 <__standby_start+0x168>
     164:	6c007669 	stcvs	6, cr7, [r0], {105}
     168:	20676e6f 	rsbcs	r6, r7, pc, ror #28
     16c:	676e6f6c 	strbvs	r6, [lr, -ip, ror #30]!
     170:	746e6920 	strbtvc	r6, [lr], #-2336
     174:	62686100 	rsbvs	r6, r8, #0	; 0x0
     178:	7669645f 	undefined
     17c:	5f776100 	svcpl	0x00776100
     180:	5f756d70 	svcpl	0x00756d70
     184:	00677261 	rsbeq	r7, r7, r1, ror #4
     188:	50706d74 	rsbspl	r6, r0, r4, ror sp
     18c:	74007274 	strvc	r7, [r0], #-628
     190:	635f706d 	cmpvs	pc, #109	; 0x6d
     194:	645f6b6c 	ldrbvs	r6, [pc], #2924	; 19c <__standby_start+0x19c>
     198:	5f007669 	svcpl	0x00007669
     19c:	6174735f 	cmnvs	r4, pc, asr r3
     1a0:	7962646e 	stmdbvc	r2!, {r1, r2, r3, r5, r6, sl, sp, lr}^
     1a4:	6174735f 	cmnvs	r4, pc, asr r3
     1a8:	5f007472 	svcpl	0x00007472
     1ac:	7373625f 	cmnvc	r3, #-268435451	; 0xf0000005
     1b0:	6174735f 	cmnvs	r4, pc, asr r3
     1b4:	75007472 	strvc	r7, [r0, #-1138]
     1b8:	6769736e 	strbvs	r7, [r9, -lr, ror #6]!
     1bc:	2064656e 	rsbcs	r6, r4, lr, ror #10
     1c0:	72616863 	rsbvc	r6, r1, #6488064	; 0x630000
     1c4:	6f687300 	svcvs	0x00687300
     1c8:	69207472 	stmdbvs	r0!, {r1, r4, r5, r6, sl, ip, sp, lr}
     1cc:	5000746e 	andpl	r7, r0, lr, ror #8
     1d0:	5245574f 	subpl	r5, r5, #20709376	; 0x13c0000
     1d4:	4c4f565f 	mcrrmi	6, 5, r5, pc, cr15
     1d8:	4f444c5f 	svcmi	0x00444c5f
     1dc:	4f500031 	svcmi	0x00500031
     1e0:	5f524557 	svcpl	0x00524557
     1e4:	5f4c4f56 	svcpl	0x004c4f56
     1e8:	324f444c 	subcc	r4, pc, #1275068416	; 0x4c000000
     1ec:	574f5000 	strbpl	r5, [pc, -r0]
     1f0:	565f5245 	ldrbpl	r5, [pc], -r5, asr #4
     1f4:	4c5f4c4f 	mrrcmi	12, 4, r4, pc, cr15
     1f8:	00334f44 	eorseq	r4, r3, r4, asr #30
     1fc:	45574f50 	ldrbmi	r4, [r7, #-3920]
     200:	4f565f52 	svcmi	0x00565f52
     204:	444c5f4c 	strbmi	r5, [ip], #-3916
     208:	6c00344f 	cfstrsvs	mvf3, [r0], {79}
     20c:	20676e6f 	rsbcs	r6, r7, pc, ror #28
     210:	676e6f6c 	strbvs	r6, [lr, -ip, ror #30]!
     214:	736e7520 	cmnvc	lr, #134217728	; 0x8000000
     218:	656e6769 	strbvs	r6, [lr, #-1897]!
     21c:	6e692064 	cdpvs	0, 6, cr2, cr9, cr4, {3}
     220:	65640074 	strbvs	r0, [r4, #-116]!
     224:	64615f76 	strbtvs	r5, [r1], #-3958
     228:	73007264 	movwvc	r7, #612	; 0x264
     22c:	61625f70 	smcvs	9712
     230:	70756b63 	rsbsvc	r6, r5, r3, ror #22
     234:	5f776100 	svcpl	0x00776100
     238:	695f6d70 	ldmdbvs	pc, {r4, r5, r6, r8, sl, fp, sp, lr}^
     23c:	006f666e 	rsbeq	r6, pc, lr, ror #12
     240:	65776f70 	ldrbvs	r6, [r7, #-3952]!
     244:	6f765f72 	svcvs	0x00765f72
     248:	79745f6c 	ldmdbvc	r4!, {r2, r3, r5, r6, r8, r9, sl, fp, ip, lr}^
     24c:	655f6570 	ldrbvs	r6, [pc, #-1392]	; fffffce4 <__bss_end+0xfffdc5c>
     250:	61747300 	cmnvs	r4, r0, lsl #6
     254:	7962646e 	stmdbvc	r2!, {r1, r2, r3, r5, r6, sl, sp, lr}^
     258:	4900632e 	stmdbmi	r0, {r1, r2, r3, r5, r8, r9, sp, lr}
     25c:	535f544e 	cmppl	pc, #1308622848	; 0x4e000000
     260:	4352554f 	cmpmi	r2, #331350016	; 0x13c00000
     264:	58455f45 	stmdapl	r5, {r0, r2, r6, r8, r9, sl, fp, ip, lr}^
     268:	494d4e54 	stmdbmi	sp, {r2, r4, r6, r9, sl, fp, lr}^
     26c:	6f687300 	svcvs	0x00687300
     270:	75207472 	strvc	r7, [r0, #-1138]!
     274:	6769736e 	strbvs	r7, [r9, -lr, ror #6]!
     278:	2064656e 	rsbcs	r6, r4, lr, ror #10
     27c:	00746e69 	rsbseq	r6, r4, r9, ror #28
     280:	74735f5f 	ldrbtvc	r5, [r3], #-3935
     284:	62646e61 	rsbvs	r6, r4, #1552	; 0x610
     288:	6e655f79 	mcrvs	15, 3, r5, cr5, cr9, {3}
     28c:	4e490064 	cdpmi	0, 4, cr0, cr9, cr4, {3}
     290:	4f535f54 	svcmi	0x00535f54
     294:	45435255 	strbmi	r5, [r3, #-597]
     298:	41524c5f 	cmpmi	r2, pc, asr ip
     29c:	73004344 	movwvc	r4, #836	; 0x344
     2a0:	69346e75 	ldmdbvs	r4!, {r0, r2, r4, r5, r6, r9, sl, fp, sp, lr}
     2a4:	6b6c635f 	blvs	1b19028 <__standby_start+0x1b19028>
     2a8:	7669645f 	undefined
     2ac:	4900745f 	stmdbmi	r0, {r0, r1, r2, r3, r4, r6, sl, ip, sp, lr}
     2b0:	535f544e 	cmppl	pc, #1308622848	; 0x4e000000
     2b4:	4352554f 	cmpmi	r2, #331350016	; 0x13c00000
     2b8:	49545f45 	ldmdbmi	r4, {r0, r2, r6, r8, r9, sl, fp, ip, lr}^
     2bc:	3052454d 	subscc	r4, r2, sp, asr #10
     2c0:	544e4900 	strbpl	r4, [lr], #-2304
     2c4:	554f535f 	strbpl	r5, [pc, #-863]	; ffffff6d <__bss_end+0xfffdee5>
     2c8:	5f454352 	svcpl	0x00454352
     2cc:	454d4954 	strbmi	r4, [sp, #-2388]
     2d0:	49003152 	stmdbmi	r0, {r1, r4, r6, r8, ip, sp}
     2d4:	535f544e 	cmppl	pc, #1308622848	; 0x4e000000
     2d8:	4352554f 	cmpmi	r2, #331350016	; 0x13c00000
     2dc:	454b5f45 	strbmi	r5, [fp, #-3909]
     2e0:	44415059 	strbmi	r5, [r1], #-89
     2e4:	5f776100 	svcpl	0x00776100
     2e8:	6e617473 	mcrvs	4, 3, r7, cr1, cr3, {3}
     2ec:	5f796264 	svcpl	0x00796264
     2f0:	61726170 	cmnvs	r2, r0, ror r1
     2f4:	64636400 	strbtvs	r6, [r3], #-1024
     2f8:	64003263 	strvs	r3, [r0], #-611
     2fc:	33636463 	cmncc	r3, #1660944384	; 0x63000000
     300:	544e4900 	strbpl	r4, [lr], #-2304
     304:	554f535f 	strbpl	r5, [pc, #-863]	; ffffffad <__bss_end+0xfffdf25>
     308:	5f454352 	svcpl	0x00454352
     30c:	00305249 	eorseq	r5, r0, r9, asr #4
     310:	5f544e49 	svcpl	0x00544e49
     314:	52554f53 	subspl	r4, r5, #332	; 0x14c
     318:	495f4543 	ldmdbmi	pc, {r0, r1, r6, r8, sl, lr}^
     31c:	49003152 	stmdbmi	r0, {r1, r4, r6, r8, ip, sp}
     320:	535f544e 	cmppl	pc, #1308622848	; 0x4e000000
     324:	4352554f 	cmpmi	r2, #331350016	; 0x13c00000
     328:	4c415f45 	mcrrmi	15, 4, r5, r1, cr5
     32c:	004d5241 	subeq	r5, sp, r1, asr #4
     330:	65736572 	ldrbvs	r6, [r3, #-1394]!
     334:	64657672 	strbtvs	r7, [r5], #-1650
     338:	73656400 	cmnvc	r5, #0	; 0x0
     33c:	74730074 	ldrbtvc	r0, [r3], #-116
     340:	62646e61 	rsbvs	r6, r4, #1552	; 0x610
     344:	646d5f79 	strbtvs	r5, [sp], #-3961
     348:	79616c65 	stmdbvc	r1!, {r0, r2, r5, r6, sl, fp, sp, lr}^
     34c:	706d7400 	rsbvc	r7, sp, r0, lsl #8
     350:	7473645f 	ldrbtvc	r6, [r3], #-1119
     354:	75706300 	ldrbvc	r6, [r0, #-768]!
     358:	5f736d5f 	svcpl	0x00736d5f
     35c:	706f6f6c 	rsbvc	r6, pc, ip, ror #30
     360:	00746e63 	rsbseq	r6, r4, r3, ror #28
     364:	6e617473 	mcrvs	4, 3, r7, cr1, cr3, {3}
     368:	5f796264 	svcpl	0x00796264
     36c:	636d656d 	cmnvs	sp, #457179136	; 0x1b400000
     370:	74007970 	strvc	r7, [r0], #-2416
     374:	735f706d 	cmpvc	pc, #109	; 0x6d
     378:	63006372 	movwvs	r6, #882	; 0x372
     37c:	6f6d6d6f 	svcvs	0x006d6d6f
     380:	00632e6e 	rsbeq	r2, r3, lr, ror #28
     384:	65736552 	ldrbvs	r6, [r3, #-1362]!
     388:	61570074 	cmpvs	r7, r4, ror r0
     38c:	74536576 	ldrbvc	r6, [r3], #-1398
     390:	5f007065 	svcpl	0x00007065
     394:	6d63635f 	stclvs	3, cr6, [r3, #-380]!
     398:	68615f75 	stmdavs	r1!, {r0, r2, r4, r5, r6, r8, r9, sl, fp, ip, lr}^
     39c:	6b6c6362 	blvs	1b1912c <__standby_start+0x1b1912c>
     3a0:	7461675f 	strbtvc	r6, [r1], #-1887
     3a4:	725f3065 	subsvc	r3, pc, #101	; 0x65
     3a8:	30306765 	eorscc	r6, r0, r5, ror #14
     3ac:	745f3036 	ldrbvc	r3, [pc], #54	; 3b4 <__standby_start+0x3b4>
     3b0:	6c6c5000 	stclvs	0, cr5, [ip]
     3b4:	6e755435 	mrcvs	4, 3, r5, cr5, cr5, {1}
     3b8:	56003265 	strpl	r3, [r0], -r5, ror #4
     3bc:	6b6c4365 	blvs	1b11158 <__standby_start+0x1b11158>
     3c0:	635f5f00 	cmpvs	pc, #0	; 0x0
     3c4:	5f756d63 	svcpl	0x00756d63
     3c8:	696d6468 	stmdbvs	sp!, {r3, r5, r6, sl, sp, lr}^
     3cc:	6b6c635f 	blvs	1b19150 <__standby_start+0x1b19150>
     3d0:	6765725f 	undefined
     3d4:	30353130 	eorscc	r3, r5, r0, lsr r1
     3d8:	5000745f 	andpl	r7, r0, pc, asr r4
     3dc:	54376c6c 	ldrtpl	r6, [r7], #-3180
     3e0:	00656e75 	rsbeq	r6, r5, r5, ror lr
     3e4:	43435f5f 	movtmi	r5, #16223	; 0x3f5f
     3e8:	415f554d 	cmpmi	pc, sp, asr #10
     3ec:	4c434248 	sfmmi	f4, 2, [r3], {72}
     3f0:	41475f4b 	cmpmi	r7, fp, asr #30
     3f4:	5f304554 	svcpl	0x00304554
     3f8:	30474552 	subcc	r4, r7, r2, asr r5
     3fc:	00303630 	eorseq	r3, r0, r0, lsr r6
     400:	61477354 	cmpvs	r7, r4, asr r3
     404:	4d006574 	cfstr32mi	mvfx6, [r0, #-464]
     408:	43696c61 	cmnmi	r9, #24832	; 0x6100
     40c:	53006b6c 	movwpl	r6, #2924	; 0xb6c
     410:	47336970 	undefined
     414:	00657461 	rsbeq	r7, r5, r1, ror #8
     418:	31697053 	qdsubcc	r7, r3, r9
     41c:	006b6c43 	rsbeq	r6, fp, r3, asr #24
     420:	31657654 	cmncc	r5, r4, asr r6
     424:	65746147 	ldrbvs	r6, [r4, #-327]!
     428:	435f5f00 	cmpmi	pc, #0	; 0x0
     42c:	5f554d43 	svcpl	0x00554d43
     430:	324c4c50 	subcc	r4, ip, #20480	; 0x5000
     434:	4e55545f 	mrcmi	4, 2, r5, cr5, cr15, {2}
     438:	5f474e49 	svcpl	0x00474e49
     43c:	30474552 	subcc	r4, r7, r2, asr r5
     440:	00433030 	subeq	r3, r3, r0, lsr r0
     444:	6d6d6453 	cfstrdvs	mvd6, [sp, #-332]!
     448:	61473363 	cmpvs	r7, r3, ror #6
     44c:	73006574 	movwvc	r6, #1396	; 0x574
     450:	646e6174 	strbtvs	r6, [lr], #-372
     454:	635f7962 	cmpvs	pc, #1605632	; 0x188000
     458:	655f6b6c 	ldrbvs	r6, [pc, #-2924]	; fffff8f4 <__bss_end+0xfffd86c>
     45c:	00746978 	rsbseq	r6, r4, r8, ror r9
     460:	43435f5f 	movtmi	r5, #16223	; 0x3f5f
     464:	465f554d 	ldrbmi	r5, [pc], -sp, asr #10
     468:	4d454445 	cfstrdmi	mvd4, [r5, #-276]
     46c:	4c435f50 	mcrrmi	15, 5, r5, r3, cr0
     470:	5f5f004b 	svcpl	0x005f004b
     474:	554d4343 	strbpl	r4, [sp, #-835]
     478:	4152445f 	cmpmi	r2, pc, asr r4
     47c:	41475f4d 	cmpmi	r7, sp, asr #30
     480:	525f4554 	subspl	r4, pc, #352321536	; 0x15000000
     484:	31304745 	teqcc	r0, r5, asr #14
     488:	54003030 	strpl	r3, [r0], #-48
     48c:	61476476 	cmpvs	r7, r6, ror r4
     490:	5f006574 	svcpl	0x00006574
     494:	6d63635f 	stclvs	3, cr6, [r3, #-380]!
     498:	64615f75 	strbtvs	r5, [r1], #-3957
     49c:	635f6164 	cmpvs	pc, #25	; 0x19
     4a0:	725f6b6c 	subsvc	r6, pc, #110592	; 0x1b000
     4a4:	31306765 	teqcc	r0, r5, ror #14
     4a8:	745f3034 	ldrbvc	r3, [pc], #52	; 4b0 <__standby_start+0x4b0>
     4ac:	635f5f00 	cmpvs	pc, #0	; 0x0
     4b0:	5f756d63 	svcpl	0x00756d63
     4b4:	6d617264 	sfmvs	f7, 2, [r1, #-400]!
     4b8:	7461675f 	strbtvc	r6, [r1], #-1887
     4bc:	65725f65 	ldrbvs	r5, [r2, #-3941]!
     4c0:	30313067 	eorscc	r3, r1, r7, rrx
     4c4:	00745f30 	rsbseq	r5, r4, r0, lsr pc
     4c8:	704d6544 	subvc	r6, sp, r4, asr #10
     4cc:	006b6c43 	rsbeq	r6, fp, r3, asr #24
     4d0:	366c6c50 	undefined
     4d4:	006c7443 	rsbeq	r7, ip, r3, asr #8
     4d8:	30697053 	rsbcc	r7, r9, r3, asr r0
     4dc:	65746147 	ldrbvs	r6, [r4, #-327]!
     4e0:	4d645300 	stclmi	3, cr5, [r4]
     4e4:	4330636d 	teqmi	r0, #-1275068415	; 0xb4000001
     4e8:	43006b6c 	movwmi	r6, #2924	; 0xb6c
     4ec:	72506b6c 	subsvc	r6, r0, #110592	; 0x1b000
     4f0:	76694465 	strbtvc	r4, [r9], -r5, ror #8
     4f4:	4f435600 	svcmi	0x00435600
     4f8:	6e696147 	powvsem	f6, f1, f7
     4fc:	50006e45 	andpl	r6, r0, r5, asr #28
     500:	6e494c4c 	cdpvs	12, 4, cr4, cr9, cr12, {2}
     504:	65776f50 	ldrbvs	r6, [r7, #-3920]!
     508:	65440072 	strbvs	r0, [r4, #-114]
     50c:	6147704d 	cmpvs	r7, sp, asr #32
     510:	5f006574 	svcpl	0x00006574
     514:	4d43435f 	stclmi	3, cr4, [r3, #-380]
     518:	564c5f55 	undefined
     51c:	435f5344 	cmpmi	pc, #268435457	; 0x10000001
     520:	525f4b4c 	subspl	r4, pc, #77824	; 0x13000
     524:	31304745 	teqcc	r0, r5, asr #14
     528:	50004334 	andpl	r4, r0, r4, lsr r3
     52c:	61476f69 	cmpvs	r7, r9, ror #30
     530:	50006574 	andpl	r6, r0, r4, ror r5
     534:	43346c6c 	teqmi	r4, #27648	; 0x6c00
     538:	73006c74 	movwvc	r6, #3188	; 0xc74
     53c:	646e6174 	strbtvs	r6, [lr], #-372
     540:	635f7962 	cmpvs	pc, #1605632	; 0x188000
     544:	635f6b6c 	cmpvs	pc, #110592	; 0x1b000
     548:	3265726f 	rsbcc	r7, r5, #-268435450	; 0xf0000006
     54c:	63736f68 	cmnvs	r3, #416	; 0x1a0
     550:	635f5f00 	cmpvs	pc, #0	; 0x0
     554:	5f756d63 	svcpl	0x00756d63
     558:	316c6c70 	smccc	50880
     55c:	6e75745f 	mrcvs	4, 3, r7, cr5, cr15, {2}
     560:	32676e69 	rsbcc	r6, r7, #1680	; 0x690
     564:	6765725f 	undefined
     568:	38333030 	ldmdacc	r3!, {r4, r5, ip, sp}
     56c:	5f00745f 	svcpl	0x0000745f
     570:	4d43435f 	stclmi	3, cr4, [r3, #-380]
     574:	4f4d5f55 	svcmi	0x004d5f55
     578:	454c5544 	strbmi	r5, [ip, #-1348]
     57c:	4c435f31 	mcrrmi	15, 3, r5, r3, cr1
     580:	444c004b 	strbmi	r0, [ip], #-75
     584:	006e454f 	rsbeq	r4, lr, pc, asr #10
     588:	63635f5f 	cmnvs	r3, #380	; 0x17c
     58c:	705f756d 	subsvc	r7, pc, sp, ror #10
     590:	5f366c6c 	svcpl	0x00366c6c
     594:	61746173 	cmnvs	r4, r3, ror r1
     598:	6765725f 	undefined
     59c:	38323030 	ldmdacc	r2!, {r4, r5, ip, sp}
     5a0:	4200745f 	andmi	r7, r0, #1593835520	; 0x5f000000
     5a4:	57646e61 	strbpl	r6, [r4, -r1, ror #28]!
     5a8:	68746469 	ldmdavs	r4!, {r0, r3, r5, r6, sl, sp, lr}^
     5ac:	72635300 	rsbvc	r5, r3, #0	; 0x0
     5b0:	65746147 	ldrbvs	r6, [r4, #-327]!
     5b4:	43735300 	cmnmi	r3, #0	; 0x0
     5b8:	55006b6c 	strpl	r6, [r0, #-2924]
     5bc:	6c436273 	sfmvs	f6, 2, [r3], {115}
     5c0:	5f5f006b 	svcpl	0x005f006b
     5c4:	756d6363 	strbvc	r6, [sp, #-867]!
     5c8:	64636c5f 	strbtvs	r6, [r3], #-3167
     5cc:	5f306863 	svcpl	0x00306863
     5d0:	5f6b6c63 	svcpl	0x006b6c63
     5d4:	634c0074 	movtvs	r0, #49268	; 0xc074
     5d8:	68433064 	stmdavs	r3, {r2, r5, r6, ip, sp}^
     5dc:	6b6c4331 	blvs	1b112a8 <__standby_start+0x1b112a8>
     5e0:	74615000 	strbtvc	r5, [r1]
     5e4:	6b6c4361 	blvs	1b11370 <__standby_start+0x1b11370>
     5e8:	435f5f00 	cmpmi	pc, #0	; 0x0
     5ec:	5f554d43 	svcpl	0x00554d43
     5f0:	49495343 	stmdbmi	r9, {r0, r1, r6, r8, r9, ip, lr}^
     5f4:	435f5053 	cmpmi	pc, #83	; 0x53
     5f8:	525f4b4c 	subspl	r4, pc, #77824	; 0x13000
     5fc:	31304745 	teqcc	r0, r5, asr #14
     600:	73003032 	movwvc	r3, #50	; 0x32
     604:	646e6174 	strbtvs	r6, [lr], #-372
     608:	635f7962 	cmpvs	pc, #1605632	; 0x188000
     60c:	615f6b6c 	cmpvs	pc, ip, ror #22
     610:	6c326270 	lfmvs	f6, 4, [r2], #-448
     614:	0063736f 	rsbeq	r7, r3, pc, ror #6
     618:	43435f5f 	movtmi	r5, #16223	; 0x3f5f
     61c:	485f554d 	ldmdami	pc, {r0, r2, r3, r6, r8, sl, ip, lr}^
     620:	5f494d44 	svcpl	0x00494d44
     624:	5f4b4c43 	svcpl	0x004b4c43
     628:	30474552 	subcc	r4, r7, r2, asr r5
     62c:	00303531 	eorseq	r3, r0, r1, lsr r5
     630:	30627041 	rsbcc	r7, r2, r1, asr #32
     634:	65746147 	ldrbvs	r6, [r4, #-327]!
     638:	65705300 	ldrbvs	r5, [r0, #-768]!
     63c:	6b6c4363 	blvs	1b113d0 <__standby_start+0x1b113d0>
     640:	63725331 	cmnvs	r2, #-1006632960	; 0xc4000000
     644:	72615500 	rsbvc	r5, r1, #0	; 0x0
     648:	61473574 	cmpvs	r7, r4, ror r5
     64c:	5f006574 	svcpl	0x00006574
     650:	4d43435f 	stclmi	3, cr4, [r3, #-380]
     654:	4c505f55 	mrrcmi	15, 5, r5, r0, cr5
     658:	445f354c 	ldrbmi	r3, [pc], #1356	; 660 <__standby_start+0x660>
     65c:	525f5244 	subspl	r5, pc, #1073741828	; 0x40000004
     660:	30304745 	eorscc	r4, r0, r5, asr #14
     664:	48003032 	stmdami	r0, {r1, r4, r5, ip, sp}
     668:	4363736f 	cmnmi	r3, #-1140850687	; 0xbc000001
     66c:	5f006c74 	svcpl	0x00006c74
     670:	6d63635f 	stclvs	3, cr6, [r3, #-380]!
     674:	6c705f75 	ldclvs	15, cr5, [r0], #-468
     678:	745f316c 	ldrbvc	r3, [pc], #364	; 680 <__standby_start+0x680>
     67c:	6e696e75 	mcrvs	14, 3, r6, cr9, cr5, {3}
     680:	65725f67 	ldrbvs	r5, [r2, #-3943]!
     684:	30303067 	eorscc	r3, r0, r7, rrx
     688:	00745f34 	rsbseq	r5, r4, r4, lsr pc
     68c:	43435f5f 	movtmi	r5, #16223	; 0x3f5f
     690:	505f554d 	subspl	r5, pc, sp, asr #10
     694:	5f344c4c 	svcpl	0x00344c4c
     698:	525f4556 	subspl	r4, pc, #360710144	; 0x15800000
     69c:	30304745 	eorscc	r4, r0, r5, asr #14
     6a0:	4f003831 	svcmi	0x00003831
     6a4:	31494348 	cmpcc	r9, r8, asr #6
     6a8:	63657053 	cmnvs	r5, #83	; 0x53
     6ac:	476b6c43 	strbmi	r6, [fp, -r3, asr #24]!
     6b0:	00657461 	rsbeq	r7, r5, r1, ror #8
     6b4:	33697053 	cmncc	r9, #83	; 0x53
     6b8:	006b6c43 	rsbeq	r6, fp, r3, asr #24
     6bc:	63635f5f 	cmnvs	r3, #380	; 0x17c
     6c0:	615f756d 	cmpvs	pc, sp, ror #10
     6c4:	63316270 	teqvs	r1, #7	; 0x7
     6c8:	725f6b6c 	subsvc	r6, pc, #110592	; 0x1b000
     6cc:	6f697461 	svcvs	0x00697461
     6d0:	6765725f 	undefined
     6d4:	38353030 	ldmdacc	r5!, {r4, r5, ip, sp}
     6d8:	7300745f 	movwvc	r7, #1119	; 0x45f
     6dc:	646e6174 	strbtvs	r6, [lr], #-372
     6e0:	635f7962 	cmpvs	pc, #1605632	; 0x188000
     6e4:	685f6b6c 	ldmdavs	pc, {r2, r3, r5, r6, r8, r9, fp, sp, lr}^
     6e8:	6463736f 	strbtvs	r7, [r3], #-879
     6ec:	62617369 	rsbvs	r7, r1, #-1543503871	; 0xa4000001
     6f0:	4c00656c 	cfstr32mi	mvfx6, [r0], {108}
     6f4:	754f4f44 	strbvc	r4, [pc, #-3908]	; fffff7b8 <__bss_end+0xfffd730>
     6f8:	74757074 	ldrbtvc	r7, [r5], #-116
     6fc:	79685000 	stmdbvc	r8!, {ip, lr}^
     700:	63657053 	cmnvs	r5, #83	; 0x53
     704:	476b6c43 	strbmi	r6, [fp, -r3, asr #24]!
     708:	00657461 	rsbeq	r7, r5, r1, ror #8
     70c:	63635f5f 	cmnvs	r3, #380	; 0x17c
     710:	755f756d 	ldrbvc	r7, [pc, #-1389]	; 1ab <__standby_start+0x1ab>
     714:	635f6273 	cmpvs	pc, #805306375	; 0x30000007
     718:	725f6b6c 	subsvc	r6, pc, #110592	; 0x1b000
     71c:	30306765 	eorscc	r6, r0, r5, ror #14
     720:	745f6363 	ldrbvc	r6, [pc], #867	; 728 <__standby_start+0x728>
     724:	47734d00 	ldrbmi	r4, [r3, -r0, lsl #26]!
     728:	00657461 	rsbeq	r7, r5, r1, ror #8
     72c:	31627041 	cmncc	r2, r1, asr #32
     730:	65746147 	ldrbvs	r6, [r4, #-327]!
     734:	63614600 	cmnvs	r1, #0	; 0x0
     738:	4b726f74 	blmi	1c9c510 <__standby_start+0x1c9c510>
     73c:	63614600 	cmnvs	r1, #0	; 0x0
     740:	4d726f74 	ldclmi	15, cr6, [r2, #-464]!
     744:	63614600 	cmnvs	r1, #0	; 0x0
     748:	4e726f74 	mrcmi	15, 3, r6, cr2, cr4, {3}
     74c:	63614600 	cmnvs	r1, #0	; 0x0
     750:	50726f74 	rsbspl	r6, r2, r4, ror pc
     754:	435f5f00 	cmpmi	pc, #0	; 0x0
     758:	5f554d43 	svcpl	0x00554d43
     75c:	364c4c50 	undefined
     760:	5441535f 	strbpl	r5, [r1], #-863
     764:	45525f41 	ldrbmi	r5, [r2, #-3905]
     768:	32303047 	eorscc	r3, r0, #71	; 0x47
     76c:	61500038 	cmpvs	r0, r8, lsr r0
     770:	61476174 	cmpvs	r7, r4, ror r1
     774:	55006574 	strpl	r6, [r0, #-1396]
     778:	32747261 	rsbscc	r7, r4, #268435462	; 0x10000006
     77c:	65746147 	ldrbvs	r6, [r4, #-327]!
     780:	43734d00 	cmnmi	r3, #0	; 0x0
     784:	5f006b6c 	svcpl	0x00006b6c
     788:	6d63635f 	stclvs	3, cr6, [r3, #-380]!
     78c:	6f6d5f75 	svcvs	0x006d5f75
     790:	656c7564 	strbvs	r7, [ip, #-1380]!
     794:	6c635f31 	stclvs	15, cr5, [r3], #-196
     798:	00745f6b 	rsbseq	r5, r4, fp, ror #30
     79c:	37396341 	ldrcc	r6, [r9, -r1, asr #6]!
     7a0:	65746147 	ldrbvs	r6, [r4, #-327]!
     7a4:	42654400 	rsbmi	r4, r5, #0	; 0x0
     7a8:	6c433165 	stfvse	f3, [r3], {101}
     7ac:	5f5f006b 	svcpl	0x005f006b
     7b0:	756d6363 	strbvc	r6, [sp, #-867]!
     7b4:	63736f5f 	cmnvs	r3, #380	; 0x17c
     7b8:	5f6d3432 	svcpl	0x006d3432
     7bc:	30676572 	rsbcc	r6, r7, r2, ror r5
     7c0:	5f303530 	svcpl	0x00303530
     7c4:	64530074 	ldrbvs	r0, [r3], #-116
     7c8:	32636d4d 	rsbcc	r6, r3, #4928	; 0x1340
     7cc:	006b6c43 	rsbeq	r6, fp, r3, asr #24
     7d0:	61746153 	cmnvs	r4, r3, asr r1
     7d4:	65746147 	ldrbvs	r6, [r4, #-327]!
     7d8:	6c6c5000 	stclvs	0, cr5, [ip]
     7dc:	6c744333 	ldclvs	3, cr4, [r4], #-204
     7e0:	64634c00 	strbtvs	r4, [r3], #-3072
     7e4:	74614730 	strbtvc	r4, [r1], #-1840
     7e8:	6c500065 	mrrcvs	0, 6, r0, r0, cr5
     7ec:	7554346c 	ldrbvc	r3, [r4, #-1132]
     7f0:	5500656e 	strpl	r6, [r0, #-1390]
     7f4:	47306273 	undefined
     7f8:	00657461 	rsbeq	r7, r5, r1, ror #8
     7fc:	49697343 	stmdbmi	r9!, {r0, r1, r6, r8, r9, ip, sp, lr}^
     800:	6c437073 	mcrrvs	0, 7, r7, r3, cr3
     804:	5f5f006b 	svcpl	0x005f006b
     808:	756d6363 	strbvc	r6, [sp, #-867]!
     80c:	6c6c705f 	stclvs	0, cr7, [ip], #-380
     810:	64645f35 	strbtvs	r5, [r4], #-3893
     814:	65725f72 	ldrbvs	r5, [r2, #-3954]!
     818:	32303067 	eorscc	r3, r0, #103	; 0x67
     81c:	00745f30 	rsbseq	r5, r4, r0, lsr pc
     820:	65426544 	strbvs	r6, [r2, #-1348]
     824:	74614731 	strbtvc	r4, [r1], #-1841
     828:	5f5f0065 	svcpl	0x005f0065
     82c:	756d6363 	strbvc	r6, [sp, #-867]!
     830:	6c6c705f 	stclvs	0, cr7, [ip], #-380
     834:	75615f32 	strbvc	r5, [r1, #-3890]!
     838:	5f6f6964 	svcpl	0x006f6964
     83c:	30676572 	rsbcc	r6, r7, r2, ror r5
     840:	5f383030 	svcpl	0x00383030
     844:	5f5f0074 	svcpl	0x005f0074
     848:	554d4343 	strbpl	r4, [sp, #-835]
     84c:	5356415f 	cmppl	r6, #-1073741801	; 0xc0000017
     850:	4b4c435f 	blmi	13115d4 <__standby_start+0x13115d4>
     854:	4745525f 	smlsldmi	r5, r5, pc, r2
     858:	34343130 	ldrtcc	r3, [r4], #-304
     85c:	65724600 	ldrbvs	r4, [r2, #-1536]!
     860:	646f4d71 	strbtvs	r4, [pc], #3441	; 868 <__standby_start+0x868>
     864:	4c500065 	mrrcmi	0, 6, r0, r0, cr5
     868:	7669444c 	strbtvc	r4, [r9], -ip, asr #8
     86c:	77540050 	undefined
     870:	61473069 	cmpvs	r7, r9, rrx
     874:	55006574 	strpl	r6, [r0, #-1396]
     878:	68506273 	ldmdavs	r0, {r0, r1, r4, r5, r6, r9, sp, lr}^
     87c:	73523079 	cmpvc	r2, #121	; 0x79
     880:	6c500074 	mrrcvs	0, 7, r0, r0, cr4
     884:	7554316c 	ldrbvc	r3, [r4, #-364]
     888:	4100656e 	tstmi	r0, lr, ror #10
     88c:	43373963 	teqmi	r7, #1622016	; 0x18c000
     890:	4f006b6c 	svcmi	0x00006b6c
     894:	31696368 	cmncc	r9, r8, ror #6
     898:	65746147 	ldrbvs	r6, [r4, #-327]!
     89c:	31724900 	cmncc	r2, r0, lsl #18
     8a0:	65746147 	ldrbvs	r6, [r4, #-327]!
     8a4:	635f5f00 	cmpvs	pc, #0	; 0x0
     8a8:	5f756d63 	svcpl	0x00756d63
     8ac:	69697363 	stmdbvs	r9!, {r0, r1, r5, r6, r8, r9, ip, sp, lr}^
     8b0:	635f7073 	cmpvs	pc, #115	; 0x73
     8b4:	725f6b6c 	subsvc	r6, pc, #110592	; 0x1b000
     8b8:	31306765 	teqcc	r0, r5, ror #14
     8bc:	745f3032 	ldrbvc	r3, [pc], #50	; 8c4 <__standby_start+0x8c4>
     8c0:	435f5f00 	cmpmi	pc, #0	; 0x0
     8c4:	5f554d43 	svcpl	0x00554d43
     8c8:	43424841 	movtmi	r4, #10305	; 0x2841
     8cc:	475f4b4c 	ldrbmi	r4, [pc, -ip, asr #22]
     8d0:	31455441 	cmpcc	r5, r1, asr #8
     8d4:	4745525f 	smlsldmi	r5, r5, pc, r2
     8d8:	34363030 	ldrtcc	r3, [r6], #-48
     8dc:	69705300 	ldmdbvs	r0!, {r8, r9, ip, lr}^
     8e0:	74614731 	strbtvc	r4, [r1], #-1841
     8e4:	5f5f0065 	svcpl	0x005f0065
     8e8:	756d6363 	strbvc	r6, [sp, #-867]!
     8ec:	7461735f 	strbtvc	r7, [r1], #-863
     8f0:	6c635f61 	stclvs	15, cr5, [r3], #-388
     8f4:	65725f6b 	ldrbvs	r5, [r2, #-3947]!
     8f8:	63303067 	teqvs	r0, #103	; 0x67
     8fc:	00745f38 	rsbseq	r5, r4, r8, lsr pc
     900:	30327350 	eorscc	r7, r2, r0, asr r3
     904:	65746147 	ldrbvs	r6, [r4, #-327]!
     908:	73694200 	cmnvc	r9, #0	; 0x0
     90c:	74614774 	strbtvc	r4, [r1], #-1908
     910:	61430065 	cmpvs	r3, r5, rrx
     914:	7461476e 	strbtvc	r4, [r1], #-1902
     918:	5f5f0065 	svcpl	0x005f0065
     91c:	756d6363 	strbvc	r6, [sp, #-867]!
     920:	6973635f 	ldmdbvs	r3!, {r0, r1, r2, r3, r4, r6, r8, r9, sp, lr}^
     924:	6b6c635f 	blvs	1b196a8 <__standby_start+0x1b196a8>
     928:	4100745f 	tstmi	r0, pc, asr r4
     92c:	6c434248 	sfmvs	f4, 2, [r3], {72}
     930:	7669446b 	strbtvc	r4, [r9], -fp, ror #8
     934:	6d645300 	stclvs	3, cr5, [r4]
     938:	4730636d 	ldrmi	r6, [r0, -sp, ror #6]!
     93c:	00657461 	rsbeq	r7, r5, r1, ror #8
     940:	4f6b6c43 	svcmi	0x006b6c43
     944:	75707475 	ldrbvc	r7, [r0, #-1141]!
     948:	006e4574 	rsbeq	r4, lr, r4, ror r5
     94c:	63635f5f 	cmnvs	r3, #380	; 0x17c
     950:	615f756d 	cmpvs	pc, sp, ror #10
     954:	6c636268 	sfmvs	f6, 2, [r3], #-416
     958:	61675f6b 	cmnvs	r7, fp, ror #30
     95c:	5f316574 	svcpl	0x00316574
     960:	30676572 	rsbcc	r6, r7, r2, ror r5
     964:	5f343630 	svcpl	0x00343630
     968:	5f5f0074 	svcpl	0x005f0074
     96c:	756d6363 	strbvc	r6, [sp, #-867]!
     970:	6c616d5f 	stclvs	13, cr6, [r1], #-380
     974:	30303469 	eorscc	r3, r0, r9, ror #8
     978:	6b6c635f 	blvs	1b196fc <__standby_start+0x1b196fc>
     97c:	6765725f 	undefined
     980:	34353130 	ldrtcc	r3, [r5], #-304
     984:	4300745f 	movwmi	r7, #1119	; 0x45f
     988:	43306973 	teqmi	r0, #1884160	; 0x1cc000
     98c:	49006b6c 	stmdbmi	r0, {r2, r3, r5, r6, r8, r9, fp, sp, lr}
     990:	6c433172 	stfvse	f3, [r3], {114}
     994:	7473006b 	ldrbtvc	r0, [r3], #-107
     998:	62646e61 	rsbvs	r6, r4, #1552	; 0x610
     99c:	6c635f79 	stclvs	15, cr5, [r3], #-484
     9a0:	6f635f6b 	svcvs	0x00635f6b
     9a4:	70326572 	eorsvc	r6, r2, r2, ror r5
     9a8:	5f006c6c 	svcpl	0x00006c6c
     9ac:	6d63635f 	stclvs	3, cr6, [r3, #-380]!
     9b0:	70675f75 	rsbvc	r5, r7, r5, ror pc
     9b4:	6c635f73 	stclvs	15, cr5, [r3], #-460
     9b8:	65725f6b 	ldrbvs	r5, [r2, #-3947]!
     9bc:	64303067 	ldrtvs	r3, [r0], #-103
     9c0:	00745f30 	rsbseq	r5, r4, r0, lsr pc
     9c4:	47626841 	strbmi	r6, [r2, -r1, asr #16]!
     9c8:	30657461 	rsbcc	r7, r5, r1, ror #8
     9cc:	62684100 	rsbvs	r4, r8, #0	; 0x0
     9d0:	65746147 	ldrbvs	r6, [r4, #-327]!
     9d4:	32490031 	subcc	r0, r9, #49	; 0x31
     9d8:	6b6c4373 	blvs	1b117ac <__standby_start+0x1b117ac>
     9dc:	435f5f00 	cmpmi	pc, #0	; 0x0
     9e0:	5f554d43 	svcpl	0x00554d43
     9e4:	5f495343 	svcpl	0x00495343
     9e8:	004b4c43 	subeq	r4, fp, r3, asr #24
     9ec:	63635f5f 	cmnvs	r3, #380	; 0x17c
     9f0:	6b5f756d 	blvs	17ddfac <__standby_start+0x17ddfac>
     9f4:	61707965 	cmnvs	r0, r5, ror #18
     9f8:	6c635f64 	stclvs	15, cr5, [r3], #-400
     9fc:	65725f6b 	ldrbvs	r5, [r2, #-3947]!
     a00:	63303067 	teqvs	r0, #103	; 0x67
     a04:	00745f34 	rsbseq	r5, r4, r4, lsr pc
     a08:	316c6c50 	cmncc	ip, r0, asr ip
     a0c:	006c7443 	rsbeq	r7, ip, r3, asr #8
     a10:	706d6144 	rsbvc	r6, sp, r4, asr #2
     a14:	74636146 	strbtvc	r6, [r3], #-326
     a18:	4b00726f 	blmi	1d3dc <__standby_start+0x1d3dc>
     a1c:	61707965 	cmnvs	r0, r5, ror #18
     a20:	74614764 	strbtvc	r4, [r1], #-1892
     a24:	70530065 	subsvc	r0, r3, r5, rrx
     a28:	61473269 	cmpvs	r7, r9, ror #4
     a2c:	44006574 	strmi	r6, [r0], #-1396
     a30:	30654665 	rsbcc	r4, r5, r5, ror #12
     a34:	006b6c43 	rsbeq	r6, fp, r3, asr #24
     a38:	30657654 	rsbcc	r7, r5, r4, asr r6
     a3c:	65746147 	ldrbvs	r6, [r4, #-327]!
     a40:	61747300 	cmnvs	r4, r0, lsl #6
     a44:	7962646e 	stmdbvc	r2!, {r1, r2, r3, r5, r6, sl, sp, lr}^
     a48:	6b6c635f 	blvs	1b197cc <__standby_start+0x1b197cc>
     a4c:	696e695f 	stmdbvs	lr!, {r0, r1, r2, r3, r4, r6, r8, fp, sp, lr}^
     a50:	5f5f0074 	svcpl	0x005f0074
     a54:	756d6363 	strbvc	r6, [sp, #-867]!
     a58:	6c6c705f 	stclvs	0, cr7, [ip], #-380
     a5c:	6f635f31 	svcvs	0x00635f31
     a60:	725f6572 	subsvc	r6, pc, #478150656	; 0x1c800000
     a64:	30306765 	eorscc	r6, r0, r5, ror #14
     a68:	745f3030 	ldrbvc	r3, [pc], #48	; a70 <__standby_start+0xa70>
     a6c:	65705300 	ldrbvs	r5, [r0, #-768]!
     a70:	6b6c4363 	blvs	1b11804 <__standby_start+0x1b11804>
     a74:	74614732 	strbtvc	r4, [r1], #-1842
     a78:	72490065 	subvc	r0, r9, #101	; 0x65
     a7c:	6b6c4330 	blvs	1b11744 <__standby_start+0x1b11744>
     a80:	62704100 	rsbsvs	r4, r0, #0	; 0x0
     a84:	6b6c4331 	blvs	1b11750 <__standby_start+0x1b11750>
     a88:	00766944 	rsbseq	r6, r6, r4, asr #18
     a8c:	6e617473 	mcrvs	4, 3, r7, cr1, cr3, {3}
     a90:	5f796264 	svcpl	0x00796264
     a94:	5f6b6c63 	svcpl	0x006b6c63
     a98:	656f646c 	strbvs	r6, [pc, #-1132]!	; 634 <__standby_start+0x634>
     a9c:	6c62616e 	stfvse	f6, [r2], #-440
     aa0:	63410065 	movtvs	r0, #4197	; 0x1065
     aa4:	6b6c4365 	blvs	1b11840 <__standby_start+0x1b11840>
     aa8:	435f5f00 	cmpmi	pc, #0	; 0x0
     aac:	5f554d43 	svcpl	0x00554d43
     ab0:	494c414d 	stmdbmi	ip, {r0, r2, r3, r6, r8, lr}^
     ab4:	5f303034 	svcpl	0x00303034
     ab8:	5f4b4c43 	svcpl	0x004b4c43
     abc:	30474552 	subcc	r4, r7, r2, asr r5
     ac0:	00343531 	eorseq	r3, r4, r1, lsr r5
     ac4:	6e617473 	mcrvs	4, 3, r7, cr1, cr3, {3}
     ac8:	5f796264 	svcpl	0x00796264
     acc:	5f6b6c63 	svcpl	0x006b6c63
     ad0:	65726f63 	ldrbvs	r6, [r2, #-3939]!
     ad4:	736f6c32 	cmnvc	pc, #12800	; 0x3200
     ad8:	5f5f0063 	svcpl	0x005f0063
     adc:	554d4343 	strbpl	r4, [sp, #-835]
     ae0:	4253555f 	subsmi	r5, r3, #398458880	; 0x17c00000
     ae4:	4b4c435f 	blmi	1311868 <__standby_start+0x1311868>
     ae8:	4745525f 	smlsldmi	r5, r5, pc, r2
     aec:	43433030 	movtmi	r3, #12336	; 0x3030
     af0:	67695300 	strbvs	r5, [r9, -r0, lsl #6]!
     af4:	6e45616d 	dvfvssz	f6, f5, #5.0
     af8:	435f5f00 	cmpmi	pc, #0	; 0x0
     afc:	5f554d43 	svcpl	0x00554d43
     b00:	41544153 	cmpmi	r4, r3, asr r1
     b04:	4b4c435f 	blmi	1311888 <__standby_start+0x1311888>
     b08:	4745525f 	smlsldmi	r5, r5, pc, r2
     b0c:	38433030 	stmdacc	r3, {r4, r5, ip, sp}^
     b10:	64705300 	ldrbtvs	r5, [r0], #-768
     b14:	61476669 	cmpvs	r7, r9, ror #12
     b18:	45006574 	strmi	r6, [r0, #-1396]
     b1c:	31696368 	cmncc	r9, r8, ror #6
     b20:	65746147 	ldrbvs	r6, [r4, #-327]!
     b24:	76615700 	strbtvc	r5, [r1], -r0, lsl #14
     b28:	746f4265 	strbtvc	r4, [pc], #613	; b30 <__standby_start+0xb30>
     b2c:	006d6f74 	rsbeq	r6, sp, r4, ror pc
     b30:	50627355 	rsbpl	r7, r2, r5, asr r3
     b34:	52327968 	eorspl	r7, r2, #1703936	; 0x1a0000
     b38:	53007473 	movwpl	r7, #1139	; 0x473
     b3c:	43306970 	teqmi	r0, #1835008	; 0x1c0000
     b40:	5f006b6c 	svcpl	0x00006b6c
     b44:	4d43435f 	stclmi	3, cr4, [r3, #-380]
     b48:	4f4d5f55 	svcmi	0x004d5f55
     b4c:	454c5544 	strbmi	r5, [ip, #-1348]
     b50:	4c435f30 	mcrrmi	15, 3, r5, r3, cr0
     b54:	7473004b 	ldrbtvc	r0, [r3], #-75
     b58:	62646e61 	rsbvs	r6, r4, #1552	; 0x610
     b5c:	6c635f79 	stclvs	15, cr5, [r3], #-484
     b60:	70615f6b 	rsbvc	r5, r1, fp, ror #30
     b64:	6f683262 	svcvs	0x00683262
     b68:	73006373 	movwvc	r6, #883	; 0x373
     b6c:	646e6174 	strbtvs	r6, [lr], #-372
     b70:	635f7962 	cmpvs	pc, #1605632	; 0x188000
     b74:	6b636f6c 	blvs	18dc92c <__standby_start+0x18dc92c>
     b78:	4400632e 	strmi	r6, [r0], #-814
     b7c:	31654665 	cmncc	r5, r5, ror #12
     b80:	006b6c43 	rsbeq	r6, fp, r3, asr #24
     b84:	74726155 	ldrbtvc	r6, [r2], #-341
     b88:	74614737 	strbtvc	r4, [r1], #-1847
     b8c:	74730065 	ldrbtvc	r0, [r3], #-101
     b90:	62646e61 	rsbvs	r6, r4, #1552	; 0x610
     b94:	6c635f79 	stclvs	15, cr5, [r3], #-484
     b98:	646c5f6b 	strbtvs	r5, [ip], #-3947
     b9c:	7369646f 	cmnvc	r9, #1862270976	; 0x6f000000
     ba0:	656c6261 	strbvs	r6, [ip, #-609]!
     ba4:	47655600 	strbmi	r5, [r5, -r0, lsl #12]!
     ba8:	00657461 	rsbeq	r7, r5, r1, ror #8
     bac:	696d6448 	stmdbvs	sp!, {r3, r6, sl, sp, lr}^
     bb0:	006b6c43 	rsbeq	r6, fp, r3, asr #24
     bb4:	424c4c50 	submi	r4, ip, #20480	; 0x5000
     bb8:	73617079 	cmnvc	r1, #121	; 0x79
     bbc:	634c0073 	movtvs	r0, #49267	; 0xc073
     bc0:	68433064 	stmdavs	r3, {r2, r5, r6, ip, sp}^
     bc4:	6b6c4330 	blvs	1b1188c <__standby_start+0x1b1188c>
     bc8:	63784500 	cmnvs	r8, #0	; 0x0
     bcc:	676e6168 	strbvs	r6, [lr, -r8, ror #2]!
     bd0:	006e4565 	rsbeq	r4, lr, r5, ror #10
     bd4:	63617246 	cmnvs	r1, #1610612740	; 0x60000004
     bd8:	00746553 	rsbseq	r6, r4, r3, asr r5
     bdc:	63635f5f 	cmnvs	r3, #380	; 0x17c
     be0:	615f756d 	cmpvs	pc, sp, ror #10
     be4:	63316270 	teqvs	r1, #7	; 0x7
     be8:	675f6b6c 	ldrbvs	r6, [pc, -ip, ror #22]
     bec:	5f657461 	svcpl	0x00657461
     bf0:	30676572 	rsbcc	r6, r7, r2, ror r5
     bf4:	5f633630 	svcpl	0x00633630
     bf8:	74730074 	ldrbtvc	r0, [r3], #-116
     bfc:	62646e61 	rsbvs	r6, r4, #1552	; 0x610
     c00:	6c635f79 	stclvs	15, cr5, [r3], #-484
     c04:	72645f6b 	rsbvc	r5, r4, #428	; 0x1ac
     c08:	61676d61 	cmnvs	r7, r1, ror #26
     c0c:	676e6974 	undefined
     c10:	64764c00 	ldrbtvs	r4, [r6], #-3072
     c14:	6b6c4373 	blvs	1b119e8 <__standby_start+0x1b119e8>
     c18:	4f435600 	svcmi	0x00435600
     c1c:	49747352 	ldmdbmi	r4!, {r1, r4, r6, r8, r9, ip, sp, lr}^
     c20:	6155006e 	cmpvs	r5, lr, rrx
     c24:	47347472 	undefined
     c28:	00657461 	rsbeq	r7, r5, r1, ror #8
     c2c:	43435f5f 	movtmi	r5, #16223	; 0x3f5f
     c30:	415f554d 	cmpmi	pc, sp, asr #10
     c34:	4c434958 	mcrrmi	9, 5, r4, r3, cr8
     c38:	41475f4b 	cmpmi	r7, fp, asr #30
     c3c:	525f4554 	subspl	r4, pc, #352321536	; 0x15000000
     c40:	30304745 	eorscc	r4, r0, r5, asr #14
     c44:	53006335 	movwpl	r6, #821	; 0x335
     c48:	6c437379 	mcrrvs	3, 7, r7, r3, cr9
     c4c:	7669446b 	strbtvc	r4, [r9], -fp, ror #8
     c50:	46654400 	strbtmi	r4, [r5], -r0, lsl #8
     c54:	61473165 	cmpvs	r7, r5, ror #2
     c58:	6f006574 	svcvs	0x00006574
     c5c:	66666f6e 	strbtvs	r6, [r6], -lr, ror #30
     c60:	4c4c5000 	marmi	acc0, r5, ip
     c64:	73616942 	cmnvc	r1, #1081344	; 0x108000
     c68:	5f006e45 	svcpl	0x00006e45
     c6c:	4d43435f 	stclmi	3, cr4, [r3, #-380]
     c70:	4c505f55 	mrrcmi	15, 5, r5, r0, cr5
     c74:	415f324c 	cmpmi	pc, ip, asr #4
     c78:	4f494455 	svcmi	0x00494455
     c7c:	4745525f 	smlsldmi	r5, r5, pc, r2
     c80:	38303030 	ldmdacc	r0!, {r4, r5, ip, sp}
     c84:	435f5f00 	cmpmi	pc, #0	; 0x0
     c88:	5f554d43 	svcpl	0x00554d43
     c8c:	4344434c 	movtmi	r4, #17228	; 0x434c
     c90:	435f3148 	cmpmi	pc, #18	; 0x12
     c94:	5f004b4c 	svcpl	0x00004b4c
     c98:	6d63635f 	stclvs	3, cr6, [r3, #-380]!
     c9c:	6c705f75 	ldclvs	15, cr5, [r0], #-468
     ca0:	745f356c 	ldrbvc	r3, [pc], #1388	; ca8 <__standby_start+0xca8>
     ca4:	6e696e75 	mcrvs	14, 3, r6, cr9, cr5, {3}
     ca8:	65725f67 	ldrbvs	r5, [r2, #-3943]!
     cac:	32303067 	eorscc	r3, r0, #103	; 0x67
     cb0:	00745f34 	rsbseq	r5, r4, r4, lsr pc
     cb4:	435f5f5f 	cmpmi	pc, #380	; 0x17c
     cb8:	5f554d43 	svcpl	0x00554d43
     cbc:	314c4c50 	cmpcc	ip, r0, asr ip
     cc0:	524f435f 	subpl	r4, pc, #2080374785	; 0x7c000001
     cc4:	45525f45 	ldrbmi	r5, [r2, #-3909]
     cc8:	30303047 	eorscc	r3, r0, r7, asr #32
     ccc:	61550030 	cmpvs	r5, r0, lsr r0
     cd0:	47317472 	undefined
     cd4:	00657461 	rsbeq	r7, r5, r1, ror #8
     cd8:	43737047 	cmnmi	r3, #71	; 0x47
     cdc:	5f006b6c 	svcpl	0x00006b6c
     ce0:	4d43435f 	stclmi	3, cr4, [r3, #-380]
     ce4:	44415f55 	strbmi	r5, [r1], #-3925
     ce8:	435f4144 	cmpmi	pc, #17	; 0x11
     cec:	525f4b4c 	subspl	r4, pc, #77824	; 0x13000
     cf0:	31304745 	teqcc	r0, r5, asr #14
     cf4:	53003034 	movwpl	r3, #52	; 0x34
     cf8:	66696470 	undefined
     cfc:	006b6c43 	rsbeq	r6, fp, r3, asr #24
     d00:	63635f5f 	cmnvs	r3, #380	; 0x17c
     d04:	705f756d 	subsvc	r7, pc, sp, ror #10
     d08:	5f336c6c 	svcpl	0x00336c6c
     d0c:	65646976 	strbvs	r6, [r4, #-2422]!
     d10:	65725f6f 	ldrbvs	r5, [r2, #-3951]!
     d14:	31303067 	teqcc	r0, r7, rrx
     d18:	00745f30 	rsbseq	r5, r4, r0, lsr pc
     d1c:	61726453 	cmnvs	r2, r3, asr r4
     d20:	7461476d 	strbtvc	r4, [r1], #-1901
     d24:	77540065 	ldrbvc	r0, [r4, -r5, rrx]
     d28:	61473269 	cmpvs	r7, r9, ror #4
     d2c:	5f006574 	svcpl	0x00006574
     d30:	6d63635f 	stclvs	3, cr6, [r3, #-380]!
     d34:	70615f75 	rsbvc	r5, r1, r5, ror pc
     d38:	6c633062 	stclvs	0, cr3, [r3], #-392
     d3c:	61675f6b 	cmnvs	r7, fp, ror #30
     d40:	725f6574 	subsvc	r6, pc, #486539264	; 0x1d000000
     d44:	30306765 	eorscc	r6, r0, r5, ror #14
     d48:	745f3836 	ldrbvc	r3, [pc], #2102	; d50 <__standby_start+0xd50>
     d4c:	69705300 	ldmdbvs	r0!, {r8, r9, ip, lr}^
     d50:	6b6c4332 	blvs	1b11a20 <__standby_start+0x1b11a20>
     d54:	65634100 	strbvs	r4, [r3, #-256]!
     d58:	65746147 	ldrbvs	r6, [r4, #-327]!
     d5c:	43534f00 	cmpmi	r3, #0	; 0x0
     d60:	474d3432 	smlaldxmi	r3, sp, r2, r4
     d64:	44006d73 	strmi	r6, [r0], #-3443
     d68:	476d6172 	undefined
     d6c:	00657461 	rsbeq	r7, r5, r1, ror #8
     d70:	6d676953 	stclvs	9, cr6, [r7, #-332]!
     d74:	74754f61 	ldrbtvc	r4, [r5], #-3937
     d78:	6d645300 	stclvs	3, cr5, [r4]
     d7c:	4732636d 	ldrmi	r6, [r2, -sp, ror #6]!
     d80:	00657461 	rsbeq	r7, r5, r1, ror #8
     d84:	63635f5f 	cmnvs	r3, #380	; 0x17c
     d88:	705f756d 	subsvc	r7, pc, sp, ror #10
     d8c:	5f376c6c 	svcpl	0x00376c6c
     d90:	65646976 	strbvs	r6, [r4, #-2422]!
     d94:	725f316f 	subsvc	r3, pc, #-1073741797	; 0xc000001b
     d98:	30306765 	eorscc	r6, r0, r5, ror #14
     d9c:	745f3033 	ldrbvc	r3, [pc], #51	; da4 <__standby_start+0xda4>
     da0:	42654400 	rsbmi	r4, r5, #0	; 0x0
     da4:	6c433065 	mcrrvs	0, 6, r3, r3, cr5
     da8:	6f4d006b 	svcvs	0x004d006b
     dac:	65536564 	ldrbvs	r6, [r3, #-1380]
     db0:	7047006c 	subvc	r0, r7, ip, rrx
     db4:	47443375 	smlsldxmi	r3, r4, r5, r3
     db8:	00657461 	rsbeq	r7, r5, r1, ror #8
     dbc:	3164634c 	cmncc	r4, ip, asr #6
     dc0:	43316843 	teqmi	r1, #4390912	; 0x430000
     dc4:	5f006b6c 	svcpl	0x00006b6c
     dc8:	4d43435f 	stclmi	3, cr4, [r3, #-380]
     dcc:	4c505f55 	mrrcmi	15, 5, r5, r0, cr5
     dd0:	565f374c 	ldrbpl	r3, [pc], -ip, asr #14
     dd4:	4f454449 	svcmi	0x00454449
     dd8:	45525f31 	ldrbmi	r5, [r2, #-3889]
     ddc:	33303047 	teqcc	r0, #71	; 0x47
     de0:	5f5f0030 	svcpl	0x005f0030
     de4:	554d4343 	strbpl	r4, [sp, #-835]
     de8:	4456545f 	ldrbmi	r5, [r6], #-1119
     dec:	4b4c435f 	blmi	1311b70 <__standby_start+0x1311b70>
     df0:	4745525f 	smlsldmi	r5, r5, pc, r2
     df4:	38323130 	ldmdacc	r2!, {r4, r5, r8, ip, sp}
     df8:	735f5f00 	cmpvc	pc, #0	; 0x0
     dfc:	4f003233 	svcmi	0x00003233
     e00:	30696368 	rsbcc	r6, r9, r8, ror #6
     e04:	65746147 	ldrbvs	r6, [r4, #-327]!
     e08:	30724900 	rsbscc	r4, r2, r0, lsl #18
     e0c:	65746147 	ldrbvs	r6, [r4, #-327]!
     e10:	435f5f00 	cmpmi	pc, #0	; 0x0
     e14:	5f554d43 	svcpl	0x00554d43
     e18:	5f535047 	svcpl	0x00535047
     e1c:	5f4b4c43 	svcpl	0x004b4c43
     e20:	30474552 	subcc	r4, r7, r2, asr r5
     e24:	00304430 	eorseq	r4, r0, r0, lsr r4
     e28:	63635f5f 	cmnvs	r3, #380	; 0x17c
     e2c:	615f756d 	cmpvs	pc, sp, ror #10
     e30:	635f6563 	cmpvs	pc, #415236096	; 0x18c00000
     e34:	725f6b6c 	subsvc	r6, pc, #110592	; 0x1b000
     e38:	31306765 	teqcc	r0, r5, ror #14
     e3c:	745f3834 	ldrbvc	r3, [pc], #2100	; e44 <__standby_start+0xe44>
     e40:	635f5f00 	cmpvs	pc, #0	; 0x0
     e44:	5f756d63 	svcpl	0x00756d63
     e48:	75646f6d 	strbvc	r6, [r4, #-3949]!
     e4c:	5f30656c 	svcpl	0x0030656c
     e50:	5f6b6c63 	svcpl	0x006b6c63
     e54:	5f5f0074 	svcpl	0x005f0074
     e58:	554d4343 	strbpl	r4, [sp, #-835]
     e5c:	43534f5f 	cmpmi	r3, #380	; 0x17c
     e60:	5f4d3432 	svcpl	0x004d3432
     e64:	30474552 	subcc	r4, r7, r2, asr r5
     e68:	00303530 	eorseq	r3, r0, r0, lsr r5
     e6c:	316c6c50 	cmncc	ip, r0, asr ip
     e70:	656e7554 	strbvs	r7, [lr, #-1364]!
     e74:	6d450032 	stclvs	0, cr0, [r5, #-200]
     e78:	61476361 	cmpvs	r7, r1, ror #6
     e7c:	4b006574 	blmi	1a454 <__standby_start+0x1a454>
     e80:	69467965 	stmdbvs	r6, {r0, r2, r5, r6, r8, fp, ip, sp, lr}^
     e84:	00646c65 	rsbeq	r6, r4, r5, ror #24
     e88:	63635f5f 	cmnvs	r3, #380	; 0x17c
     e8c:	6c5f756d 	cfldr64vs	mvdx7, [pc], {109}
     e90:	5f736476 	svcpl	0x00736476
     e94:	5f6b6c63 	svcpl	0x006b6c63
     e98:	30676572 	rsbcc	r6, r7, r2, ror r5
     e9c:	5f633431 	svcpl	0x00633431
     ea0:	6c500074 	mrrcvs	0, 7, r0, r0, cr4
     ea4:	7443356c 	strbvc	r3, [r3], #-1388
     ea8:	5f5f006c 	svcpl	0x005f006c
     eac:	756d6363 	strbvc	r6, [sp, #-867]!
     eb0:	5f65765f 	svcpl	0x0065765f
     eb4:	5f6b6c63 	svcpl	0x006b6c63
     eb8:	30676572 	rsbcc	r6, r7, r2, ror r5
     ebc:	5f633331 	svcpl	0x00633331
     ec0:	5f5f0074 	svcpl	0x005f0074
     ec4:	554d4343 	strbpl	r4, [sp, #-835]
     ec8:	4543415f 	strbmi	r4, [r3, #-351]
     ecc:	4b4c435f 	blmi	1311c50 <__standby_start+0x1311c50>
     ed0:	4745525f 	smlsldmi	r5, r5, pc, r2
     ed4:	38343130 	ldmdacc	r4!, {r4, r5, r8, ip, sp}
     ed8:	635f5f00 	cmpvs	pc, #0	; 0x0
     edc:	5f756d63 	svcpl	0x00756d63
     ee0:	326c6c70 	rsbcc	r6, ip, #28672	; 0x7000
     ee4:	6e75745f 	mrcvs	4, 3, r7, cr5, cr15, {2}
     ee8:	5f676e69 	svcpl	0x00676e69
     eec:	30676572 	rsbcc	r6, r7, r2, ror r5
     ef0:	5f633030 	svcpl	0x00633030
     ef4:	69530074 	ldmdbvs	r3, {r2, r4, r5, r6}^
     ef8:	49616d67 	stmdbmi	r1!, {r0, r1, r2, r5, r6, r8, sl, fp, sp, lr}^
     efc:	7473006e 	ldrbtvc	r0, [r3], #-110
     f00:	62646e61 	rsbvs	r6, r4, #1552	; 0x610
     f04:	6c635f79 	stclvs	15, cr5, [r3], #-484
     f08:	65675f6b 	strbvs	r5, [r7, #-3947]!
     f0c:	76696474 	undefined
     f10:	435f5f00 	cmpmi	pc, #0	; 0x0
     f14:	5f554d43 	svcpl	0x00554d43
     f18:	334c4c50 	movtcc	r4, #52304	; 0xcc50
     f1c:	4449565f 	strbmi	r5, [r9], #-1631
     f20:	525f4f45 	subspl	r4, pc, #276	; 0x114
     f24:	30304745 	eorscc	r4, r0, r5, asr #14
     f28:	5f003031 	svcpl	0x00003031
     f2c:	4d43435f 	stclmi	3, cr4, [r3, #-380]
     f30:	4c505f55 	mrrcmi	15, 5, r5, r0, cr5
     f34:	545f354c 	ldrbpl	r3, [pc], #1356	; f3c <__standby_start+0xf3c>
     f38:	4e494e55 	mcrmi	14, 2, r4, cr9, cr5, {2}
     f3c:	525f3247 	subspl	r3, pc, #1879048196	; 0x70000004
     f40:	30304745 	eorscc	r4, r0, r5, asr #14
     f44:	41004333 	tstmi	r0, r3, lsr r3
     f48:	47616464 	strbmi	r6, [r1, -r4, ror #8]!
     f4c:	00657461 	rsbeq	r7, r5, r1, ror #8
     f50:	424f4356 	submi	r4, pc, #1476395009	; 0x58000001
     f54:	00736169 	rsbseq	r6, r3, r9, ror #2
     f58:	63635f5f 	cmnvs	r3, #380	; 0x17c
     f5c:	6c5f756d 	cfldr64vs	mvdx7, [pc], {109}
     f60:	68636463 	stmdavs	r3!, {r0, r1, r5, r6, sl, sp, lr}^
     f64:	6c635f31 	stclvs	15, cr5, [r3], #-196
     f68:	00745f6b 	rsbseq	r5, r4, fp, ror #30
     f6c:	43647654 	cmnmi	r4, #88080384	; 0x5400000
     f70:	44006b6c 	strmi	r6, [r0], #-2924
     f74:	30654265 	rsbcc	r4, r5, r5, ror #4
     f78:	65746147 	ldrbvs	r6, [r4, #-327]!
     f7c:	4d645300 	stclmi	3, cr5, [r4]
     f80:	4331636d 	teqmi	r1, #-1275068415	; 0xb4000001
     f84:	73006b6c 	movwvc	r6, #2924	; 0xb6c
     f88:	646e6174 	strbtvs	r6, [lr], #-372
     f8c:	635f7962 	cmpvs	pc, #1605632	; 0x188000
     f90:	685f6b6c 	ldmdavs	pc, {r2, r3, r5, r6, r8, r9, fp, sp, lr}^
     f94:	6563736f 	strbvs	r7, [r3, #-879]!
     f98:	6c62616e 	stfvse	f6, [r2], #-440
     f9c:	5f5f0065 	svcpl	0x005f0065
     fa0:	554d4343 	strbpl	r4, [sp, #-835]
     fa4:	4250415f 	subsmi	r4, r0, #-1073741801	; 0xc0000017
     fa8:	4b4c4331 	blmi	1311c74 <__standby_start+0x1311c74>
     fac:	5441525f 	strbpl	r5, [r1], #-607
     fb0:	525f4f49 	subspl	r4, pc, #292	; 0x124
     fb4:	30304745 	eorscc	r4, r0, r5, asr #14
     fb8:	53003835 	movwpl	r3, #2101	; 0x835
     fbc:	43617461 	cmnmi	r1, #1627389952	; 0x61000000
     fc0:	72006b6c 	andvc	r6, r0, #110592	; 0x1b000
     fc4:	72657365 	rsbvc	r7, r5, #-1811939327	; 0x94000001
     fc8:	30646576 	rsbcc	r6, r4, r6, ror r5
     fcc:	73657200 	cmnvc	r5, #0	; 0x0
     fd0:	65767265 	ldrbvs	r7, [r6, #-613]!
     fd4:	72003164 	andvc	r3, r0, #25	; 0x19
     fd8:	72657365 	rsbvc	r7, r5, #-1811939327	; 0x94000001
     fdc:	32646576 	rsbcc	r6, r4, #494927872	; 0x1d800000
     fe0:	73657200 	cmnvc	r5, #0	; 0x0
     fe4:	65767265 	ldrbvs	r7, [r6, #-613]!
     fe8:	72003364 	andvc	r3, r0, #-1879048191	; 0x90000001
     fec:	72657365 	rsbvc	r7, r5, #-1811939327	; 0x94000001
     ff0:	34646576 	strbtcc	r6, [r4], #-1398
     ff4:	435f5f00 	cmpmi	pc, #0	; 0x0
     ff8:	5f554d43 	svcpl	0x00554d43
     ffc:	314c4c50 	cmpcc	ip, r0, asr ip
    1000:	4e55545f 	mrcmi	4, 2, r5, cr5, cr15, {2}
    1004:	32474e49 	subcc	r4, r7, #1168	; 0x490
    1008:	4745525f 	smlsldmi	r5, r5, pc, r2
    100c:	38333030 	ldmdacc	r3!, {r4, r5, ip, sp}
    1010:	65705300 	ldrbvs	r5, [r0, #-768]!
    1014:	6b6c4363 	blvs	1b11da8 <__standby_start+0x1b11da8>
    1018:	74614731 	strbtvc	r4, [r1], #-1841
    101c:	70530065 	subsvc	r0, r3, r5, rrx
    1020:	6c436365 	mcrrvs	3, 6, r6, r3, cr5
    1024:	7253326b 	subsvc	r3, r3, #-1342177274	; 0xb0000006
    1028:	74730063 	ldrbtvc	r0, [r3], #-99
    102c:	62646e61 	rsbvs	r6, r4, #1552	; 0x610
    1030:	6c635f79 	stclvs	15, cr5, [r3], #-484
    1034:	6c705f6b 	ldclvs	15, cr5, [r0], #-428
    1038:	616e656c 	cmnvs	lr, ip, ror #10
    103c:	00656c62 	rsbeq	r6, r5, r2, ror #24
    1040:	47736949 	ldrbmi	r6, [r3, -r9, asr #18]!
    1044:	00657461 	rsbeq	r7, r5, r1, ror #8
    1048:	3243534f 	subcc	r5, r3, #1006632961	; 0x3c000001
    104c:	6e454d34 	mcrvs	13, 2, r4, cr5, cr4, {1}
    1050:	616d4400 	cmnvs	sp, r0, lsl #8
    1054:	65746147 	ldrbvs	r6, [r4, #-327]!
    1058:	4c4c5000 	marmi	acc0, r5, ip
    105c:	5f006e45 	svcpl	0x00006e45
    1060:	4d43435f 	stclmi	3, cr4, [r3, #-380]
    1064:	454b5f55 	strbmi	r5, [fp, #-3925]
    1068:	44415059 	strbmi	r5, [r1], #-89
    106c:	4b4c435f 	blmi	1311df0 <__standby_start+0x1311df0>
    1070:	4745525f 	smlsldmi	r5, r5, pc, r2
    1074:	34433030 	strbcc	r3, [r3], #-48
    1078:	435f5f00 	cmpmi	pc, #0	; 0x0
    107c:	5f554d43 	svcpl	0x00554d43
    1080:	43535953 	cmpmi	r3, #1359872	; 0x14c000
    1084:	525f4b4c 	subspl	r4, pc, #77824	; 0x13000
    1088:	4f495441 	svcmi	0x00495441
    108c:	4745525f 	smlsldmi	r5, r5, pc, r2
    1090:	34353030 	ldrtcc	r3, [r5], #-48
    1094:	64644100 	strbtvs	r4, [r4], #-256
    1098:	6b6c4361 	blvs	1b11e24 <__standby_start+0x1b11e24>
    109c:	43735400 	cmnmi	r3, #0	; 0x0
    10a0:	45006b6c 	strmi	r6, [r0, #-2924]
    10a4:	30696368 	rsbcc	r6, r9, r8, ror #6
    10a8:	65746147 	ldrbvs	r6, [r4, #-327]!
    10ac:	696e4900 	stmdbvs	lr!, {r8, fp, lr}^
    10b0:	65724674 	ldrbvs	r4, [r2, #-1652]!
    10b4:	654b0071 	strbvs	r0, [fp, #-113]
    10b8:	64615079 	strbtvs	r5, [r1], #-121
    10bc:	006b6c43 	rsbeq	r6, fp, r3, asr #24
    10c0:	424c4c50 	submi	r4, ip, #20480	; 0x5000
    10c4:	00736169 	rsbseq	r6, r3, r9, ror #2
    10c8:	3164634c 	cmncc	r4, ip, asr #6
    10cc:	43306843 	teqmi	r0, #4390912	; 0x430000
    10d0:	4e006b6c 	vmlsmi.f64	d6, d0, d28
    10d4:	47646e61 	strbmi	r6, [r4, -r1, ror #28]!
    10d8:	00657461 	rsbeq	r7, r5, r1, ror #8
    10dc:	61477353 	cmpvs	r7, r3, asr r3
    10e0:	5f006574 	svcpl	0x00006574
    10e4:	6d63635f 	stclvs	3, cr6, [r3, #-380]!
    10e8:	65665f75 	strbvs	r5, [r6, #-3957]!
    10ec:	706d6564 	rsbvc	r6, sp, r4, ror #10
    10f0:	6b6c635f 	blvs	1b19e74 <__standby_start+0x1b19e74>
    10f4:	5300745f 	movwpl	r7, #1119	; 0x45f
    10f8:	636d4d64 	cmnvs	sp, #6400	; 0x1900
    10fc:	6b6c4333 	blvs	1b11dd0 <__standby_start+0x1b11dd0>
    1100:	756d4300 	strbvc	r4, [sp, #-768]!
    1104:	00676552 	rsbeq	r6, r7, r2, asr r5
    1108:	696d6448 	stmdbvs	sp!, {r3, r6, sl, sp, lr}^
    110c:	74614744 	strbtvc	r4, [r1], #-1860
    1110:	72560065 	subsvc	r0, r6, #101	; 0x65
    1114:	4f316765 	svcmi	0x00316765
    1118:	6e457475 	mcrvs	4, 2, r7, cr5, cr5, {3}
    111c:	635f5f00 	cmpvs	pc, #0	; 0x0
    1120:	5f756d63 	svcpl	0x00756d63
    1124:	356c6c70 	strbcc	r6, [ip, #-3184]!
    1128:	6e75745f 	mrcvs	4, 3, r7, cr5, cr15, {2}
    112c:	32676e69 	rsbcc	r6, r7, #1680	; 0x690
    1130:	6765725f 	undefined
    1134:	63333030 	teqvs	r3, #48	; 0x30
    1138:	5000745f 	andpl	r7, r0, pc, asr r4
    113c:	54326c6c 	ldrtpl	r6, [r2], #-3180
    1140:	00656e75 	rsbeq	r6, r5, r5, ror lr
    1144:	63635f5f 	cmnvs	r3, #380	; 0x17c
    1148:	615f756d 	cmpvs	pc, sp, ror #10
    114c:	6c636978 	stclvs	9, cr6, [r3], #-480
    1150:	61675f6b 	cmnvs	r7, fp, ror #30
    1154:	725f6574 	subsvc	r6, pc, #486539264	; 0x1d000000
    1158:	30306765 	eorscc	r6, r0, r5, ror #14
    115c:	745f6335 	ldrbvc	r6, [pc], #821	; 1164 <__standby_start+0x1164>
    1160:	72615500 	rsbvc	r5, r1, #0	; 0x0
    1164:	61473674 	cmpvs	r7, r4, ror r6
    1168:	4c006574 	cfstr32mi	mvfx6, [r0], {116}
    116c:	45324f44 	ldrmi	r4, [r2, #-3908]!
    1170:	6146006e 	cmpvs	r6, lr, rrx
    1174:	726f7463 	rsbvc	r7, pc, #1660944384	; 0x63000000
    1178:	5000314d 	andpl	r3, r0, sp, asr #2
    117c:	43376c6c 	teqmi	r7, #27648	; 0x6c00
    1180:	5f006c74 	svcpl	0x00006c74
    1184:	6d63635f 	stclvs	3, cr6, [r3, #-380]!
    1188:	65725f75 	ldrbvs	r5, [r2, #-3957]!
    118c:	696c5f67 	stmdbvs	ip!, {r0, r1, r2, r5, r6, r8, r9, sl, fp, ip, lr}^
    1190:	745f7473 	ldrbvc	r7, [pc], #1139	; 1198 <__standby_start+0x1198>
    1194:	6e614e00 	cdpvs	14, 6, cr4, cr1, cr0, {0}
    1198:	6b6c4364 	blvs	1b11f30 <__standby_start+0x1b11f30>
    119c:	43484f00 	movtmi	r4, #36608	; 0x8f00
    11a0:	70533049 	subsvc	r3, r3, r9, asr #32
    11a4:	6c436365 	mcrrvs	3, 6, r6, r3, cr5
    11a8:	7461476b 	strbtvc	r4, [r1], #-1899
    11ac:	5f5f0065 	svcpl	0x005f0065
    11b0:	554d4343 	strbpl	r4, [sp, #-835]
    11b4:	4c4c505f 	mcrrmi	0, 5, r5, ip, cr15
    11b8:	55545f31 	ldrbpl	r5, [r4, #-3889]
    11bc:	474e494e 	strbmi	r4, [lr, -lr, asr #18]
    11c0:	4745525f 	smlsldmi	r5, r5, pc, r2
    11c4:	34303030 	ldrtcc	r3, [r0], #-48
    11c8:	635f5f00 	cmpvs	pc, #0	; 0x0
    11cc:	5f756d63 	svcpl	0x00756d63
    11d0:	5f647674 	svcpl	0x00647674
    11d4:	5f6b6c63 	svcpl	0x006b6c63
    11d8:	30676572 	rsbcc	r6, r7, r2, ror r5
    11dc:	5f383231 	svcpl	0x00383231
    11e0:	484f0074 	stmdami	pc, {r2, r4, r5, r6}^
    11e4:	6c434943 	mcrrvs	9, 4, r4, r3, cr3
    11e8:	6372536b 	cmnvs	r2, #-1409286143	; 0xac000001
    11ec:	6c6c5000 	stclvs	0, cr5, [ip]
    11f0:	6e755433 	mrcvs	4, 3, r5, cr5, cr3, {1}
    11f4:	76410065 	strbvc	r0, [r1], -r5, rrx
    11f8:	6b6c4373 	blvs	1b11fcc <__standby_start+0x1b11fcc>
    11fc:	62735500 	rsbsvs	r5, r3, #0	; 0x0
    1200:	31796850 	cmncc	r9, r0, asr r8
    1204:	00747352 	rsbseq	r7, r4, r2, asr r3
    1208:	63635f5f 	cmnvs	r3, #380	; 0x17c
    120c:	735f756d 	cmpvc	pc, #457179136	; 0x1b400000
    1210:	6c637379 	stclvs	3, cr7, [r3], #-484
    1214:	725f6c6b 	subsvc	r6, pc, #27392	; 0x6b00
    1218:	6f697461 	svcvs	0x00697461
    121c:	6765725f 	undefined
    1220:	34353030 	ldrtcc	r3, [r5], #-48
    1224:	5500745f 	strpl	r7, [r0, #-1119]
    1228:	33747261 	cmncc	r4, #268435462	; 0x10000006
    122c:	65746147 	ldrbvs	r6, [r4, #-327]!
    1230:	46654400 	strbtmi	r4, [r5], -r0, lsl #8
    1234:	61473065 	cmpvs	r7, r5, rrx
    1238:	43006574 	movwmi	r6, #1396	; 0x574
    123c:	47316973 	undefined
    1240:	00657461 	rsbeq	r7, r5, r1, ror #8
    1244:	47697841 	strbmi	r7, [r9, -r1, asr #16]!
    1248:	00657461 	rsbeq	r7, r5, r1, ror #8
    124c:	47737047 	ldrbmi	r7, [r3, -r7, asr #32]!
    1250:	00657461 	rsbeq	r7, r5, r1, ror #8
    1254:	3164634c 	cmncc	r4, ip, asr #6
    1258:	65746147 	ldrbvs	r6, [r4, #-327]!
    125c:	435f5f00 	cmpmi	pc, #0	; 0x0
    1260:	5f554d43 	svcpl	0x00554d43
    1264:	4344434c 	movtmi	r4, #17228	; 0x434c
    1268:	435f3048 	cmpmi	pc, #72	; 0x48
    126c:	4c004b4c 	stcmi	11, cr4, [r0], {76}
    1270:	546b636f 	strbtpl	r6, [fp], #-879
    1274:	00656d69 	rsbeq	r6, r5, r9, ror #26
    1278:	5f756363 	svcpl	0x00756363
    127c:	5f676572 	svcpl	0x00676572
    1280:	6b636162 	blvs	18d9810 <__standby_start+0x18d9810>
    1284:	435f5f00 	cmpmi	pc, #0	; 0x0
    1288:	5f554d43 	svcpl	0x00554d43
    128c:	435f4556 	cmpmi	pc, #360710144	; 0x15800000
    1290:	525f4b4c 	subspl	r4, pc, #77824	; 0x13000
    1294:	31304745 	teqcc	r0, r5, asr #14
    1298:	5f004333 	svcpl	0x00004333
    129c:	6d63635f 	stclvs	3, cr6, [r3, #-380]!
    12a0:	76615f75 	uqsub16vc	r5, r1, r5
    12a4:	6c635f73 	stclvs	15, cr5, [r3], #-460
    12a8:	65725f6b 	ldrbvs	r5, [r2, #-3947]!
    12ac:	34313067 	ldrtcc	r3, [r1], #-103
    12b0:	00745f34 	rsbseq	r5, r4, r4, lsr pc
    12b4:	74726155 	ldrbtvc	r6, [r2], #-341
    12b8:	74614730 	strbtvc	r4, [r1], #-1840
    12bc:	73430065 	movtvc	r0, #12389	; 0x3065
    12c0:	6c433169 	stfvse	f3, [r3], {105}
    12c4:	5f5f006b 	svcpl	0x005f006b
    12c8:	554d4343 	strbpl	r4, [sp, #-835]
    12cc:	4250415f 	subsmi	r4, r0, #-1073741801	; 0xc0000017
    12d0:	4b4c4331 	blmi	1311f9c <__standby_start+0x1311f9c>
    12d4:	5441475f 	strbpl	r4, [r1], #-1887
    12d8:	45525f45 	ldrbmi	r5, [r2, #-3909]
    12dc:	36303047 	ldrtcc	r3, [r0], -r7, asr #32
    12e0:	58410043 	stmdapl	r1, {r0, r1, r6}^
    12e4:	6b6c4349 	blvs	1b12010 <__standby_start+0x1b12010>
    12e8:	00766944 	rsbseq	r6, r6, r4, asr #18
    12ec:	43435f5f 	movtmi	r5, #16223	; 0x3f5f
    12f0:	505f554d 	subspl	r5, pc, sp, asr #10
    12f4:	5f354c4c 	svcpl	0x00354c4c
    12f8:	494e5554 	stmdbmi	lr, {r2, r4, r6, r8, sl, ip, lr}^
    12fc:	525f474e 	subspl	r4, pc, #20447232	; 0x1380000
    1300:	30304745 	eorscc	r4, r0, r5, asr #14
    1304:	56003432 	undefined
    1308:	61474f43 	cmpvs	r7, r3, asr #30
    130c:	73006e69 	movwvc	r6, #3689	; 0xe69
    1310:	646e6174 	strbtvs	r6, [lr], #-372
    1314:	635f7962 	cmpvs	pc, #1605632	; 0x188000
    1318:	735f6b6c 	cmpvc	pc, #110592	; 0x1b000
    131c:	69647465 	stmdbvs	r4!, {r0, r2, r5, r6, sl, ip, sp, lr}^
    1320:	43410076 	movtmi	r0, #4214	; 0x1076
    1324:	43383233 	teqmi	r8, #805306371	; 0x30000003
    1328:	72536b6c 	subsvc	r6, r3, #110592	; 0x1b000
    132c:	72460063 	subvc	r0, r6, #99	; 0x63
    1330:	65757165 	ldrbvs	r7, [r5, #-357]!
    1334:	0079636e 	rsbseq	r6, r9, lr, ror #6
    1338:	31697754 	cmncc	r9, r4, asr r7
    133c:	65746147 	ldrbvs	r6, [r4, #-327]!
    1340:	6c6c5000 	stclvs	0, cr5, [ip]
    1344:	6c744332 	ldclvs	3, cr4, [r4], #-200
    1348:	435f5f00 	cmpmi	pc, #0	; 0x0
    134c:	5f554d43 	svcpl	0x00554d43
    1350:	5f474552 	svcpl	0x00474552
    1354:	5453494c 	ldrbpl	r4, [r3], #-2380
    1358:	635f5f00 	cmpvs	pc, #0	; 0x0
    135c:	5f756d63 	svcpl	0x00756d63
    1360:	346c6c70 	strbtcc	r6, [ip], #-3184
    1364:	5f65765f 	svcpl	0x0065765f
    1368:	30676572 	rsbcc	r6, r7, r2, ror r5
    136c:	5f383130 	svcpl	0x00383130
    1370:	50410074 	subpl	r0, r1, r4, ror r0
    1374:	6c433042 	mcrrvs	0, 4, r3, r3, cr2
    1378:	7669446b 	strbtvc	r4, [r9], -fp, ror #8
    137c:	6c6c5000 	stclvs	0, cr5, [ip]
    1380:	6e755435 	mrcvs	4, 3, r5, cr5, cr5, {1}
    1384:	74730065 	ldrbtvc	r0, [r3], #-101
    1388:	62646e61 	rsbvs	r6, r4, #1552	; 0x610
    138c:	6c635f79 	stclvs	15, cr5, [r3], #-484
    1390:	6c705f6b 	ldclvs	15, cr5, [r0], #-428
    1394:	7369646c 	cmnvc	r9, #1811939328	; 0x6c000000
    1398:	656c6261 	strbvs	r6, [ip, #-609]!
    139c:	32735000 	rsbscc	r5, r3, #0	; 0x0
    13a0:	74614731 	strbtvc	r4, [r1], #-1841
    13a4:	6c500065 	mrrcvs	0, 6, r0, r0, cr5
    13a8:	7554366c 	ldrbvc	r3, [r4, #-1644]
    13ac:	4300656e 	movwmi	r6, #1390	; 0x56e
    13b0:	47306973 	undefined
    13b4:	00657461 	rsbeq	r7, r5, r1, ror #8
    13b8:	6d6d6453 	cfstrdvs	mvd6, [sp, #-332]!
    13bc:	61473163 	cmpvs	r7, r3, ror #2
    13c0:	5f006574 	svcpl	0x00006574
    13c4:	4d43435f 	stclmi	3, cr4, [r3, #-380]
    13c8:	50415f55 	subpl	r5, r1, r5, asr pc
    13cc:	4c433042 	mcrrmi	0, 4, r3, r3, cr2
    13d0:	41475f4b 	cmpmi	r7, fp, asr #30
    13d4:	525f4554 	subspl	r4, pc, #352321536	; 0x15000000
    13d8:	30304745 	eorscc	r4, r0, r5, asr #14
    13dc:	70003836 	andvc	r3, r0, r6, lsr r8
    13e0:	006f6972 	rsbeq	r6, pc, r2, ror r9
    13e4:	4d415244 	sfmmi	f5, 2, [r1, #-272]
    13e8:	65725f43 	ldrbvs	r5, [r2, #-3907]!
    13ec:	69617274 	stmdbvs	r1!, {r2, r4, r5, r6, r9, ip, sp, lr}^
    13f0:	676e696e 	strbvs	r6, [lr, -lr, ror #18]!
    13f4:	41524400 	cmpmi	r2, r0, lsl #8
    13f8:	685f434d 	ldmdavs	pc, {r0, r2, r3, r6, r8, r9, lr}^
    13fc:	7074736f 	rsbsvc	r7, r4, pc, ror #6
    1400:	5f74726f 	svcpl	0x0074726f
    1404:	6f5f6e6f 	svcvs	0x005f6e6f
    1408:	72006666 	andvc	r6, r0, #106954752	; 0x6600000
    140c:	645f6765 	ldrbvs	r6, [pc], #1893	; 1414 <__standby_start+0x1414>
    1410:	64007272 	strvs	r7, [r0], #-626
    1414:	5f6d6172 	svcpl	0x006d6172
    1418:	65776f70 	ldrbvs	r6, [r7, #-3952]!
    141c:	70755f72 	rsbsvc	r5, r5, r2, ror pc
    1420:	6f72705f 	svcvs	0x0072705f
    1424:	73736563 	cmnvc	r3, #415236096	; 0x18c00000
    1428:	67657200 	strbvs	r7, [r5, -r0, lsl #4]!
    142c:	7263645f 	rsbvc	r6, r3, #1593835520	; 0x5f000000
    1430:	74636d00 	strbtvc	r6, [r3], #-3328
    1434:	72705f6c 	rsbsvc	r5, r0, #432	; 0x1b0
    1438:	61686365 	cmnvs	r8, r5, ror #6
    143c:	5f656772 	svcpl	0x00656772
    1440:	006c6c61 	rsbeq	r6, ip, r1, ror #24
    1444:	74726f70 	ldrbtvc	r6, [r2], #-3952
    1448:	6961775f 	stmdbvs	r1!, {r0, r1, r2, r3, r4, r6, r8, r9, sl, ip, sp, lr}^
    144c:	79635f74 	stmdbvc	r3!, {r2, r4, r5, r6, r8, r9, sl, fp, ip, lr}^
    1450:	00656c63 	rsbeq	r6, r5, r3, ror #24
    1454:	4d415244 	sfmmi	f5, 2, [r1, #-272]
    1458:	78655f43 	stmdavc	r5!, {r0, r1, r6, r8, r9, sl, fp, ip, lr}^
    145c:	735f7469 	cmpvc	pc, #1761607680	; 0x69000000
    1460:	72666c65 	rsbvc	r6, r6, #25856	; 0x6500
    1464:	65726665 	ldrbvs	r6, [r2, #-1637]!
    1468:	72006873 	andvc	r6, r0, #7536640	; 0x730000
    146c:	7a5f6765 	bvc	17db208 <__standby_start+0x17db208>
    1470:	30726371 	rsbscc	r6, r2, r1, ror r3
    1474:	67657200 	strbvs	r7, [r5, -r0, lsl #4]!
    1478:	7270745f 	rsbsvc	r7, r0, #1593835520	; 0x5f000000
    147c:	65720030 	ldrbvs	r0, [r2, #-48]!
    1480:	61765f67 	cmnvs	r6, r7, ror #30
    1484:	7264006c 	rsbvc	r0, r4, #108	; 0x6c
    1488:	685f6d61 	ldmdavs	pc, {r0, r5, r6, r8, sl, fp, sp, lr}^
    148c:	7074736f 	rsbsvc	r7, r4, pc, ror #6
    1490:	5f74726f 	svcpl	0x0074726f
    1494:	75746573 	ldrbvc	r6, [r4, #-1395]!
    1498:	65720070 	ldrbvs	r0, [r2, #-112]!
    149c:	6d655f67 	stclvs	15, cr5, [r5, #-412]!
    14a0:	72003272 	andvc	r3, r0, #536870919	; 0x20000007
    14a4:	655f6765 	ldrbvs	r6, [pc, #-1893]	; d47 <__standby_start+0xd47>
    14a8:	0033726d 	eorseq	r7, r3, sp, ror #4
    14ac:	6c74636d 	ldclvs	3, cr6, [r4], #-436
    14b0:	6268615f 	rsbvs	r6, r8, #-1073741801	; 0xc0000017
    14b4:	7365725f 	cmnvc	r5, #-268435451	; 0xf0000005
    14b8:	44007465 	strmi	r7, [r0], #-1125
    14bc:	434d4152 	movtmi	r4, #53586	; 0xd152
    14c0:	6978655f 	ldmdbvs	r8!, {r0, r1, r2, r3, r4, r6, r8, sl, sp, lr}^
    14c4:	6f705f74 	svcvs	0x00705f74
    14c8:	5f726577 	svcpl	0x00726577
    14cc:	6e776f64 	cdpvs	15, 7, cr6, cr7, cr4, {3}
    14d0:	61726400 	cmnvs	r2, r0, lsl #8
    14d4:	6f705f6d 	svcvs	0x00705f6d
    14d8:	5f726577 	svcpl	0x00726577
    14dc:	65766173 	ldrbvs	r6, [r6, #-371]!
    14e0:	6f72705f 	svcvs	0x0072705f
    14e4:	73736563 	cmnvc	r3, #415236096	; 0x18c00000
    14e8:	41524400 	cmpmi	r2, r0, lsl #8
    14ec:	685f434d 	ldmdavs	pc, {r0, r2, r3, r6, r8, r9, lr}^
    14f0:	7074736f 	rsbsvc	r7, r4, pc, ror #6
    14f4:	5f74726f 	svcpl	0x0074726f
    14f8:	75746573 	ldrbvc	r6, [r4, #-1395]!
    14fc:	65720070 	ldrbvs	r0, [r2, #-112]!
    1500:	6f695f67 	svcvs	0x00695f67
    1504:	64007263 	strvs	r7, [r0], #-611
    1508:	5f6d6172 	svcpl	0x006d6172
    150c:	74736f68 	ldrbtvc	r6, [r3], #-3944
    1510:	74726f70 	ldrbtvc	r6, [r2], #-3952
    1514:	6568635f 	strbvs	r6, [r8, #-863]!
    1518:	615f6b63 	cmpvs	pc, r3, ror #22
    151c:	665f6268 	ldrbvs	r6, [pc], -r8, ror #4
    1520:	5f6f6669 	svcpl	0x006f6669
    1524:	74617473 	strbtvc	r7, [r1], #-1139
    1528:	72007375 	andvc	r7, r0, #-738197503	; 0xd4000001
    152c:	765f7465 	ldrbvc	r7, [pc], -r5, ror #8
    1530:	64006c61 	strvs	r6, [r0], #-3169
    1534:	5f6d6172 	svcpl	0x006d6172
    1538:	74736f68 	ldrbtvc	r6, [r3], #-3944
    153c:	74726f70 	ldrbtvc	r6, [r2], #-3952
    1540:	5f6e6f5f 	svcpl	0x006e6f5f
    1544:	0066666f 	rsbeq	r6, r6, pc, ror #12
    1548:	5f676572 	svcpl	0x00676572
    154c:	31727074 	cmncc	r2, r4, ror r0
    1550:	67657200 	strbvs	r7, [r5, -r0, lsl #4]!
    1554:	7270745f 	rsbsvc	r7, r0, #1593835520	; 0x5f000000
    1558:	65720032 	ldrbvs	r0, [r2, #-50]!
    155c:	726d5f67 	rsbvc	r5, sp, #412	; 0x19c
    1560:	61726400 	cmnvs	r2, r0, lsl #8
    1564:	6e655f6d 	cdpvs	15, 6, cr5, cr5, cr13, {3}
    1568:	5f726574 	svcpl	0x00726574
    156c:	65776f70 	ldrbvs	r6, [r7, #-3952]!
    1570:	6f645f72 	svcvs	0x00645f72
    1574:	64006e77 	strvs	r6, [r0], #-3703
    1578:	2f6d6172 	svccs	0x006d6172
    157c:	6d617264 	sfmvs	f7, 2, [r1, #-400]!
    1580:	4400632e 	strmi	r6, [r0], #-814
    1584:	434d4152 	movtmi	r4, #53586	; 0xd152
    1588:	746e655f 	strbtvc	r6, [lr], #-1375
    158c:	735f7265 	cmpvc	pc, #1342177286	; 0x50000006
    1590:	72666c65 	rsbvc	r6, r6, #25856	; 0x6500
    1594:	65726665 	ldrbvs	r6, [r2, #-1637]!
    1598:	63006873 	movwvs	r6, #2163	; 0x873
    159c:	6e5f646d 	cdpvs	4, 5, cr6, cr15, cr13, {3}
    15a0:	64006d75 	strvs	r6, [r0], #-3445
    15a4:	5f6d6172 	svcpl	0x006d6172
    15a8:	74697865 	strbtvc	r7, [r9], #-2149
    15ac:	776f705f 	undefined
    15b0:	645f7265 	ldrbvs	r7, [pc], #613	; 15b8 <__standby_start+0x15b8>
    15b4:	006e776f 	rsbeq	r7, lr, pc, ror #14
    15b8:	74726f70 	ldrbtvc	r6, [r2], #-3952
    15bc:	7864695f 	stmdavc	r4!, {r0, r1, r2, r3, r4, r6, r8, fp, sp, lr}^
    15c0:	41524400 	cmpmi	r2, r0, lsl #8
    15c4:	655f434d 	ldrbvs	r4, [pc, #-845]	; 127f <__standby_start+0x127f>
    15c8:	7265746e 	rsbvc	r7, r5, #1845493760	; 0x6e000000
    15cc:	776f705f 	undefined
    15d0:	645f7265 	ldrbvs	r7, [pc], #613	; 15d8 <__standby_start+0x15d8>
    15d4:	006e776f 	rsbeq	r7, lr, pc, ror #14
    15d8:	5f676572 	svcpl	0x00676572
    15dc:	00726d65 	rsbseq	r6, r2, r5, ror #26
    15e0:	4d415244 	sfmmi	f5, 2, [r1, #-272]
    15e4:	6f685f43 	svcvs	0x00685f43
    15e8:	6f707473 	svcvs	0x00707473
    15ec:	635f7472 	cmpvs	pc, #1912602624	; 0x72000000
    15f0:	6b636568 	blvs	18dab98 <__standby_start+0x18dab98>
    15f4:	6268615f 	rsbvs	r6, r8, #-1073741801	; 0xc0000017
    15f8:	6669665f 	undefined
    15fc:	74735f6f 	ldrbtvc	r5, [r3], #-3951
    1600:	73757461 	cmnvc	r5, #1627389952	; 0x61000000
    1604:	726f7000 	rsbvc	r7, pc, #0	; 0x0
    1608:	72705f74 	rsbsvc	r5, r0, #464	; 0x1d0
    160c:	656c5f69 	strbvs	r5, [ip, #-3945]!
    1610:	006c6576 	rsbeq	r6, ip, r6, ror r5
    1614:	6d617264 	sfmvs	f7, 2, [r1, #-400]!
    1618:	746e655f 	strbtvc	r6, [lr], #-1375
    161c:	735f7265 	cmpvc	pc, #1342177286	; 0x50000006
    1620:	72666c65 	rsbvc	r6, r6, #25856	; 0x6500
    1624:	65726665 	ldrbvs	r6, [r2, #-1637]!
    1628:	6d006873 	stcvs	8, cr6, [r0, #-460]
    162c:	5f6c7463 	svcpl	0x006c7463
    1630:	65646f6d 	strbvs	r6, [r4, #-3949]!
    1634:	6978655f 	ldmdbvs	r8!, {r0, r1, r2, r3, r4, r6, r8, sl, sp, lr}^
    1638:	72640074 	rsbvc	r0, r4, #116	; 0x74
    163c:	655f6d61 	ldrbvs	r6, [pc, #-3425]	; 8e3 <__standby_start+0x8e3>
    1640:	5f746978 	svcpl	0x00746978
    1644:	666c6573 	undefined
    1648:	72666572 	rsbvc	r6, r6, #478150656	; 0x1c800000
    164c:	00687365 	rsbeq	r7, r8, r5, ror #6
    1650:	6c74636d 	ldclvs	3, cr6, [r4], #-436
    1654:	7465735f 	strbtvc	r7, [r5], #-863
    1658:	645f7075 	ldrbvs	r7, [pc], #117	; 1660 <__standby_start+0x1660>
    165c:	5f6d6172 	svcpl	0x006d6172
    1660:	636f6c63 	cmnvs	pc, #25344	; 0x6300
    1664:	6d74006b 	ldclvs	0, cr0, [r4, #-428]!
    1668:	6f755170 	svcvs	0x00755170
    166c:	636d0074 	cmnvs	sp, #116	; 0x74
    1670:	635f6c74 	cmpvs	pc, #29696	; 0x7400
    1674:	69666e6f 	stmdbvs	r6!, {r0, r1, r2, r3, r5, r6, r9, sl, fp, sp, lr}^
    1678:	65727567 	ldrbvs	r7, [r2, #-1383]!
    167c:	736f685f 	cmnvc	pc, #6225920	; 0x5f0000
    1680:	726f7074 	rsbvc	r7, pc, #116	; 0x74
    1684:	5f5f0074 	svcpl	0x005f0074
    1688:	00343675 	eorseq	r3, r4, r5, ror r6
    168c:	70696863 	rsbvc	r6, r9, r3, ror #16
    1690:	6e65645f 	mcrvs	4, 3, r6, cr5, cr15, {2}
    1694:	74636d00 	strbtvc	r6, [r3], #-3328
    1698:	6e655f6c 	cdpvs	15, 6, cr5, cr5, cr12, {3}
    169c:	656c6261 	strbvs	r6, [ip, #-609]!
    16a0:	6c6c645f 	cfstrdvs	mvd6, [ip], #-380
    16a4:	52440078 	subpl	r0, r4, #120	; 0x78
    16a8:	5f434d41 	svcpl	0x00434d41
    16ac:	5f746567 	svcpl	0x00746567
    16b0:	6d617264 	sfmvs	f7, 2, [r1, #-400]!
    16b4:	7a69735f 	bvc	1a5e438 <__standby_start+0x1a5e438>
    16b8:	72640065 	rsbvc	r0, r4, #101	; 0x65
    16bc:	735f6d61 	cmpvc	pc, #6208	; 0x1840
    16c0:	635f7465 	cmpvs	pc, #1694498816	; 0x65000000
    16c4:	6b636f6c 	blvs	18dd47c <__standby_start+0x18dd47c>
    16c8:	645f5f00 	ldrbvs	r5, [pc], #3840	; 16d0 <__standby_start+0x16d0>
    16cc:	5f6d6172 	svcpl	0x006d6172
    16d0:	61726170 	cmnvs	r2, r0, ror r1
    16d4:	6400745f 	strvs	r7, [r0], #-1119
    16d8:	5f6d6172 	svcpl	0x006d6172
    16dc:	5f746573 	svcpl	0x00746573
    16e0:	6f747561 	svcvs	0x00747561
    16e4:	72666572 	rsbvc	r6, r6, #478150656	; 0x1c800000
    16e8:	5f687365 	svcpl	0x00687365
    16ec:	6c637963 	stclvs	9, cr7, [r3], #-396
    16f0:	69640065 	stmdbvs	r4!, {r0, r2, r5, r6}^
    16f4:	69736976 	ldmdbvs	r3!, {r1, r2, r4, r5, r6, r8, fp, sp, lr}^
    16f8:	7300726f 	movwvc	r7, #623	; 0x26f
    16fc:	646e6174 	strbtvs	r6, [lr], #-372
    1700:	755f7962 	ldrbvc	r7, [pc, #-2402]	; da6 <__standby_start+0xda6>
    1704:	7669646c 	strbtvc	r6, [r9], -ip, ror #8
    1708:	61726400 	cmnvs	r2, r0, lsl #8
    170c:	70745f6d 	rsbsvc	r5, r4, sp, ror #30
    1710:	64003072 	strvs	r3, [r0], #-114
    1714:	5f6d6172 	svcpl	0x006d6172
    1718:	31727074 	cmncc	r2, r4, ror r0
    171c:	61726400 	cmnvs	r2, r0, lsl #8
    1720:	70745f6d 	rsbsvc	r5, r4, sp, ror #30
    1724:	64003272 	strvs	r3, [r0], #-626
    1728:	5f6d6172 	svcpl	0x006d6172
    172c:	33727074 	cmncc	r2, #116	; 0x74
    1730:	61726400 	cmnvs	r2, r0, lsl #8
    1734:	70745f6d 	rsbsvc	r5, r4, sp, ror #30
    1738:	64003472 	strvs	r3, [r0], #-1138
    173c:	5f6d6172 	svcpl	0x006d6172
    1740:	35727074 	ldrbcc	r7, [r2, #-116]!
    1744:	61726400 	cmnvs	r2, r0, lsl #8
    1748:	63735f6d 	cmnvs	r3, #436	; 0x1b4
    174c:	725f6e61 	subsvc	r6, pc, #1552	; 0x610
    1750:	70646165 	rsbvc	r6, r4, r5, ror #2
    1754:	00657069 	rsbeq	r7, r5, r9, rrx
    1758:	6d617264 	sfmvs	f7, 2, [r1, #-400]!
    175c:	726d655f 	rsbvc	r6, sp, #398458880	; 0x17c00000
    1760:	72640031 	rsbvc	r0, r4, #49	; 0x31
    1764:	735f6d61 	cmpvc	pc, #6208	; 0x1840
    1768:	645f7465 	ldrbvs	r7, [pc], #1125	; 1770 <__standby_start+0x1770>
    176c:	65766972 	ldrbvs	r6, [r6, #-2418]!
    1770:	61726400 	cmnvs	r2, r0, lsl #8
    1774:	65675f6d 	strbvs	r5, [r7, #-3949]!
    1778:	69735f74 	ldmdbvs	r3!, {r2, r4, r5, r6, r8, r9, sl, fp, ip, lr}^
    177c:	6400657a 	strvs	r6, [r0], #-1402
    1780:	5f6d6172 	svcpl	0x006d6172
    1784:	70696863 	rsbvc	r6, r9, r3, ror #16
    1788:	6e65645f 	mcrvs	4, 3, r6, cr5, cr15, {2}
    178c:	79746973 	ldmdbvc	r4!, {r0, r1, r4, r5, r6, r8, fp, sp, lr}^
    1790:	41524400 	cmpmi	r2, r0, lsl #8
    1794:	695f434d 	ldmdbvs	pc, {r0, r2, r3, r6, r8, r9, lr}^
    1798:	0074696e 	rsbseq	r6, r4, lr, ror #18
    179c:	6c74636d 	ldclvs	3, cr6, [r4], #-436
    17a0:	7369645f 	cmnvc	r9, #1593835520	; 0x5f000000
    17a4:	656c6261 	strbvs	r6, [ip, #-609]!
    17a8:	6c6c645f 	cfstrdvs	mvd6, [ip], #-380
    17ac:	76696400 	strbtvc	r6, [r9], -r0, lsl #8
    17b0:	6e656469 	cdpvs	4, 6, cr6, cr5, cr9, {3}
    17b4:	72640064 	rsbvc	r0, r4, #100	; 0x64
    17b8:	6f5f6d61 	svcvs	0x005f6d61
    17bc:	655f7464 	ldrbvs	r7, [pc, #-1124]	; 1360 <__standby_start+0x1360>
    17c0:	5244006e 	subpl	r0, r4, #110	; 0x6e
    17c4:	5f434d41 	svcpl	0x00434d41
    17c8:	74697865 	strbtvc	r7, [r9], #-2149
    17cc:	61726400 	cmnvs	r2, r0, lsl #8
    17d0:	6e695f6d 	cdpvs	15, 6, cr5, cr9, cr13, {3}
    17d4:	6d007469 	cfstrsvs	mvf7, [r0, #-420]
    17d8:	5f6c7463 	svcpl	0x006c7463
    17dc:	62616e65 	rsbvs	r6, r1, #1616	; 0x650
    17e0:	645f656c 	ldrbvs	r6, [pc], #1388	; 17e8 <__standby_start+0x17e8>
    17e4:	00306c6c 	eorseq	r6, r0, ip, ror #24
    17e8:	4d415244 	sfmmi	f5, 2, [r1, #-272]
    17ec:	6c635f43 	stclvs	15, cr5, [r3], #-268
    17f0:	5f6b636f 	svcpl	0x006b636f
    17f4:	7074756f 	rsbsvc	r7, r4, pc, ror #10
    17f8:	655f7475 	ldrbvs	r7, [pc, #-1141]	; 138b <__standby_start+0x138b>
    17fc:	7264006e 	rsbvc	r0, r4, #110	; 0x6e
    1800:	625f6d61 	subsvs	r6, pc, #6208	; 0x1840
    1804:	775f7375 	undefined
    1808:	68746469 	ldmdavs	r4!, {r0, r3, r5, r6, sl, sp, lr}^
    180c:	41524400 	cmpmi	r2, r0, lsl #8
    1810:	735f434d 	cmpvc	pc, #872415233	; 0x34000001
    1814:	615f7465 	cmpvs	pc, r5, ror #8
    1818:	726f7475 	rsbvc	r7, pc, #1962934272	; 0x75000000
    181c:	65726665 	ldrbvs	r6, [r2, #-1637]!
    1820:	635f6873 	cmpvs	pc, #7536640	; 0x730000
    1824:	656c6379 	strbvs	r6, [ip, #-889]!
    1828:	61726400 	cmnvs	r2, r0, lsl #8
    182c:	61725f6d 	cmnvs	r2, sp, ror #30
    1830:	6e5f6b6e 	vnmlavs.f64	d22, d15, d30
    1834:	64006d75 	strvs	r6, [r0], #-3445
    1838:	5f6d6172 	svcpl	0x006d6172
    183c:	65736162 	ldrbvs	r6, [r3, #-354]!
    1840:	72646461 	rsbvc	r6, r4, #1627389952	; 0x61000000
    1844:	61726400 	cmnvs	r2, r0, lsl #8
    1848:	72642f6d 	rsbvc	r2, r4, #436	; 0x1b4
    184c:	695f6d61 	ldmdbvs	pc, {r0, r5, r6, r8, sl, fp, sp, lr}^
    1850:	2e74696e 	cdpcs	9, 7, cr6, cr4, cr14, {3}
    1854:	636d0063 	cmnvs	sp, #99	; 0x63
    1858:	695f6c74 	ldmdbvs	pc, {r2, r4, r5, r6, sl, fp, sp, lr}^
    185c:	645f6d74 	ldrbvs	r6, [pc], #3444	; 1864 <__standby_start+0x1864>
    1860:	62617369 	rsbvs	r7, r1, #-1543503871	; 0xa4000001
    1864:	7400656c 	strvc	r6, [r0], #-1388
    1868:	765f706d 	ldrbvc	r7, [pc], -sp, rrx
    186c:	64006c61 	strvs	r6, [r0], #-3169
    1870:	5f6d6172 	svcpl	0x006d6172
    1874:	6400717a 	strvs	r7, [r0], #-378
    1878:	5f6d6172 	svcpl	0x006d6172
    187c:	32726d65 	rsbscc	r6, r2, #6464	; 0x1940
    1880:	61726400 	cmnvs	r2, r0, lsl #8
    1884:	6d655f6d 	stclvs	15, cr5, [r5, #-436]!
    1888:	6d003372 	stcvs	3, cr3, [r0, #-456]
    188c:	5f6c7463 	svcpl	0x006c7463
    1890:	5f746573 	svcpl	0x00746573
    1894:	76697264 	strbtvc	r7, [r9], -r4, ror #4
    1898:	72640065 	rsbvc	r0, r4, #101	; 0x65
    189c:	655f6d61 	ldrbvs	r6, [pc, #-3425]	; b43 <__standby_start+0xb43>
    18a0:	00746978 	rsbseq	r6, r4, r8, ror r9
    18a4:	6c74636d 	ldclvs	3, cr6, [r4], #-436
    18a8:	7264645f 	rsbvc	r6, r4, #1593835520	; 0x5f000000
    18ac:	65725f33 	ldrbvs	r5, [r2, #-3891]!
    18b0:	00746573 	rsbseq	r6, r4, r3, ror r5
    18b4:	6d617264 	sfmvs	f7, 2, [r1, #-400]!
    18b8:	6b6c635f 	blvs	1b1a63c <__standby_start+0x1b1a63c>
    18bc:	74636d00 	strbtvc	r6, [r3], #-3328
    18c0:	74695f6c 	strbtvc	r5, [r9], #-3948
    18c4:	6e655f6d 	cdpvs	15, 6, cr5, cr5, cr13, {3}
    18c8:	656c6261 	strbvs	r6, [ip, #-609]!
    18cc:	706d7400 	rsbvc	r7, sp, r0, lsl #8
    18d0:	00766944 	rsbseq	r6, r6, r4, asr #18
    18d4:	72637068 	rsbvc	r7, r3, #104	; 0x68
    18d8:	6c61765f 	stclvs	6, cr7, [r1], #-380
    18dc:	44006575 	strmi	r6, [r0], #-1397
    18e0:	434d4152 	movtmi	r4, #53586	; 0xd152
    18e4:	6163735f 	cmnvs	r3, pc, asr r3
    18e8:	65725f6e 	ldrbvs	r5, [r2, #-3950]!
    18ec:	69706461 	ldmdbvs	r0!, {r0, r5, r6, sl, sp, lr}^
    18f0:	64006570 	strvs	r6, [r0], #-1392
    18f4:	5f6d6172 	svcpl	0x006d6172
    18f8:	775f6f69 	ldrbvc	r6, [pc, -r9, ror #30]
    18fc:	68746469 	ldmdavs	r4!, {r0, r3, r5, r6, sl, sp, lr}^
    1900:	61726400 	cmnvs	r2, r0, lsl #8
    1904:	79745f6d 	ldmdbvc	r4!, {r0, r2, r3, r5, r6, r8, r9, sl, fp, ip, lr}^
    1908:	64006570 	strvs	r6, [r0], #-1392
    190c:	5f6d6172 	svcpl	0x006d6172
    1910:	00736163 	rsbseq	r6, r3, r3, ror #2
    1914:	50716946 	rsbspl	r6, r1, r6, asr #18
    1918:	00646e65 	rsbeq	r6, r4, r5, ror #28
    191c:	50717249 	rsbspl	r7, r1, r9, asr #4
    1920:	006f6972 	rsbeq	r6, pc, r2, ror r9
    1924:	50717249 	rsbspl	r7, r1, r9, asr #4
    1928:	00646e65 	rsbeq	r6, r4, r5, ror #28
    192c:	46717249 	ldrbtmi	r7, [r1], -r9, asr #4
    1930:	6563726f 	strbvs	r7, [r3, #-623]!
    1934:	71724900 	cmnvc	r2, r0, lsl #18
    1938:	65526e45 	ldrbvs	r6, [r2, #-3653]
    193c:	74730067 	ldrbtvc	r0, [r3], #-103
    1940:	62646e61 	rsbvs	r6, r4, #1552	; 0x610
    1944:	6e695f79 	mcrvs	15, 3, r5, cr9, cr9, {3}
    1948:	78655f74 	stmdavc	r5!, {r2, r4, r5, r6, r8, r9, sl, fp, ip, lr}^
    194c:	49007469 	stmdbmi	r0, {r0, r3, r5, r6, sl, ip, sp, lr}
    1950:	65527172 	ldrbvs	r7, [r2, #-370]
    1954:	73007073 	movwvc	r7, #115	; 0x73
    1958:	646e6174 	strbtvs	r6, [lr], #-372
    195c:	715f7962 	cmpvc	pc, r2, ror #18
    1960:	79726575 	ldmdbvc	r2!, {r0, r2, r4, r5, r6, r8, sl, sp, lr}^
    1964:	746e695f 	strbtvc	r6, [lr], #-2399
    1968:	61747300 	cmnvs	r4, r0, lsl #6
    196c:	7962646e 	stmdbvc	r2!, {r1, r2, r3, r5, r6, sl, sp, lr}^
    1970:	616e655f 	cmnvs	lr, pc, asr r5
    1974:	5f656c62 	svcpl	0x00656c62
    1978:	00746e69 	rsbseq	r6, r4, r9, ror #28
    197c:	65707954 	ldrbvs	r7, [r0, #-2388]!
    1980:	006c6553 	rsbeq	r6, ip, r3, asr r5
    1984:	6e617473 	mcrvs	4, 3, r7, cr1, cr3, {3}
    1988:	5f796264 	svcpl	0x00796264
    198c:	5f746e69 	svcpl	0x00746e69
    1990:	74696e69 	strbtvc	r6, [r9], #-3689
    1994:	706d7400 	rsbvc	r7, sp, r0, lsl #8
    1998:	00637253 	rsbeq	r7, r3, r3, asr r2
    199c:	43696d4e 	cmnmi	r9, #4992	; 0x1380
    19a0:	006c7274 	rsbeq	r7, ip, r4, ror r2
    19a4:	75736572 	ldrbvc	r6, [r3, #-1394]!
    19a8:	5600746c 	strpl	r7, [r0], -ip, ror #8
    19ac:	6f746365 	svcvs	0x00746365
    19b0:	61420072 	cmpvs	r2, r2, ror r0
    19b4:	64416573 	strbvs	r6, [r1], #-1395
    19b8:	49007264 	stmdbmi	r0, {r2, r5, r6, r9, ip, sp, lr}
    19bc:	614d7172 	cmpvs	sp, r2, ror r1
    19c0:	73006b73 	movwvc	r6, #2931	; 0xb73
    19c4:	646e6174 	strbtvs	r6, [lr], #-372
    19c8:	695f7962 	ldmdbvs	pc, {r1, r5, r6, r8, fp, ip, sp, lr}^
    19cc:	725f746e 	subsvc	r7, pc, #1845493760	; 0x6e000000
    19d0:	745f6765 	ldrbvc	r6, [pc], #1893	; 19d8 <__standby_start+0x19d8>
    19d4:	706d7400 	rsbvc	r7, sp, r0, lsl #8
    19d8:	00707247 	rsbseq	r7, r0, r7, asr #4
    19dc:	4d717249 	lfmmi	f7, 2, [r1, #-292]!
    19e0:	526b7361 	rsbpl	r7, fp, #-2080374783	; 0x84000001
    19e4:	49006765 	stmdbmi	r0, {r0, r2, r5, r6, r8, r9, sl, sp, lr}
    19e8:	5263746e 	rsbpl	r7, r3, #1845493760	; 0x6e000000
    19ec:	49006765 	stmdbmi	r0, {r0, r2, r5, r6, r8, r9, sl, sp, lr}
    19f0:	65537172 	ldrbvs	r7, [r3, #-370]
    19f4:	6765526c 	strbvs	r5, [r5, -ip, ror #4]!
    19f8:	61747300 	cmnvs	r4, r0, lsl #6
    19fc:	7962646e 	stmdbvc	r2!, {r1, r2, r3, r5, r6, sl, sp, lr}^
    1a00:	746e695f 	strbtvc	r6, [lr], #-2399
    1a04:	7200632e 	andvc	r6, r0, #-1207959552	; 0xb8000000
    1a08:	72657365 	rsbvc	r7, r5, #-1811939327	; 0x94000001
    1a0c:	35646576 	strbcc	r6, [r4, #-1398]!
    1a10:	73657200 	cmnvc	r5, #0	; 0x0
    1a14:	65767265 	ldrbvs	r7, [r6, #-613]!
    1a18:	72003664 	andvc	r3, r0, #104857600	; 0x6400000
    1a1c:	72657365 	rsbvc	r7, r5, #-1811939327	; 0x94000001
    1a20:	37646576 	undefined
    1a24:	61747300 	cmnvs	r4, r0, lsl #6
    1a28:	7962646e 	stmdbvc	r2!, {r1, r2, r3, r5, r6, sl, sp, lr}^
    1a2c:	2e72695f 	mrccs	9, 3, r6, cr2, cr15, {2}
    1a30:	74730063 	ldrbtvc	r0, [r3], #-99
    1a34:	62646e61 	rsbvs	r6, r4, #1552	; 0x610
    1a38:	72695f79 	rsbvc	r5, r9, #484	; 0x1e4
    1a3c:	6978655f 	ldmdbvs	r8!, {r0, r1, r2, r3, r4, r6, r8, sl, sp, lr}^
    1a40:	74730074 	ldrbtvc	r0, [r3], #-116
    1a44:	62646e61 	rsbvs	r6, r4, #1552	; 0x610
    1a48:	72695f79 	rsbvc	r5, r9, #484	; 0x1e4
    1a4c:	7265765f 	rsbvc	r7, r5, #99614720	; 0x5f00000
    1a50:	00796669 	rsbseq	r6, r9, r9, ror #12
    1a54:	6e617473 	mcrvs	4, 3, r7, cr1, cr3, {3}
    1a58:	5f796264 	svcpl	0x00796264
    1a5c:	695f7269 	ldmdbvs	pc, {r0, r3, r5, r6, r9, ip, sp, lr}^
    1a60:	0074696e 	rsbseq	r6, r4, lr, ror #18
    1a64:	6e617473 	mcrvs	4, 3, r7, cr1, cr3, {3}
    1a68:	5f796264 	svcpl	0x00796264
    1a6c:	645f7269 	ldrbvs	r7, [pc], #617	; 1a74 <__standby_start+0x1a74>
    1a70:	63657465 	cmnvs	r5, #1694498816	; 0x65000000
    1a74:	724c0074 	subvc	r0, ip, #116	; 0x74
    1a78:	5f636461 	svcpl	0x00636461
    1a7c:	73746e49 	cmnvc	r4, #1168	; 0x490
    1a80:	735f5f00 	cmpvc	pc, #0	; 0x0
    1a84:	646e6174 	strbtvs	r6, [lr], #-372
    1a88:	6b5f7962 	blvs	17e0018 <__standby_start+0x17e0018>
    1a8c:	725f7965 	subsvc	r7, pc, #1654784	; 0x194000
    1a90:	745f6765 	ldrbvc	r6, [pc], #1893	; 1a98 <__standby_start+0x1a98>
    1a94:	79654b00 	stmdbvc	r5!, {r8, r9, fp, lr}^
    1a98:	73746e49 	cmnvc	r4, #1168	; 0x490
    1a9c:	61747300 	cmnvs	r4, r0, lsl #6
    1aa0:	7962646e 	stmdbvc	r2!, {r1, r2, r3, r5, r6, sl, sp, lr}^
    1aa4:	79656b5f 	stmdbvc	r5!, {r0, r1, r2, r3, r4, r6, r8, r9, fp, sp, lr}^
    1aa8:	4b00632e 	blmi	1a768 <__standby_start+0x1a768>
    1aac:	65527965 	ldrbvs	r7, [r2, #-2405]
    1ab0:	724c0067 	subvc	r0, ip, #103	; 0x67
    1ab4:	5f636461 	svcpl	0x00636461
    1ab8:	63746e49 	cmnvs	r4, #1168	; 0x490
    1abc:	61747300 	cmnvs	r4, r0, lsl #6
    1ac0:	7962646e 	stmdbvc	r2!, {r1, r2, r3, r5, r6, sl, sp, lr}^
    1ac4:	79656b5f 	stmdbvc	r5!, {r0, r1, r2, r3, r4, r6, r8, r9, fp, sp, lr}^
    1ac8:	6978655f 	ldmdbvs	r8!, {r0, r1, r2, r3, r4, r6, r8, sl, sp, lr}^
    1acc:	654b0074 	strbvs	r0, [fp, #-116]
    1ad0:	74614479 	strbtvc	r4, [r1], #-1145
    1ad4:	4b003061 	blmi	dc60 <__standby_start+0xdc60>
    1ad8:	61447965 	cmpvs	r4, r5, ror #18
    1adc:	00316174 	eorseq	r6, r1, r4, ror r1
    1ae0:	6461724c 	strbtvs	r7, [r1], #-588
    1ae4:	74435f63 	strbvc	r5, [r3], #-3939
    1ae8:	4c006c72 	stcmi	12, cr6, [r0], {114}
    1aec:	63646172 	cmnvs	r4, #-2147483620	; 0x8000001c
    1af0:	7461445f 	strbtvc	r4, [r1], #-1119
    1af4:	73003161 	movwvc	r3, #353	; 0x161
    1af8:	646e6174 	strbtvs	r6, [lr], #-372
    1afc:	6b5f7962 	blvs	17e008c <__standby_start+0x17e008c>
    1b00:	695f7965 	ldmdbvs	pc, {r0, r2, r5, r6, r8, fp, ip, sp, lr}^
    1b04:	0074696e 	rsbseq	r6, r4, lr, ror #18
    1b08:	4979654b 	ldmdbmi	r9!, {r0, r1, r3, r6, r8, sl, sp, lr}^
    1b0c:	0063746e 	rsbeq	r7, r3, lr, ror #8
    1b10:	6e617473 	mcrvs	4, 3, r7, cr1, cr3, {3}
    1b14:	5f796264 	svcpl	0x00796264
    1b18:	72657571 	rsbvc	r7, r5, #473956352	; 0x1c400000
    1b1c:	656b5f79 	strbvs	r5, [fp, #-3961]!
    1b20:	5f5f0079 	svcpl	0x005f0079
    1b24:	4e415453 	mcrmi	4, 2, r5, cr1, cr3, {2}
    1b28:	5f594244 	svcpl	0x00594244
    1b2c:	5f59454b 	svcpl	0x0059454b
    1b30:	00474552 	subeq	r4, r7, r2, asr r5
    1b34:	6461724c 	strbtvs	r7, [r1], #-588
    1b38:	61445f63 	cmpvs	r4, r3, ror #30
    1b3c:	00306174 	eorseq	r6, r0, r4, ror r1
    1b40:	4379654b 	cmnmi	r9, #314572800	; 0x12c00000
    1b44:	006c7274 	rsbeq	r7, ip, r4, ror r2
    1b48:	6e617473 	mcrvs	4, 3, r7, cr1, cr3, {3}
    1b4c:	5f796264 	svcpl	0x00796264
    1b50:	5f746567 	svcpl	0x00746567
    1b54:	746c6f76 	strbtvc	r6, [ip], #-3958
    1b58:	00656761 	rsbeq	r6, r5, r1, ror #14
    1b5c:	646e6966 	strbtvs	r6, [lr], #-2406
    1b60:	666e695f 	undefined
    1b64:	616d006f 	cmnvs	sp, pc, rrx
    1b68:	56755f78 	uhsub16pl	r5, r5, r8
    1b6c:	61747300 	cmnvs	r4, r0, lsl #6
    1b70:	7962646e 	stmdbvc	r2!, {r1, r2, r3, r5, r6, sl, sp, lr}^
    1b74:	776f705f 	undefined
    1b78:	632e7265 	teqvs	lr, #1342177286	; 0x50000006
    1b7c:	61747300 	cmnvs	r4, r0, lsl #6
    1b80:	7962646e 	stmdbvc	r2!, {r1, r2, r3, r5, r6, sl, sp, lr}^
    1b84:	776f705f 	undefined
    1b88:	695f7265 	ldmdbvs	pc, {r0, r2, r5, r6, r9, ip, sp, lr}^
    1b8c:	0074696e 	rsbseq	r6, r4, lr, ror #18
    1b90:	5f495754 	svcpl	0x00495754
    1b94:	575f504f 	ldrbpl	r5, [pc, -pc, asr #32]
    1b98:	6f760052 	svcvs	0x00760052
    1b9c:	626e5f6c 	rsbvs	r5, lr, #432	; 0x1b0
    1ba0:	00737469 	rsbseq	r7, r3, r9, ror #8
    1ba4:	6e617473 	mcrvs	4, 3, r7, cr1, cr3, {3}
    1ba8:	5f796264 	svcpl	0x00796264
    1bac:	5f746573 	svcpl	0x00746573
    1bb0:	746c6f76 	strbtvc	r6, [ip], #-3958
    1bb4:	00656761 	rsbeq	r6, r5, r1, ror #14
    1bb8:	5f6c6f76 	svcpl	0x006c6f76
    1bbc:	66696873 	undefined
    1bc0:	78610074 	stmdavc	r1!, {r2, r4, r5, r6}^
    1bc4:	5f303270 	svcpl	0x00303270
    1bc8:	6f666e69 	svcvs	0x00666e69
    1bcc:	70786100 	rsbsvc	r6, r8, r0, lsl #2
    1bd0:	666e695f 	undefined
    1bd4:	5754006f 	ldrbpl	r0, [r4, -pc, rrx]
    1bd8:	504f5f49 	subpl	r5, pc, r9, asr #30
    1bdc:	0044525f 	subeq	r5, r4, pc, asr r2
    1be0:	5f697774 	svcpl	0x00697774
    1be4:	745f706f 	ldrbvc	r7, [pc], #111	; 1bec <__standby_start+0x1bec>
    1be8:	5f657079 	svcpl	0x00657079
    1bec:	74730065 	ldrbtvc	r0, [r3], #-101
    1bf0:	755f7065 	ldrbvc	r7, [pc, #-101]	; 1b93 <__standby_start+0x1b93>
    1bf4:	5f5f0056 	svcpl	0x005f0056
    1bf8:	61003875 	tstvs	r0, r5, ror r8
    1bfc:	30327078 	eorscc	r7, r2, r8, ror r0
    1c00:	6f646c5f 	svcvs	0x00646c5f
    1c04:	61645f34 	cmnvs	r4, r4, lsr pc
    1c08:	6d006174 	stfvss	f6, [r0, #-464]
    1c0c:	006b7361 	rsbeq	r7, fp, r1, ror #6
    1c10:	5f6c6f76 	svcpl	0x006c6f76
    1c14:	00676572 	rsbeq	r6, r7, r2, ror r5
    1c18:	63656863 	cmnvs	r5, #6488064	; 0x630000
    1c1c:	61725f6b 	cmnvs	r2, fp, ror #30
    1c20:	0065676e 	rsbeq	r6, r5, lr, ror #14
    1c24:	5f6e696d 	svcpl	0x006e696d
    1c28:	73005675 	movwvc	r5, #1653	; 0x675
    1c2c:	646e6174 	strbtvs	r6, [lr], #-372
    1c30:	705f7962 	subsvc	r7, pc, r2, ror #18
    1c34:	7265776f 	rsbvc	r7, r5, #29097984	; 0x1bc0000
    1c38:	6978655f 	ldmdbvs	r8!, {r0, r1, r2, r3, r4, r6, r8, sl, sp, lr}^
    1c3c:	61720074 	cmnvs	r2, r4, ror r0
    1c40:	696c5f77 	stmdbvs	ip!, {r0, r1, r2, r4, r5, r6, r8, r9, sl, fp, ip, lr}^
    1c44:	64755f62 	ldrbtvs	r5, [r5], #-3938
    1c48:	54007669 	strpl	r7, [r0], #-1641
    1c4c:	455f524d 	ldrbmi	r5, [pc, #-589]	; 1a07 <__standby_start+0x1a07>
    1c50:	544e4556 	strbpl	r4, [lr], #-1366
    1c54:	574f505f 	smlsldpl	r5, pc, pc, r0
    1c58:	464f5245 	strbmi	r5, [pc], -r5, asr #4
    1c5c:	6c410046 	mcrrvs	0, 4, r0, r1, cr6
    1c60:	576d7261 	strbpl	r7, [sp, -r1, ror #4]!
    1c64:	00534d48 	subseq	r4, r3, r8, asr #26
    1c68:	72616c41 	rsbvc	r6, r1, #16640	; 0x4100
    1c6c:	7172496d 	cmnvc	r2, sp, ror #18
    1c70:	00617453 	rsbeq	r7, r1, r3, asr r4
    1c74:	5f524d54 	svcpl	0x00524d54
    1c78:	4e455645 	cdpmi	6, 4, cr5, cr5, cr5, {2}
    1c7c:	4c415f54 	mcrrmi	15, 5, r5, r1, cr4
    1c80:	004d5241 	subeq	r5, sp, r1, asr #4
    1c84:	31737641 	cmncc	r3, r1, asr #12
    1c88:	00746e43 	rsbseq	r6, r4, r3, asr #28
    1c8c:	72616c41 	rsbvc	r6, r1, #16640	; 0x4100
    1c90:	7172496d 	cmnvc	r2, sp, ror #18
    1c94:	52006e45 	andpl	r6, r0, #1104	; 0x450
    1c98:	48446374 	stmdami	r4, {r2, r4, r5, r6, r8, r9, sp, lr}^
    1c9c:	4400534d 	strmi	r5, [r0], #-845
    1ca0:	7443676f 	strbvc	r6, [r3], #-1903
    1ca4:	7452006c 	ldrbvc	r0, [r2], #-108
    1ca8:	444d5963 	strbmi	r5, [sp], #-2403
    1cac:	63745200 	cmnvs	r4, #0	; 0x0
    1cb0:	00534d48 	subseq	r4, r3, r8, asr #26
    1cb4:	74735f5f 	ldrbtvc	r5, [r3], #-3935
    1cb8:	62646e61 	rsbvs	r6, r4, #1552	; 0x610
    1cbc:	6d745f79 	ldclvs	15, cr5, [r4, #-484]!
    1cc0:	65725f72 	ldrbvs	r5, [r2, #-3954]!
    1cc4:	00745f67 	rsbseq	r5, r4, r7, ror #30
    1cc8:	31726d54 	cmncc	r2, r4, asr sp
    1ccc:	006c7443 	rsbeq	r7, ip, r3, asr #8
    1cd0:	30726d54 	rsbscc	r6, r2, r4, asr sp
    1cd4:	56746e43 	ldrbtpl	r6, [r4], -r3, asr #28
    1cd8:	74006c61 	strvc	r6, [r0], #-3169
    1cdc:	655f726d 	ldrbvs	r7, [pc, #-621]	; 1a77 <__standby_start+0x1a77>
    1ce0:	746e6576 	strbtvc	r6, [lr], #-1398
    1ce4:	7079745f 	rsbsvc	r7, r9, pc, asr r4
    1ce8:	00655f65 	rsbeq	r5, r5, r5, ror #30
    1cec:	35726d54 	ldrbcc	r6, [r2, #-3412]!
    1cf0:	006c7443 	rsbeq	r7, ip, r3, asr #8
    1cf4:	32726d54 	rsbscc	r6, r2, #5376	; 0x1500
    1cf8:	56746e49 	ldrbtpl	r6, [r4], -r9, asr #28
    1cfc:	5f006c61 	svcpl	0x00006c61
    1d00:	4154535f 	cmpmi	r4, pc, asr r3
    1d04:	5942444e 	stmdbpl	r2, {r1, r2, r3, r6, sl, lr}^
    1d08:	524d545f 	subpl	r5, sp, #1593835520	; 0x5f000000
    1d0c:	4745525f 	smlsldmi	r5, r5, pc, r2
    1d10:	726d5400 	rsbvc	r5, sp, #0	; 0x0
    1d14:	746e4332 	strbtvc	r4, [lr], #-818
    1d18:	006c6156 	rsbeq	r6, ip, r6, asr r1
    1d1c:	34726d54 	ldrbtcc	r6, [r2], #-3412
    1d20:	56746e49 	ldrbtpl	r6, [r4], -r9, asr #28
    1d24:	54006c61 	strpl	r6, [r0], #-3169
    1d28:	4334726d 	teqmi	r4, #-805306362	; 0xd0000006
    1d2c:	6156746e 	cmpvs	r6, lr, ror #8
    1d30:	6c41006c 	mcrrvs	0, 6, r0, r1, cr12
    1d34:	456d7261 	strbmi	r7, [sp, #-609]!
    1d38:	6572006e 	ldrbvs	r0, [r2, #-110]!
    1d3c:	76726573 	undefined
    1d40:	00386465 	eorseq	r6, r8, r5, ror #8
    1d44:	36746e43 	ldrbtcc	r6, [r4], -r3, asr #28
    1d48:	00694834 	rsbeq	r4, r9, r4, lsr r8
    1d4c:	32726d54 	rsbscc	r6, r2, #5376	; 0x1500
    1d50:	006c7443 	rsbeq	r7, ip, r3, asr #8
    1d54:	6e617473 	mcrvs	4, 3, r7, cr1, cr3, {3}
    1d58:	5f796264 	svcpl	0x00796264
    1d5c:	5f726d74 	svcpl	0x00726d74
    1d60:	61736964 	cmnvs	r3, r4, ror #18
    1d64:	5f656c62 	svcpl	0x00656c62
    1d68:	63746177 	cmnvs	r4, #-1073741795	; 0xc000001d
    1d6c:	676f6468 	strbvs	r6, [pc, -r8, ror #8]!
    1d70:	676f4400 	strbvs	r4, [pc, -r0, lsl #8]!
    1d74:	65646f4d 	strbvs	r6, [r4, #-3917]!
    1d78:	726d5400 	rsbvc	r5, sp, #0	; 0x0
    1d7c:	746e4930 	strbtvc	r4, [lr], #-2352
    1d80:	006c6156 	rsbeq	r6, ip, r6, asr r1
    1d84:	36746e43 	ldrbtcc	r6, [r4], -r3, asr #28
    1d88:	006f4c34 	rsbeq	r4, pc, r4, lsr ip
    1d8c:	6f636573 	svcvs	0x00636573
    1d90:	7300646e 	movwvc	r6, #1134	; 0x46e
    1d94:	646e6174 	strbtvs	r6, [lr], #-372
    1d98:	745f7962 	ldrbvc	r7, [pc], #2402	; 1da0 <__standby_start+0x1da0>
    1d9c:	655f726d 	ldrbvs	r7, [pc, #-621]	; 1b37 <__standby_start+0x1b37>
    1da0:	00746978 	rsbseq	r6, r4, r8, ror r9
    1da4:	63736f4c 	cmnvs	r3, #304	; 0x130
    1da8:	006c7443 	rsbeq	r7, ip, r3, asr #8
    1dac:	36746e43 	ldrbtcc	r6, [r4], -r3, asr #28
    1db0:	6c744334 	ldclvs	3, cr4, [r4], #-208
    1db4:	726d5400 	rsbvc	r5, sp, #0	; 0x0
    1db8:	746e4931 	strbtvc	r4, [lr], #-2353
    1dbc:	006c6156 	rsbeq	r6, ip, r6, asr r1
    1dc0:	44737641 	ldrbtmi	r7, [r3], #-1601
    1dc4:	54007669 	strpl	r7, [r0], #-1641
    1dc8:	4333726d 	teqmi	r3, #-805306362	; 0xd0000006
    1dcc:	41006c74 	tstmi	r0, r4, ror ip
    1dd0:	74437376 	strbvc	r7, [r3], #-886
    1dd4:	6e49006c 	cdpvs	0, 4, cr0, cr9, cr12, {3}
    1dd8:	61745374 	cmnvs	r4, r4, ror r3
    1ddc:	726d5400 	rsbvc	r5, sp, #0	; 0x0
    1de0:	65527047 	ldrbvs	r7, [r2, #-71]
    1de4:	6d540067 	ldclvs	0, cr0, [r4, #-412]
    1de8:	6e433172 	mcrvs	1, 2, r3, cr3, cr2, {3}
    1dec:	6c615674 	stclvs	6, cr5, [r1], #-464
    1df0:	61747300 	cmnvs	r4, r0, lsl #6
    1df4:	7962646e 	stmdbvc	r2!, {r1, r2, r3, r5, r6, sl, sp, lr}^
    1df8:	726d745f 	rsbvc	r7, sp, #1593835520	; 0x5f000000
    1dfc:	6c646d5f 	stclvs	13, cr6, [r4], #-380
    1e00:	54007961 	strpl	r7, [r0], #-2401
    1e04:	6e49726d 	cdpvs	2, 4, cr7, cr9, cr13, {3}
    1e08:	6c744374 	ldclvs	3, cr4, [r4], #-464
    1e0c:	61747300 	cmnvs	r4, r0, lsl #6
    1e10:	7962646e 	stmdbvc	r2!, {r1, r2, r3, r5, r6, sl, sp, lr}^
    1e14:	726d745f 	rsbvc	r7, sp, #1593835520	; 0x5f000000
    1e18:	696e695f 	stmdbvs	lr!, {r0, r1, r2, r3, r4, r6, r8, fp, sp, lr}^
    1e1c:	6d540074 	ldclvs	0, cr0, [r4, #-464]
    1e20:	6e493372 	mcrvs	3, 2, r3, cr9, cr2, {3}
    1e24:	6c615674 	stclvs	6, cr5, [r1], #-464
    1e28:	61747300 	cmnvs	r4, r0, lsl #6
    1e2c:	7962646e 	stmdbvc	r2!, {r1, r2, r3, r5, r6, sl, sp, lr}^
    1e30:	726d745f 	rsbvc	r7, sp, #1593835520	; 0x5f000000
    1e34:	7300632e 	movwvc	r6, #814	; 0x32e
    1e38:	646e6174 	strbtvs	r6, [lr], #-372
    1e3c:	745f7962 	ldrbvc	r7, [pc], #2402	; 1e44 <__standby_start+0x1e44>
    1e40:	655f726d 	ldrbvs	r7, [pc, #-621]	; 1bdb <__standby_start+0x1bdb>
    1e44:	6c62616e 	stfvse	f6, [r2], #-440
    1e48:	61775f65 	cmnvs	r7, r5, ror #30
    1e4c:	64686374 	strbtvs	r6, [r8], #-884
    1e50:	7300676f 	movwvc	r6, #1903	; 0x76f
    1e54:	646e6174 	strbtvs	r6, [lr], #-372
    1e58:	745f7962 	ldrbvc	r7, [pc], #2402	; 1e60 <__standby_start+0x1e60>
    1e5c:	735f726d 	cmpvc	pc, #-805306362	; 0xd0000006
    1e60:	41007465 	tstmi	r0, r5, ror #8
    1e64:	43307376 	teqmi	r0, #-671088639	; 0xd8000001
    1e68:	5400746e 	strpl	r7, [r0], #-1134
    1e6c:	4935726d 	ldmdbmi	r5!, {r0, r2, r3, r5, r6, r9, ip, sp, lr}
    1e70:	6156746e 	cmpvs	r6, lr, ror #8
    1e74:	7473006c 	ldrbtvc	r0, [r3], #-108
    1e78:	62646e61 	rsbvs	r6, r4, #1552	; 0x610
    1e7c:	6d745f79 	ldclvs	15, cr5, [r4, #-484]!
    1e80:	75715f72 	ldrbvc	r5, [r1, #-3954]!
    1e84:	00797265 	rsbseq	r7, r9, r5, ror #4
    1e88:	35726d54 	ldrbcc	r6, [r2, #-3412]!
    1e8c:	56746e43 	ldrbtpl	r6, [r4], -r3, asr #28
    1e90:	54006c61 	strpl	r6, [r0], #-3169
    1e94:	6552726d 	ldrbvs	r7, [r2, #-621]
    1e98:	6d540067 	ldclvs	0, cr0, [r4, #-412]
    1e9c:	74433072 	strbvc	r3, [r3], #-114
    1ea0:	6d54006c 	ldclvs	0, cr0, [r4, #-432]
    1ea4:	74433472 	strbvc	r3, [r3], #-1138
    1ea8:	6572006c 	ldrbvs	r0, [r2, #-108]!
    1eac:	66655f67 	strbtvs	r5, [r5], -r7, ror #30
    1eb0:	77540072 	undefined
    1eb4:	6c744369 	ldclvs	3, cr4, [r4], #-420
    1eb8:	42676552 	rsbmi	r6, r7, #343932928	; 0x14800000
    1ebc:	6e006b61 	vmlsvs.f64	d6, d0, d17
    1ec0:	725f706f 	subsvc	r7, pc, #111	; 0x6f
    1ec4:	00646165 	rsbeq	r6, r4, r5, ror #2
    1ec8:	5f676572 	svcpl	0x00676572
    1ecc:	65736572 	ldrbvs	r6, [r3, #-1394]!
    1ed0:	735f0074 	cmpvc	pc, #116	; 0x74
    1ed4:	646e6174 	strbtvs	r6, [lr], #-372
    1ed8:	745f7962 	ldrbvc	r7, [pc], #2402	; 1ee0 <__standby_start+0x1ee0>
    1edc:	735f6977 	cmpvc	pc, #1949696	; 0x1dc000
    1ee0:	00706f74 	rsbseq	r6, r0, r4, ror pc
    1ee4:	756f7267 	strbvc	r7, [pc, #-615]!	; 1c85 <__standby_start+0x1c85>
    1ee8:	77740070 	undefined
    1eec:	65725f69 	ldrbvs	r5, [r2, #-3945]!
    1ef0:	5f5f0067 	svcpl	0x005f0067
    1ef4:	63697774 	cmnvs	r9, #30408704	; 0x1d00000
    1ef8:	6765725f 	undefined
    1efc:	7200745f 	andvc	r7, r0, #1593835520	; 0x5f000000
    1f00:	635f6765 	cmpvs	pc, #26476544	; 0x1940000
    1f04:	00726b6c 	rsbseq	r6, r2, ip, ror #22
    1f08:	5f676572 	svcpl	0x00676572
    1f0c:	61746164 	cmnvs	r4, r4, ror #2
    1f10:	49575400 	ldmdbmi	r7, {sl, ip, lr}^
    1f14:	4745525f 	smlsldmi	r5, r5, pc, r2
    1f18:	5341425f 	movtpl	r4, #4703	; 0x125f
    1f1c:	74730045 	ldrbtvc	r0, [r3], #-69
    1f20:	62646e61 	rsbvs	r6, r4, #1552	; 0x610
    1f24:	77745f79 	undefined
    1f28:	78655f69 	stmdavc	r5!, {r0, r3, r5, r6, r8, r9, sl, fp, ip, lr}^
    1f2c:	72007469 	andvc	r7, r0, #1761607680	; 0x69000000
    1f30:	785f6765 	ldmdavc	pc, {r0, r2, r5, r6, r8, r9, sl, sp, lr}^
    1f34:	64646173 	strbtvs	r6, [r4], #-371
    1f38:	77540072 	undefined
    1f3c:	6b6c4369 	blvs	1b12ce8 <__standby_start+0x1b12ce8>
    1f40:	42676552 	rsbmi	r6, r7, #343932928	; 0x14800000
    1f44:	73006b61 	movwvc	r6, #2913	; 0xb61
    1f48:	646e6174 	strbtvs	r6, [lr], #-372
    1f4c:	745f7962 	ldrbvc	r7, [pc], #2402	; 1f54 <__standby_start+0x1f54>
    1f50:	632e6977 	teqvs	lr, #1949696	; 0x1dc000
    1f54:	69777400 	ldmdbvs	r7!, {sl, ip, sp, lr}^
    1f58:	7479625f 	ldrbtvc	r6, [r9], #-607
    1f5c:	77725f65 	ldrbvc	r5, [r2, -r5, ror #30]!
    1f60:	64616200 	strbtvs	r6, [r1], #-512
    1f64:	73007264 	movwvc	r7, #612	; 0x264
    1f68:	5f706f74 	svcpl	0x00706f74
    1f6c:	0074756f 	rsbseq	r7, r4, pc, ror #10
    1f70:	656d6974 	strbvs	r6, [sp, #-2420]!
    1f74:	0074756f 	rsbseq	r7, r4, pc, ror #10
    1f78:	5f676572 	svcpl	0x00676572
    1f7c:	006c7463 	rsbeq	r7, ip, r3, ror #8
    1f80:	6e617473 	mcrvs	4, 3, r7, cr1, cr3, {3}
    1f84:	5f796264 	svcpl	0x00796264
    1f88:	5f697774 	svcpl	0x00697774
    1f8c:	74696e69 	strbtvc	r6, [r9], #-3689
    1f90:	67617400 	strbvs	r7, [r1, -r0, lsl #8]!
    1f94:	6977745f 	ldmdbvs	r7!, {r0, r1, r2, r3, r4, r6, sl, ip, sp, lr}^
    1f98:	65725f63 	ldrbvs	r5, [r2, #-3939]!
    1f9c:	65720067 	ldrbvs	r0, [r2, #-103]!
    1fa0:	61735f67 	cmnvs	r3, r7, ror #30
    1fa4:	00726464 	rsbseq	r6, r2, r4, ror #8
    1fa8:	5f676572 	svcpl	0x00676572
    1fac:	6c74636c 	ldclvs	3, cr6, [r4], #-432
    1fb0:	67657200 	strbvs	r7, [r5, -r0, lsl #4]!
    1fb4:	6174735f 	cmnvs	r4, pc, asr r3
    1fb8:	00737574 	rsbseq	r7, r3, r4, ror r5
    1fbc:	74617473 	strbtvc	r7, [r1], #-1139
    1fc0:	6d745f65 	ldclvs	15, cr5, [r4, #-404]!
    1fc4:	74730070 	ldrbtvc	r0, [r3], #-112
    1fc8:	62646e61 	rsbvs	r6, r4, #1552	; 0x610
    1fcc:	73755f79 	cmnvc	r5, #484	; 0x1e4
    1fd0:	00632e62 	rsbeq	r2, r3, r2, ror #28
    1fd4:	6e617473 	mcrvs	4, 3, r7, cr1, cr3, {3}
    1fd8:	5f796264 	svcpl	0x00796264
    1fdc:	5f627375 	svcpl	0x00627375
    1fe0:	74697865 	strbtvc	r7, [r9], #-2149
    1fe4:	61747300 	cmnvs	r4, r0, lsl #6
    1fe8:	7962646e 	stmdbvc	r2!, {r1, r2, r3, r5, r6, sl, sp, lr}^
    1fec:	5f73695f 	svcpl	0x0073695f
    1ff0:	5f627375 	svcpl	0x00627375
    1ff4:	74617473 	strbtvc	r7, [r1], #-1139
    1ff8:	635f7375 	cmpvs	pc, #-738197503	; 0xd4000001
    1ffc:	676e6168 	strbvs	r6, [lr, -r8, ror #2]!
    2000:	74730065 	ldrbtvc	r0, [r3], #-101
    2004:	62646e61 	rsbvs	r6, r4, #1552	; 0x610
    2008:	75715f79 	ldrbvc	r5, [r1, #-3961]!
    200c:	5f797265 	svcpl	0x00797265
    2010:	5f627375 	svcpl	0x00627375
    2014:	6e657665 	cdpvs	6, 6, cr7, cr5, cr5, {3}
    2018:	74730074 	ldrbtvc	r0, [r3], #-116
    201c:	62646e61 	rsbvs	r6, r4, #1552	; 0x610
    2020:	73755f79 	cmnvc	r5, #484	; 0x1e4
    2024:	6e695f62 	cdpvs	15, 6, cr5, cr9, cr2, {3}
    2028:	Address 0x00002028 is out of bounds.


Disassembly of section .comment:

00000000 <.comment>:
   0:	43434700 	movtmi	r4, #14080	; 0x3700
   4:	5328203a 	teqpl	r8, #58	; 0x3a
   8:	6372756f 	cmnvs	r2, #465567744	; 0x1bc00000
   c:	20797265 	rsbscs	r7, r9, r5, ror #4
  10:	202b2b47 	eorcs	r2, fp, r7, asr #22
  14:	6574694c 	ldrbvs	r6, [r4, #-2380]!
  18:	30303220 	eorscc	r3, r0, r0, lsr #4
  1c:	2d317139 	ldfcss	f7, [r1, #-228]!
  20:	29333032 	ldmdbcs	r3!, {r1, r4, r5, ip, sp}
  24:	332e3420 	teqcc	lr, #536870912	; 0x20000000
  28:	0000332e 	andeq	r3, r0, lr, lsr #6
  2c:	3a434347 	bcc	10d0d50 <__standby_start+0x10d0d50>
  30:	6f532820 	svcvs	0x00532820
  34:	65637275 	strbvs	r7, [r3, #-629]!
  38:	47207972 	undefined
  3c:	4c202b2b 	stcmi	11, cr2, [r0], #-172
  40:	20657469 	rsbcs	r7, r5, r9, ror #8
  44:	39303032 	ldmdbcc	r0!, {r1, r4, r5, ip, sp}
  48:	322d3171 	eorcc	r3, sp, #1073741852	; 0x4000001c
  4c:	20293330 	eorcs	r3, r9, r0, lsr r3
  50:	2e332e34 	mrccs	14, 1, r2, cr3, cr4, {1}
  54:	47000033 	smladxmi	r0, r3, r0, r0
  58:	203a4343 	eorscs	r4, sl, r3, asr #6
  5c:	756f5328 	strbvc	r5, [pc, #-808]!	; fffffd3c <__bss_end+0xfffdcb4>
  60:	72656372 	rsbvc	r6, r5, #-939524095	; 0xc8000001
  64:	2b472079 	blcs	11c8250 <__standby_start+0x11c8250>
  68:	694c202b 	stmdbvs	ip, {r0, r1, r3, r5, sp}^
  6c:	32206574 	eorcc	r6, r0, #486539264	; 0x1d000000
  70:	71393030 	teqvc	r9, r0, lsr r0
  74:	30322d31 	eorscc	r2, r2, r1, lsr sp
  78:	34202933 	strtcc	r2, [r0], #-2355
  7c:	332e332e 	teqcc	lr, #-1207959552	; 0xb8000000
  80:	43470000 	movtmi	r0, #28672	; 0x7000
  84:	28203a43 	stmdacs	r0!, {r0, r1, r6, r9, fp, ip, sp}
  88:	72756f53 	rsbsvc	r6, r5, #332	; 0x14c
  8c:	79726563 	ldmdbvc	r2!, {r0, r1, r5, r6, r8, sl, sp, lr}^
  90:	2b2b4720 	blcs	ad1d18 <__standby_start+0xad1d18>
  94:	74694c20 	strbtvc	r4, [r9], #-3104
  98:	30322065 	eorscc	r2, r2, r5, rrx
  9c:	31713930 	cmncc	r1, r0, lsr r9
  a0:	3330322d 	teqcc	r0, #-805306366	; 0xd0000002
  a4:	2e342029 	cdpcs	0, 3, cr2, cr4, cr9, {1}
  a8:	00332e33 	eorseq	r2, r3, r3, lsr lr
  ac:	43434700 	movtmi	r4, #14080	; 0x3700
  b0:	5328203a 	teqpl	r8, #58	; 0x3a
  b4:	6372756f 	cmnvs	r2, #465567744	; 0x1bc00000
  b8:	20797265 	rsbscs	r7, r9, r5, ror #4
  bc:	202b2b47 	eorcs	r2, fp, r7, asr #22
  c0:	6574694c 	ldrbvs	r6, [r4, #-2380]!
  c4:	30303220 	eorscc	r3, r0, r0, lsr #4
  c8:	2d317139 	ldfcss	f7, [r1, #-228]!
  cc:	29333032 	ldmdbcs	r3!, {r1, r4, r5, ip, sp}
  d0:	332e3420 	teqcc	lr, #536870912	; 0x20000000
  d4:	0000332e 	andeq	r3, r0, lr, lsr #6
  d8:	3a434347 	bcc	10d0dfc <__standby_start+0x10d0dfc>
  dc:	6f532820 	svcvs	0x00532820
  e0:	65637275 	strbvs	r7, [r3, #-629]!
  e4:	47207972 	undefined
  e8:	4c202b2b 	stcmi	11, cr2, [r0], #-172
  ec:	20657469 	rsbcs	r7, r5, r9, ror #8
  f0:	39303032 	ldmdbcc	r0!, {r1, r4, r5, ip, sp}
  f4:	322d3171 	eorcc	r3, sp, #1073741852	; 0x4000001c
  f8:	20293330 	eorcs	r3, r9, r0, lsr r3
  fc:	2e332e34 	mrccs	14, 1, r2, cr3, cr4, {1}
 100:	47000033 	smladxmi	r0, r3, r0, r0
 104:	203a4343 	eorscs	r4, sl, r3, asr #6
 108:	756f5328 	strbvc	r5, [pc, #-808]!	; fffffde8 <__bss_end+0xfffdd60>
 10c:	72656372 	rsbvc	r6, r5, #-939524095	; 0xc8000001
 110:	2b472079 	blcs	11c82fc <__standby_start+0x11c82fc>
 114:	694c202b 	stmdbvs	ip, {r0, r1, r3, r5, sp}^
 118:	32206574 	eorcc	r6, r0, #486539264	; 0x1d000000
 11c:	71393030 	teqvc	r9, r0, lsr r0
 120:	30322d31 	eorscc	r2, r2, r1, lsr sp
 124:	34202933 	strtcc	r2, [r0], #-2355
 128:	332e332e 	teqcc	lr, #-1207959552	; 0xb8000000
 12c:	43470000 	movtmi	r0, #28672	; 0x7000
 130:	28203a43 	stmdacs	r0!, {r0, r1, r6, r9, fp, ip, sp}
 134:	72756f53 	rsbsvc	r6, r5, #332	; 0x14c
 138:	79726563 	ldmdbvc	r2!, {r0, r1, r5, r6, r8, sl, sp, lr}^
 13c:	2b2b4720 	blcs	ad1dc4 <__standby_start+0xad1dc4>
 140:	74694c20 	strbtvc	r4, [r9], #-3104
 144:	30322065 	eorscc	r2, r2, r5, rrx
 148:	31713930 	cmncc	r1, r0, lsr r9
 14c:	3330322d 	teqcc	r0, #-805306366	; 0xd0000002
 150:	2e342029 	cdpcs	0, 3, cr2, cr4, cr9, {1}
 154:	00332e33 	eorseq	r2, r3, r3, lsr lr
 158:	43434700 	movtmi	r4, #14080	; 0x3700
 15c:	5328203a 	teqpl	r8, #58	; 0x3a
 160:	6372756f 	cmnvs	r2, #465567744	; 0x1bc00000
 164:	20797265 	rsbscs	r7, r9, r5, ror #4
 168:	202b2b47 	eorcs	r2, fp, r7, asr #22
 16c:	6574694c 	ldrbvs	r6, [r4, #-2380]!
 170:	30303220 	eorscc	r3, r0, r0, lsr #4
 174:	2d317139 	ldfcss	f7, [r1, #-228]!
 178:	29333032 	ldmdbcs	r3!, {r1, r4, r5, ip, sp}
 17c:	332e3420 	teqcc	lr, #536870912	; 0x20000000
 180:	0000332e 	andeq	r3, r0, lr, lsr #6
 184:	3a434347 	bcc	10d0ea8 <__standby_start+0x10d0ea8>
 188:	6f532820 	svcvs	0x00532820
 18c:	65637275 	strbvs	r7, [r3, #-629]!
 190:	47207972 	undefined
 194:	4c202b2b 	stcmi	11, cr2, [r0], #-172
 198:	20657469 	rsbcs	r7, r5, r9, ror #8
 19c:	39303032 	ldmdbcc	r0!, {r1, r4, r5, ip, sp}
 1a0:	322d3171 	eorcc	r3, sp, #1073741852	; 0x4000001c
 1a4:	20293330 	eorcs	r3, r9, r0, lsr r3
 1a8:	2e332e34 	mrccs	14, 1, r2, cr3, cr4, {1}
 1ac:	47000033 	smladxmi	r0, r3, r0, r0
 1b0:	203a4343 	eorscs	r4, sl, r3, asr #6
 1b4:	756f5328 	strbvc	r5, [pc, #-808]!	; fffffe94 <__bss_end+0xfffde0c>
 1b8:	72656372 	rsbvc	r6, r5, #-939524095	; 0xc8000001
 1bc:	2b472079 	blcs	11c83a8 <__standby_start+0x11c83a8>
 1c0:	694c202b 	stmdbvs	ip, {r0, r1, r3, r5, sp}^
 1c4:	32206574 	eorcc	r6, r0, #486539264	; 0x1d000000
 1c8:	71393030 	teqvc	r9, r0, lsr r0
 1cc:	30322d31 	eorscc	r2, r2, r1, lsr sp
 1d0:	34202933 	strtcc	r2, [r0], #-2355
 1d4:	332e332e 	teqcc	lr, #-1207959552	; 0xb8000000
 1d8:	43470000 	movtmi	r0, #28672	; 0x7000
 1dc:	28203a43 	stmdacs	r0!, {r0, r1, r6, r9, fp, ip, sp}
 1e0:	72756f53 	rsbsvc	r6, r5, #332	; 0x14c
 1e4:	79726563 	ldmdbvc	r2!, {r0, r1, r5, r6, r8, sl, sp, lr}^
 1e8:	2b2b4720 	blcs	ad1e70 <__standby_start+0xad1e70>
 1ec:	74694c20 	strbtvc	r4, [r9], #-3104
 1f0:	30322065 	eorscc	r2, r2, r5, rrx
 1f4:	31713930 	cmncc	r1, r0, lsr r9
 1f8:	3330322d 	teqcc	r0, #-805306366	; 0xd0000002
 1fc:	2e342029 	cdpcs	0, 3, cr2, cr4, cr9, {1}
 200:	00332e33 	eorseq	r2, r3, r3, lsr lr

Disassembly of section .ARM.attributes:

00000000 <.ARM.attributes>:
   0:	00002a41 	andeq	r2, r0, r1, asr #20
   4:	61656100 	cmnvs	r5, r0, lsl #2
   8:	01006962 	tsteq	r0, r2, ror #18
   c:	00000020 	andeq	r0, r0, r0, lsr #32
  10:	412d3705 	teqmi	sp, r5, lsl #14
  14:	070a0600 	streq	r0, [sl, -r0, lsl #12]
  18:	09010841 	stmdbeq	r1, {r0, r6, fp}
  1c:	14041202 	strne	r1, [r4], #-514
  20:	17011501 	strne	r1, [r1, -r1, lsl #10]
  24:	1a011803 	bne	46038 <__standby_start+0x46038>
  28:	Address 0x00000028 is out of bounds.


Disassembly of section .debug_ranges:

00000000 <.debug_ranges>:
   0:	00000250 	andeq	r0, r0, r0, asr r2
   4:	00000264 	andeq	r0, r0, r4, ror #4
   8:	00000274 	andeq	r0, r0, r4, ror r2
   c:	000002c8 	andeq	r0, r0, r8, asr #5
	...
  18:	00000250 	andeq	r0, r0, r0, asr r2
  1c:	00000264 	andeq	r0, r0, r4, ror #4
  20:	00000274 	andeq	r0, r0, r4, ror r2
  24:	000002c8 	andeq	r0, r0, r8, asr #5
	...
